(lp0
(lp1
(iGenerate
Edge
p2
(dp3
S'a'
p4
I0
sS'b'
p5
cnumpy.core.multiarray
scalar
p6
(cnumpy
dtype
p7
(S'i4'
p8
I0
I1
tp9
Rp10
(I3
S'<'
p11
NNNI-1
I-1
I0
tp12
bS'\x02\x00\x00\x00'
p13
tp14
Rp15
sba(iGenerate
Edge
p16
(dp17
g4
g15
sg5
I1
sba(iGenerate
Edge
p18
(dp19
g4
I1
sg5
I9
sba(iGenerate
Edge
p20
(dp21
g4
I9
sg5
I3
sba(iGenerate
Edge
p22
(dp23
g4
I3
sg5
I4
sba(iGenerate
Edge
p24
(dp25
g4
I4
sg5
I5
sba(iGenerate
Edge
p26
(dp27
g4
I5
sg5
I7
sba(iGenerate
Edge
p28
(dp29
g4
I7
sg5
I6
sba(iGenerate
Edge
p30
(dp31
g4
I6
sg5
I8
sba(iGenerate
Edge
p32
(dp33
g4
I8
sg5
I0
sbaa(lp34
(iGenerate
Edge
p35
(dp36
g4
I0
sg5
g6
(g10
S'\x02\x00\x00\x00'
p37
tp38
Rp39
sba(iGenerate
Edge
p40
(dp41
g4
g39
sg5
I1
sba(iGenerate
Edge
p42
(dp43
g4
I1
sg5
I9
sba(iGenerate
Edge
p44
(dp45
g4
I9
sg5
I3
sba(iGenerate
Edge
p46
(dp47
g4
I3
sg5
I4
sba(iGenerate
Edge
p48
(dp49
g4
I4
sg5
I5
sba(iGenerate
Edge
p50
(dp51
g4
I5
sg5
I7
sba(iGenerate
Edge
p52
(dp53
g4
I7
sg5
I6
sba(iGenerate
Edge
p54
(dp55
g4
I6
sg5
I8
sba(iGenerate
Edge
p56
(dp57
g4
I8
sg5
I0
sbaa(lp58
(iGenerate
Edge
p59
(dp60
g4
I0
sg5
g6
(g10
S'\x02\x00\x00\x00'
p61
tp62
Rp63
sba(iGenerate
Edge
p64
(dp65
g4
g63
sg5
I1
sba(iGenerate
Edge
p66
(dp67
g4
I1
sg5
I9
sba(iGenerate
Edge
p68
(dp69
g4
I9
sg5
I3
sba(iGenerate
Edge
p70
(dp71
g4
I3
sg5
I4
sba(iGenerate
Edge
p72
(dp73
g4
I4
sg5
I5
sba(iGenerate
Edge
p74
(dp75
g4
I5
sg5
I7
sba(iGenerate
Edge
p76
(dp77
g4
I7
sg5
I6
sba(iGenerate
Edge
p78
(dp79
g4
I6
sg5
I8
sba(iGenerate
Edge
p80
(dp81
g4
I8
sg5
I0
sbaa(lp82
(iGenerate
Edge
p83
(dp84
g4
I0
sg5
g6
(g10
S'\x02\x00\x00\x00'
p85
tp86
Rp87
sba(iGenerate
Edge
p88
(dp89
g4
g87
sg5
I1
sba(iGenerate
Edge
p90
(dp91
g4
I1
sg5
I9
sba(iGenerate
Edge
p92
(dp93
g4
I9
sg5
I3
sba(iGenerate
Edge
p94
(dp95
g4
I3
sg5
I4
sba(iGenerate
Edge
p96
(dp97
g4
I4
sg5
I5
sba(iGenerate
Edge
p98
(dp99
g4
I5
sg5
I7
sba(iGenerate
Edge
p100
(dp101
g4
I7
sg5
I6
sba(iGenerate
Edge
p102
(dp103
g4
I6
sg5
I8
sba(iGenerate
Edge
p104
(dp105
g4
I8
sg5
I0
sbaa(lp106
(iGenerate
Edge
p107
(dp108
g4
I0
sg5
g6
(g10
S'\x02\x00\x00\x00'
p109
tp110
Rp111
sba(iGenerate
Edge
p112
(dp113
g4
g111
sg5
I1
sba(iGenerate
Edge
p114
(dp115
g4
I1
sg5
I9
sba(iGenerate
Edge
p116
(dp117
g4
I9
sg5
I3
sba(iGenerate
Edge
p118
(dp119
g4
I3
sg5
I4
sba(iGenerate
Edge
p120
(dp121
g4
I4
sg5
I5
sba(iGenerate
Edge
p122
(dp123
g4
I5
sg5
I7
sba(iGenerate
Edge
p124
(dp125
g4
I7
sg5
I6
sba(iGenerate
Edge
p126
(dp127
g4
I6
sg5
I8
sba(iGenerate
Edge
p128
(dp129
g4
I8
sg5
I0
sbaa(lp130
(iGenerate
Edge
p131
(dp132
g4
I0
sg5
g6
(g10
S'\x02\x00\x00\x00'
p133
tp134
Rp135
sba(iGenerate
Edge
p136
(dp137
g4
g135
sg5
I1
sba(iGenerate
Edge
p138
(dp139
g4
I1
sg5
I9
sba(iGenerate
Edge
p140
(dp141
g4
I9
sg5
I3
sba(iGenerate
Edge
p142
(dp143
g4
I3
sg5
I4
sba(iGenerate
Edge
p144
(dp145
g4
I4
sg5
I5
sba(iGenerate
Edge
p146
(dp147
g4
I5
sg5
I7
sba(iGenerate
Edge
p148
(dp149
g4
I7
sg5
I6
sba(iGenerate
Edge
p150
(dp151
g4
I6
sg5
I8
sba(iGenerate
Edge
p152
(dp153
g4
I8
sg5
I0
sbaa(lp154
(iGenerate
Edge
p155
(dp156
g4
I0
sg5
g6
(g10
S'\x02\x00\x00\x00'
p157
tp158
Rp159
sba(iGenerate
Edge
p160
(dp161
g4
g159
sg5
I1
sba(iGenerate
Edge
p162
(dp163
g4
I1
sg5
I9
sba(iGenerate
Edge
p164
(dp165
g4
I9
sg5
I3
sba(iGenerate
Edge
p166
(dp167
g4
I3
sg5
I4
sba(iGenerate
Edge
p168
(dp169
g4
I4
sg5
I5
sba(iGenerate
Edge
p170
(dp171
g4
I5
sg5
I7
sba(iGenerate
Edge
p172
(dp173
g4
I7
sg5
I6
sba(iGenerate
Edge
p174
(dp175
g4
I6
sg5
I8
sba(iGenerate
Edge
p176
(dp177
g4
I8
sg5
I0
sbaa(lp178
(iGenerate
Edge
p179
(dp180
g4
I0
sg5
g6
(g10
S'\x02\x00\x00\x00'
p181
tp182
Rp183
sba(iGenerate
Edge
p184
(dp185
g4
g183
sg5
I1
sba(iGenerate
Edge
p186
(dp187
g4
I1
sg5
I9
sba(iGenerate
Edge
p188
(dp189
g4
I9
sg5
I3
sba(iGenerate
Edge
p190
(dp191
g4
I3
sg5
I4
sba(iGenerate
Edge
p192
(dp193
g4
I4
sg5
I5
sba(iGenerate
Edge
p194
(dp195
g4
I5
sg5
I7
sba(iGenerate
Edge
p196
(dp197
g4
I7
sg5
I6
sba(iGenerate
Edge
p198
(dp199
g4
I6
sg5
I8
sba(iGenerate
Edge
p200
(dp201
g4
I8
sg5
I0
sbaa(lp202
(iGenerate
Edge
p203
(dp204
g4
I0
sg5
g6
(g10
S'\x02\x00\x00\x00'
p205
tp206
Rp207
sba(iGenerate
Edge
p208
(dp209
g4
g207
sg5
I1
sba(iGenerate
Edge
p210
(dp211
g4
I1
sg5
I9
sba(iGenerate
Edge
p212
(dp213
g4
I9
sg5
I3
sba(iGenerate
Edge
p214
(dp215
g4
I3
sg5
I4
sba(iGenerate
Edge
p216
(dp217
g4
I4
sg5
I5
sba(iGenerate
Edge
p218
(dp219
g4
I5
sg5
I7
sba(iGenerate
Edge
p220
(dp221
g4
I7
sg5
I6
sba(iGenerate
Edge
p222
(dp223
g4
I6
sg5
I8
sba(iGenerate
Edge
p224
(dp225
g4
I8
sg5
I0
sbaa(lp226
(iGenerate
Edge
p227
(dp228
g4
I0
sg5
g6
(g10
S'\x02\x00\x00\x00'
p229
tp230
Rp231
sba(iGenerate
Edge
p232
(dp233
g4
g231
sg5
I1
sba(iGenerate
Edge
p234
(dp235
g4
I1
sg5
I9
sba(iGenerate
Edge
p236
(dp237
g4
I9
sg5
I3
sba(iGenerate
Edge
p238
(dp239
g4
I3
sg5
I4
sba(iGenerate
Edge
p240
(dp241
g4
I4
sg5
I5
sba(iGenerate
Edge
p242
(dp243
g4
I5
sg5
I7
sba(iGenerate
Edge
p244
(dp245
g4
I7
sg5
I6
sba(iGenerate
Edge
p246
(dp247
g4
I6
sg5
I8
sba(iGenerate
Edge
p248
(dp249
g4
I8
sg5
I0
sbaa(lp250
(iGenerate
Edge
p251
(dp252
g4
I0
sg5
g6
(g10
S'\x02\x00\x00\x00'
p253
tp254
Rp255
sba(iGenerate
Edge
p256
(dp257
g4
g255
sg5
I1
sba(iGenerate
Edge
p258
(dp259
g4
I1
sg5
I9
sba(iGenerate
Edge
p260
(dp261
g4
I9
sg5
I3
sba(iGenerate
Edge
p262
(dp263
g4
I3
sg5
I4
sba(iGenerate
Edge
p264
(dp265
g4
I4
sg5
I5
sba(iGenerate
Edge
p266
(dp267
g4
I5
sg5
I7
sba(iGenerate
Edge
p268
(dp269
g4
I7
sg5
I6
sba(iGenerate
Edge
p270
(dp271
g4
I6
sg5
I8
sba(iGenerate
Edge
p272
(dp273
g4
I8
sg5
I0
sbaa(lp274
(iGenerate
Edge
p275
(dp276
g4
I0
sg5
g6
(g10
S'\x02\x00\x00\x00'
p277
tp278
Rp279
sba(iGenerate
Edge
p280
(dp281
g4
g279
sg5
I1
sba(iGenerate
Edge
p282
(dp283
g4
I1
sg5
I9
sba(iGenerate
Edge
p284
(dp285
g4
I9
sg5
I3
sba(iGenerate
Edge
p286
(dp287
g4
I3
sg5
I4
sba(iGenerate
Edge
p288
(dp289
g4
I4
sg5
I5
sba(iGenerate
Edge
p290
(dp291
g4
I5
sg5
I7
sba(iGenerate
Edge
p292
(dp293
g4
I7
sg5
I6
sba(iGenerate
Edge
p294
(dp295
g4
I6
sg5
I8
sba(iGenerate
Edge
p296
(dp297
g4
I8
sg5
I0
sbaa(lp298
(iGenerate
Edge
p299
(dp300
g4
I0
sg5
g6
(g10
S'\x02\x00\x00\x00'
p301
tp302
Rp303
sba(iGenerate
Edge
p304
(dp305
g4
g303
sg5
I1
sba(iGenerate
Edge
p306
(dp307
g4
I1
sg5
I9
sba(iGenerate
Edge
p308
(dp309
g4
I9
sg5
I3
sba(iGenerate
Edge
p310
(dp311
g4
I3
sg5
I4
sba(iGenerate
Edge
p312
(dp313
g4
I4
sg5
I5
sba(iGenerate
Edge
p314
(dp315
g4
I5
sg5
I7
sba(iGenerate
Edge
p316
(dp317
g4
I7
sg5
I6
sba(iGenerate
Edge
p318
(dp319
g4
I6
sg5
I8
sba(iGenerate
Edge
p320
(dp321
g4
I8
sg5
I0
sbaa(lp322
(iGenerate
Edge
p323
(dp324
g4
I0
sg5
g6
(g10
S'\x02\x00\x00\x00'
p325
tp326
Rp327
sba(iGenerate
Edge
p328
(dp329
g4
g327
sg5
I1
sba(iGenerate
Edge
p330
(dp331
g4
I1
sg5
I9
sba(iGenerate
Edge
p332
(dp333
g4
I9
sg5
I3
sba(iGenerate
Edge
p334
(dp335
g4
I3
sg5
I4
sba(iGenerate
Edge
p336
(dp337
g4
I4
sg5
I5
sba(iGenerate
Edge
p338
(dp339
g4
I5
sg5
I7
sba(iGenerate
Edge
p340
(dp341
g4
I7
sg5
I6
sba(iGenerate
Edge
p342
(dp343
g4
I6
sg5
I8
sba(iGenerate
Edge
p344
(dp345
g4
I8
sg5
I0
sbaa(lp346
(iGenerate
Edge
p347
(dp348
g4
I0
sg5
g6
(g10
S'\x02\x00\x00\x00'
p349
tp350
Rp351
sba(iGenerate
Edge
p352
(dp353
g4
g351
sg5
I1
sba(iGenerate
Edge
p354
(dp355
g4
I1
sg5
I9
sba(iGenerate
Edge
p356
(dp357
g4
I9
sg5
I3
sba(iGenerate
Edge
p358
(dp359
g4
I3
sg5
I4
sba(iGenerate
Edge
p360
(dp361
g4
I4
sg5
I5
sba(iGenerate
Edge
p362
(dp363
g4
I5
sg5
I7
sba(iGenerate
Edge
p364
(dp365
g4
I7
sg5
I6
sba(iGenerate
Edge
p366
(dp367
g4
I6
sg5
I8
sba(iGenerate
Edge
p368
(dp369
g4
I8
sg5
I0
sbaa(lp370
(iGenerate
Edge
p371
(dp372
g4
I0
sg5
g6
(g10
S'\x02\x00\x00\x00'
p373
tp374
Rp375
sba(iGenerate
Edge
p376
(dp377
g4
g375
sg5
I1
sba(iGenerate
Edge
p378
(dp379
g4
I1
sg5
I9
sba(iGenerate
Edge
p380
(dp381
g4
I9
sg5
I3
sba(iGenerate
Edge
p382
(dp383
g4
I3
sg5
I4
sba(iGenerate
Edge
p384
(dp385
g4
I4
sg5
I5
sba(iGenerate
Edge
p386
(dp387
g4
I5
sg5
I7
sba(iGenerate
Edge
p388
(dp389
g4
I7
sg5
I6
sba(iGenerate
Edge
p390
(dp391
g4
I6
sg5
I8
sba(iGenerate
Edge
p392
(dp393
g4
I8
sg5
I0
sbaa(lp394
(iGenerate
Edge
p395
(dp396
g4
I0
sg5
g6
(g10
S'\x02\x00\x00\x00'
p397
tp398
Rp399
sba(iGenerate
Edge
p400
(dp401
g4
g399
sg5
I1
sba(iGenerate
Edge
p402
(dp403
g4
I1
sg5
I9
sba(iGenerate
Edge
p404
(dp405
g4
I9
sg5
I3
sba(iGenerate
Edge
p406
(dp407
g4
I3
sg5
I4
sba(iGenerate
Edge
p408
(dp409
g4
I4
sg5
I5
sba(iGenerate
Edge
p410
(dp411
g4
I5
sg5
I7
sba(iGenerate
Edge
p412
(dp413
g4
I7
sg5
I6
sba(iGenerate
Edge
p414
(dp415
g4
I6
sg5
I8
sba(iGenerate
Edge
p416
(dp417
g4
I8
sg5
I0
sbaa(lp418
(iGenerate
Edge
p419
(dp420
g4
I0
sg5
g6
(g10
S'\x02\x00\x00\x00'
p421
tp422
Rp423
sba(iGenerate
Edge
p424
(dp425
g4
g423
sg5
I1
sba(iGenerate
Edge
p426
(dp427
g4
I1
sg5
I9
sba(iGenerate
Edge
p428
(dp429
g4
I9
sg5
I3
sba(iGenerate
Edge
p430
(dp431
g4
I3
sg5
I4
sba(iGenerate
Edge
p432
(dp433
g4
I4
sg5
I5
sba(iGenerate
Edge
p434
(dp435
g4
I5
sg5
I7
sba(iGenerate
Edge
p436
(dp437
g4
I7
sg5
I6
sba(iGenerate
Edge
p438
(dp439
g4
I6
sg5
I8
sba(iGenerate
Edge
p440
(dp441
g4
I8
sg5
I0
sbaa(lp442
(iGenerate
Edge
p443
(dp444
g4
I0
sg5
g6
(g10
S'\x02\x00\x00\x00'
p445
tp446
Rp447
sba(iGenerate
Edge
p448
(dp449
g4
g447
sg5
I1
sba(iGenerate
Edge
p450
(dp451
g4
I1
sg5
I9
sba(iGenerate
Edge
p452
(dp453
g4
I9
sg5
I3
sba(iGenerate
Edge
p454
(dp455
g4
I3
sg5
I4
sba(iGenerate
Edge
p456
(dp457
g4
I4
sg5
I5
sba(iGenerate
Edge
p458
(dp459
g4
I5
sg5
I7
sba(iGenerate
Edge
p460
(dp461
g4
I7
sg5
I6
sba(iGenerate
Edge
p462
(dp463
g4
I6
sg5
I8
sba(iGenerate
Edge
p464
(dp465
g4
I8
sg5
I0
sbaa(lp466
(iGenerate
Edge
p467
(dp468
g4
I0
sg5
g6
(g10
S'\x02\x00\x00\x00'
p469
tp470
Rp471
sba(iGenerate
Edge
p472
(dp473
g4
g471
sg5
I1
sba(iGenerate
Edge
p474
(dp475
g4
I1
sg5
I9
sba(iGenerate
Edge
p476
(dp477
g4
I9
sg5
I3
sba(iGenerate
Edge
p478
(dp479
g4
I3
sg5
I4
sba(iGenerate
Edge
p480
(dp481
g4
I4
sg5
I5
sba(iGenerate
Edge
p482
(dp483
g4
I5
sg5
I7
sba(iGenerate
Edge
p484
(dp485
g4
I7
sg5
I6
sba(iGenerate
Edge
p486
(dp487
g4
I6
sg5
I8
sba(iGenerate
Edge
p488
(dp489
g4
I8
sg5
I0
sbaa(lp490
(iGenerate
Edge
p491
(dp492
g4
I0
sg5
g6
(g10
S'\x02\x00\x00\x00'
p493
tp494
Rp495
sba(iGenerate
Edge
p496
(dp497
g4
g495
sg5
I1
sba(iGenerate
Edge
p498
(dp499
g4
I1
sg5
I9
sba(iGenerate
Edge
p500
(dp501
g4
I9
sg5
I3
sba(iGenerate
Edge
p502
(dp503
g4
I3
sg5
I4
sba(iGenerate
Edge
p504
(dp505
g4
I4
sg5
I5
sba(iGenerate
Edge
p506
(dp507
g4
I5
sg5
I7
sba(iGenerate
Edge
p508
(dp509
g4
I7
sg5
I6
sba(iGenerate
Edge
p510
(dp511
g4
I6
sg5
I8
sba(iGenerate
Edge
p512
(dp513
g4
I8
sg5
I0
sbaa(lp514
(iGenerate
Edge
p515
(dp516
g4
I0
sg5
g6
(g10
S'\x02\x00\x00\x00'
p517
tp518
Rp519
sba(iGenerate
Edge
p520
(dp521
g4
g519
sg5
I1
sba(iGenerate
Edge
p522
(dp523
g4
I1
sg5
I9
sba(iGenerate
Edge
p524
(dp525
g4
I9
sg5
I3
sba(iGenerate
Edge
p526
(dp527
g4
I3
sg5
I4
sba(iGenerate
Edge
p528
(dp529
g4
I4
sg5
I5
sba(iGenerate
Edge
p530
(dp531
g4
I5
sg5
I7
sba(iGenerate
Edge
p532
(dp533
g4
I7
sg5
I6
sba(iGenerate
Edge
p534
(dp535
g4
I6
sg5
I8
sba(iGenerate
Edge
p536
(dp537
g4
I8
sg5
I0
sbaa(lp538
(iGenerate
Edge
p539
(dp540
g4
I0
sg5
g6
(g10
S'\x02\x00\x00\x00'
p541
tp542
Rp543
sba(iGenerate
Edge
p544
(dp545
g4
g543
sg5
I1
sba(iGenerate
Edge
p546
(dp547
g4
I1
sg5
I9
sba(iGenerate
Edge
p548
(dp549
g4
I9
sg5
I3
sba(iGenerate
Edge
p550
(dp551
g4
I3
sg5
I4
sba(iGenerate
Edge
p552
(dp553
g4
I4
sg5
I5
sba(iGenerate
Edge
p554
(dp555
g4
I5
sg5
I7
sba(iGenerate
Edge
p556
(dp557
g4
I7
sg5
I6
sba(iGenerate
Edge
p558
(dp559
g4
I6
sg5
I8
sba(iGenerate
Edge
p560
(dp561
g4
I8
sg5
I0
sbaa(lp562
(iGenerate
Edge
p563
(dp564
g4
I0
sg5
g6
(g10
S'\x02\x00\x00\x00'
p565
tp566
Rp567
sba(iGenerate
Edge
p568
(dp569
g4
g567
sg5
I1
sba(iGenerate
Edge
p570
(dp571
g4
I1
sg5
I9
sba(iGenerate
Edge
p572
(dp573
g4
I9
sg5
I3
sba(iGenerate
Edge
p574
(dp575
g4
I3
sg5
I4
sba(iGenerate
Edge
p576
(dp577
g4
I4
sg5
I5
sba(iGenerate
Edge
p578
(dp579
g4
I5
sg5
I7
sba(iGenerate
Edge
p580
(dp581
g4
I7
sg5
I6
sba(iGenerate
Edge
p582
(dp583
g4
I6
sg5
I8
sba(iGenerate
Edge
p584
(dp585
g4
I8
sg5
I0
sbaa(lp586
(iGenerate
Edge
p587
(dp588
g4
I0
sg5
g6
(g10
S'\x02\x00\x00\x00'
p589
tp590
Rp591
sba(iGenerate
Edge
p592
(dp593
g4
g591
sg5
I1
sba(iGenerate
Edge
p594
(dp595
g4
I1
sg5
I9
sba(iGenerate
Edge
p596
(dp597
g4
I9
sg5
I3
sba(iGenerate
Edge
p598
(dp599
g4
I3
sg5
I4
sba(iGenerate
Edge
p600
(dp601
g4
I4
sg5
I5
sba(iGenerate
Edge
p602
(dp603
g4
I5
sg5
I7
sba(iGenerate
Edge
p604
(dp605
g4
I7
sg5
I6
sba(iGenerate
Edge
p606
(dp607
g4
I6
sg5
I8
sba(iGenerate
Edge
p608
(dp609
g4
I8
sg5
I0
sbaa(lp610
(iGenerate
Edge
p611
(dp612
g4
I0
sg5
g6
(g10
S'\x02\x00\x00\x00'
p613
tp614
Rp615
sba(iGenerate
Edge
p616
(dp617
g4
g615
sg5
I1
sba(iGenerate
Edge
p618
(dp619
g4
I1
sg5
I9
sba(iGenerate
Edge
p620
(dp621
g4
I9
sg5
I3
sba(iGenerate
Edge
p622
(dp623
g4
I3
sg5
I4
sba(iGenerate
Edge
p624
(dp625
g4
I4
sg5
I5
sba(iGenerate
Edge
p626
(dp627
g4
I5
sg5
I7
sba(iGenerate
Edge
p628
(dp629
g4
I7
sg5
I6
sba(iGenerate
Edge
p630
(dp631
g4
I6
sg5
I8
sba(iGenerate
Edge
p632
(dp633
g4
I8
sg5
I0
sbaa(lp634
(iGenerate
Edge
p635
(dp636
g4
I0
sg5
g6
(g10
S'\x02\x00\x00\x00'
p637
tp638
Rp639
sba(iGenerate
Edge
p640
(dp641
g4
g639
sg5
I1
sba(iGenerate
Edge
p642
(dp643
g4
I1
sg5
I9
sba(iGenerate
Edge
p644
(dp645
g4
I9
sg5
I3
sba(iGenerate
Edge
p646
(dp647
g4
I3
sg5
I4
sba(iGenerate
Edge
p648
(dp649
g4
I4
sg5
I5
sba(iGenerate
Edge
p650
(dp651
g4
I5
sg5
I7
sba(iGenerate
Edge
p652
(dp653
g4
I7
sg5
I6
sba(iGenerate
Edge
p654
(dp655
g4
I6
sg5
I8
sba(iGenerate
Edge
p656
(dp657
g4
I8
sg5
I0
sbaa(lp658
(iGenerate
Edge
p659
(dp660
g4
I0
sg5
g6
(g10
S'\x02\x00\x00\x00'
p661
tp662
Rp663
sba(iGenerate
Edge
p664
(dp665
g4
g663
sg5
I1
sba(iGenerate
Edge
p666
(dp667
g4
I1
sg5
I9
sba(iGenerate
Edge
p668
(dp669
g4
I9
sg5
I3
sba(iGenerate
Edge
p670
(dp671
g4
I3
sg5
I4
sba(iGenerate
Edge
p672
(dp673
g4
I4
sg5
I5
sba(iGenerate
Edge
p674
(dp675
g4
I5
sg5
I7
sba(iGenerate
Edge
p676
(dp677
g4
I7
sg5
I6
sba(iGenerate
Edge
p678
(dp679
g4
I6
sg5
I8
sba(iGenerate
Edge
p680
(dp681
g4
I8
sg5
I0
sbaa(lp682
(iGenerate
Edge
p683
(dp684
g4
I0
sg5
g6
(g10
S'\x02\x00\x00\x00'
p685
tp686
Rp687
sba(iGenerate
Edge
p688
(dp689
g4
g687
sg5
I1
sba(iGenerate
Edge
p690
(dp691
g4
I1
sg5
I9
sba(iGenerate
Edge
p692
(dp693
g4
I9
sg5
I3
sba(iGenerate
Edge
p694
(dp695
g4
I3
sg5
I4
sba(iGenerate
Edge
p696
(dp697
g4
I4
sg5
I5
sba(iGenerate
Edge
p698
(dp699
g4
I5
sg5
I7
sba(iGenerate
Edge
p700
(dp701
g4
I7
sg5
I6
sba(iGenerate
Edge
p702
(dp703
g4
I6
sg5
I8
sba(iGenerate
Edge
p704
(dp705
g4
I8
sg5
I0
sbaa(lp706
(iGenerate
Edge
p707
(dp708
g4
I0
sg5
g6
(g10
S'\x02\x00\x00\x00'
p709
tp710
Rp711
sba(iGenerate
Edge
p712
(dp713
g4
g711
sg5
I1
sba(iGenerate
Edge
p714
(dp715
g4
I1
sg5
I9
sba(iGenerate
Edge
p716
(dp717
g4
I9
sg5
I3
sba(iGenerate
Edge
p718
(dp719
g4
I3
sg5
I4
sba(iGenerate
Edge
p720
(dp721
g4
I4
sg5
I5
sba(iGenerate
Edge
p722
(dp723
g4
I5
sg5
I7
sba(iGenerate
Edge
p724
(dp725
g4
I7
sg5
I6
sba(iGenerate
Edge
p726
(dp727
g4
I6
sg5
I8
sba(iGenerate
Edge
p728
(dp729
g4
I8
sg5
I0
sbaa(lp730
(iGenerate
Edge
p731
(dp732
g4
I0
sg5
g6
(g10
S'\x02\x00\x00\x00'
p733
tp734
Rp735
sba(iGenerate
Edge
p736
(dp737
g4
g735
sg5
I1
sba(iGenerate
Edge
p738
(dp739
g4
I1
sg5
I9
sba(iGenerate
Edge
p740
(dp741
g4
I9
sg5
I3
sba(iGenerate
Edge
p742
(dp743
g4
I3
sg5
I4
sba(iGenerate
Edge
p744
(dp745
g4
I4
sg5
I5
sba(iGenerate
Edge
p746
(dp747
g4
I5
sg5
I7
sba(iGenerate
Edge
p748
(dp749
g4
I7
sg5
I6
sba(iGenerate
Edge
p750
(dp751
g4
I6
sg5
I8
sba(iGenerate
Edge
p752
(dp753
g4
I8
sg5
I0
sbaa(lp754
(iGenerate
Edge
p755
(dp756
g4
I0
sg5
g6
(g10
S'\x02\x00\x00\x00'
p757
tp758
Rp759
sba(iGenerate
Edge
p760
(dp761
g4
g759
sg5
I1
sba(iGenerate
Edge
p762
(dp763
g4
I1
sg5
I9
sba(iGenerate
Edge
p764
(dp765
g4
I9
sg5
I3
sba(iGenerate
Edge
p766
(dp767
g4
I3
sg5
I4
sba(iGenerate
Edge
p768
(dp769
g4
I4
sg5
I5
sba(iGenerate
Edge
p770
(dp771
g4
I5
sg5
I7
sba(iGenerate
Edge
p772
(dp773
g4
I7
sg5
I6
sba(iGenerate
Edge
p774
(dp775
g4
I6
sg5
I8
sba(iGenerate
Edge
p776
(dp777
g4
I8
sg5
I0
sbaa(lp778
(iGenerate
Edge
p779
(dp780
g4
I0
sg5
g6
(g10
S'\x02\x00\x00\x00'
p781
tp782
Rp783
sba(iGenerate
Edge
p784
(dp785
g4
g783
sg5
I1
sba(iGenerate
Edge
p786
(dp787
g4
I1
sg5
I9
sba(iGenerate
Edge
p788
(dp789
g4
I9
sg5
I3
sba(iGenerate
Edge
p790
(dp791
g4
I3
sg5
I4
sba(iGenerate
Edge
p792
(dp793
g4
I4
sg5
I5
sba(iGenerate
Edge
p794
(dp795
g4
I5
sg5
I7
sba(iGenerate
Edge
p796
(dp797
g4
I7
sg5
I6
sba(iGenerate
Edge
p798
(dp799
g4
I6
sg5
I8
sba(iGenerate
Edge
p800
(dp801
g4
I8
sg5
I0
sbaa(lp802
(iGenerate
Edge
p803
(dp804
g4
I0
sg5
g6
(g10
S'\x02\x00\x00\x00'
p805
tp806
Rp807
sba(iGenerate
Edge
p808
(dp809
g4
g807
sg5
I1
sba(iGenerate
Edge
p810
(dp811
g4
I1
sg5
I9
sba(iGenerate
Edge
p812
(dp813
g4
I9
sg5
I3
sba(iGenerate
Edge
p814
(dp815
g4
I3
sg5
I4
sba(iGenerate
Edge
p816
(dp817
g4
I4
sg5
I5
sba(iGenerate
Edge
p818
(dp819
g4
I5
sg5
I7
sba(iGenerate
Edge
p820
(dp821
g4
I7
sg5
I6
sba(iGenerate
Edge
p822
(dp823
g4
I6
sg5
I8
sba(iGenerate
Edge
p824
(dp825
g4
I8
sg5
I0
sbaa(lp826
(iGenerate
Edge
p827
(dp828
g4
I0
sg5
g6
(g10
S'\x02\x00\x00\x00'
p829
tp830
Rp831
sba(iGenerate
Edge
p832
(dp833
g4
g831
sg5
I1
sba(iGenerate
Edge
p834
(dp835
g4
I1
sg5
I9
sba(iGenerate
Edge
p836
(dp837
g4
I9
sg5
I3
sba(iGenerate
Edge
p838
(dp839
g4
I3
sg5
I4
sba(iGenerate
Edge
p840
(dp841
g4
I4
sg5
I5
sba(iGenerate
Edge
p842
(dp843
g4
I5
sg5
I7
sba(iGenerate
Edge
p844
(dp845
g4
I7
sg5
I6
sba(iGenerate
Edge
p846
(dp847
g4
I6
sg5
I8
sba(iGenerate
Edge
p848
(dp849
g4
I8
sg5
I0
sbaa(lp850
(iGenerate
Edge
p851
(dp852
g4
I0
sg5
g6
(g10
S'\x02\x00\x00\x00'
p853
tp854
Rp855
sba(iGenerate
Edge
p856
(dp857
g4
g855
sg5
I1
sba(iGenerate
Edge
p858
(dp859
g4
I1
sg5
I9
sba(iGenerate
Edge
p860
(dp861
g4
I9
sg5
I3
sba(iGenerate
Edge
p862
(dp863
g4
I3
sg5
I4
sba(iGenerate
Edge
p864
(dp865
g4
I4
sg5
I5
sba(iGenerate
Edge
p866
(dp867
g4
I5
sg5
I7
sba(iGenerate
Edge
p868
(dp869
g4
I7
sg5
I6
sba(iGenerate
Edge
p870
(dp871
g4
I6
sg5
I8
sba(iGenerate
Edge
p872
(dp873
g4
I8
sg5
I0
sbaa(lp874
(iGenerate
Edge
p875
(dp876
g4
I0
sg5
g6
(g10
S'\x02\x00\x00\x00'
p877
tp878
Rp879
sba(iGenerate
Edge
p880
(dp881
g4
g879
sg5
I1
sba(iGenerate
Edge
p882
(dp883
g4
I1
sg5
I9
sba(iGenerate
Edge
p884
(dp885
g4
I9
sg5
I3
sba(iGenerate
Edge
p886
(dp887
g4
I3
sg5
I4
sba(iGenerate
Edge
p888
(dp889
g4
I4
sg5
I5
sba(iGenerate
Edge
p890
(dp891
g4
I5
sg5
I7
sba(iGenerate
Edge
p892
(dp893
g4
I7
sg5
I6
sba(iGenerate
Edge
p894
(dp895
g4
I6
sg5
I8
sba(iGenerate
Edge
p896
(dp897
g4
I8
sg5
I0
sbaa(lp898
(iGenerate
Edge
p899
(dp900
g4
I0
sg5
g6
(g10
S'\x02\x00\x00\x00'
p901
tp902
Rp903
sba(iGenerate
Edge
p904
(dp905
g4
g903
sg5
I1
sba(iGenerate
Edge
p906
(dp907
g4
I1
sg5
I9
sba(iGenerate
Edge
p908
(dp909
g4
I9
sg5
I3
sba(iGenerate
Edge
p910
(dp911
g4
I3
sg5
I4
sba(iGenerate
Edge
p912
(dp913
g4
I4
sg5
I5
sba(iGenerate
Edge
p914
(dp915
g4
I5
sg5
I7
sba(iGenerate
Edge
p916
(dp917
g4
I7
sg5
I6
sba(iGenerate
Edge
p918
(dp919
g4
I6
sg5
I8
sba(iGenerate
Edge
p920
(dp921
g4
I8
sg5
I0
sbaa(lp922
(iGenerate
Edge
p923
(dp924
g4
I0
sg5
g6
(g10
S'\x02\x00\x00\x00'
p925
tp926
Rp927
sba(iGenerate
Edge
p928
(dp929
g4
g927
sg5
I1
sba(iGenerate
Edge
p930
(dp931
g4
I1
sg5
I9
sba(iGenerate
Edge
p932
(dp933
g4
I9
sg5
I3
sba(iGenerate
Edge
p934
(dp935
g4
I3
sg5
I4
sba(iGenerate
Edge
p936
(dp937
g4
I4
sg5
I5
sba(iGenerate
Edge
p938
(dp939
g4
I5
sg5
I7
sba(iGenerate
Edge
p940
(dp941
g4
I7
sg5
I6
sba(iGenerate
Edge
p942
(dp943
g4
I6
sg5
I8
sba(iGenerate
Edge
p944
(dp945
g4
I8
sg5
I0
sbaa(lp946
(iGenerate
Edge
p947
(dp948
g4
I0
sg5
g6
(g10
S'\x02\x00\x00\x00'
p949
tp950
Rp951
sba(iGenerate
Edge
p952
(dp953
g4
g951
sg5
I1
sba(iGenerate
Edge
p954
(dp955
g4
I1
sg5
I9
sba(iGenerate
Edge
p956
(dp957
g4
I9
sg5
I3
sba(iGenerate
Edge
p958
(dp959
g4
I3
sg5
I4
sba(iGenerate
Edge
p960
(dp961
g4
I4
sg5
I5
sba(iGenerate
Edge
p962
(dp963
g4
I5
sg5
I7
sba(iGenerate
Edge
p964
(dp965
g4
I7
sg5
I6
sba(iGenerate
Edge
p966
(dp967
g4
I6
sg5
I8
sba(iGenerate
Edge
p968
(dp969
g4
I8
sg5
I0
sbaa(lp970
(iGenerate
Edge
p971
(dp972
g4
I0
sg5
g6
(g10
S'\x02\x00\x00\x00'
p973
tp974
Rp975
sba(iGenerate
Edge
p976
(dp977
g4
g975
sg5
I1
sba(iGenerate
Edge
p978
(dp979
g4
I1
sg5
I9
sba(iGenerate
Edge
p980
(dp981
g4
I9
sg5
I3
sba(iGenerate
Edge
p982
(dp983
g4
I3
sg5
I4
sba(iGenerate
Edge
p984
(dp985
g4
I4
sg5
I5
sba(iGenerate
Edge
p986
(dp987
g4
I5
sg5
I7
sba(iGenerate
Edge
p988
(dp989
g4
I7
sg5
I6
sba(iGenerate
Edge
p990
(dp991
g4
I6
sg5
I8
sba(iGenerate
Edge
p992
(dp993
g4
I8
sg5
I0
sbaa(lp994
(iGenerate
Edge
p995
(dp996
g4
I0
sg5
g6
(g10
S'\x02\x00\x00\x00'
p997
tp998
Rp999
sba(iGenerate
Edge
p1000
(dp1001
g4
g999
sg5
I1
sba(iGenerate
Edge
p1002
(dp1003
g4
I1
sg5
I9
sba(iGenerate
Edge
p1004
(dp1005
g4
I9
sg5
I3
sba(iGenerate
Edge
p1006
(dp1007
g4
I3
sg5
I4
sba(iGenerate
Edge
p1008
(dp1009
g4
I4
sg5
I5
sba(iGenerate
Edge
p1010
(dp1011
g4
I5
sg5
I7
sba(iGenerate
Edge
p1012
(dp1013
g4
I7
sg5
I6
sba(iGenerate
Edge
p1014
(dp1015
g4
I6
sg5
I8
sba(iGenerate
Edge
p1016
(dp1017
g4
I8
sg5
I0
sbaa(lp1018
(iGenerate
Edge
p1019
(dp1020
g4
I0
sg5
g6
(g10
S'\x02\x00\x00\x00'
p1021
tp1022
Rp1023
sba(iGenerate
Edge
p1024
(dp1025
g4
g1023
sg5
I1
sba(iGenerate
Edge
p1026
(dp1027
g4
I1
sg5
I9
sba(iGenerate
Edge
p1028
(dp1029
g4
I9
sg5
I3
sba(iGenerate
Edge
p1030
(dp1031
g4
I3
sg5
I4
sba(iGenerate
Edge
p1032
(dp1033
g4
I4
sg5
I5
sba(iGenerate
Edge
p1034
(dp1035
g4
I5
sg5
I7
sba(iGenerate
Edge
p1036
(dp1037
g4
I7
sg5
I6
sba(iGenerate
Edge
p1038
(dp1039
g4
I6
sg5
I8
sba(iGenerate
Edge
p1040
(dp1041
g4
I8
sg5
I0
sbaa(lp1042
(iGenerate
Edge
p1043
(dp1044
g4
I0
sg5
g6
(g10
S'\x02\x00\x00\x00'
p1045
tp1046
Rp1047
sba(iGenerate
Edge
p1048
(dp1049
g4
g1047
sg5
I1
sba(iGenerate
Edge
p1050
(dp1051
g4
I1
sg5
I9
sba(iGenerate
Edge
p1052
(dp1053
g4
I9
sg5
I3
sba(iGenerate
Edge
p1054
(dp1055
g4
I3
sg5
I4
sba(iGenerate
Edge
p1056
(dp1057
g4
I4
sg5
I5
sba(iGenerate
Edge
p1058
(dp1059
g4
I5
sg5
I7
sba(iGenerate
Edge
p1060
(dp1061
g4
I7
sg5
I6
sba(iGenerate
Edge
p1062
(dp1063
g4
I6
sg5
I8
sba(iGenerate
Edge
p1064
(dp1065
g4
I8
sg5
I0
sbaa(lp1066
(iGenerate
Edge
p1067
(dp1068
g4
I0
sg5
g6
(g10
S'\x02\x00\x00\x00'
p1069
tp1070
Rp1071
sba(iGenerate
Edge
p1072
(dp1073
g4
g1071
sg5
I1
sba(iGenerate
Edge
p1074
(dp1075
g4
I1
sg5
I9
sba(iGenerate
Edge
p1076
(dp1077
g4
I9
sg5
I3
sba(iGenerate
Edge
p1078
(dp1079
g4
I3
sg5
I4
sba(iGenerate
Edge
p1080
(dp1081
g4
I4
sg5
I5
sba(iGenerate
Edge
p1082
(dp1083
g4
I5
sg5
I7
sba(iGenerate
Edge
p1084
(dp1085
g4
I7
sg5
I6
sba(iGenerate
Edge
p1086
(dp1087
g4
I6
sg5
I8
sba(iGenerate
Edge
p1088
(dp1089
g4
I8
sg5
I0
sbaa(lp1090
(iGenerate
Edge
p1091
(dp1092
g4
I0
sg5
g6
(g10
S'\x02\x00\x00\x00'
p1093
tp1094
Rp1095
sba(iGenerate
Edge
p1096
(dp1097
g4
g1095
sg5
I1
sba(iGenerate
Edge
p1098
(dp1099
g4
I1
sg5
I9
sba(iGenerate
Edge
p1100
(dp1101
g4
I9
sg5
I3
sba(iGenerate
Edge
p1102
(dp1103
g4
I3
sg5
I4
sba(iGenerate
Edge
p1104
(dp1105
g4
I4
sg5
I5
sba(iGenerate
Edge
p1106
(dp1107
g4
I5
sg5
I7
sba(iGenerate
Edge
p1108
(dp1109
g4
I7
sg5
I6
sba(iGenerate
Edge
p1110
(dp1111
g4
I6
sg5
I8
sba(iGenerate
Edge
p1112
(dp1113
g4
I8
sg5
I0
sbaa(lp1114
(iGenerate
Edge
p1115
(dp1116
g4
I0
sg5
g6
(g10
S'\x02\x00\x00\x00'
p1117
tp1118
Rp1119
sba(iGenerate
Edge
p1120
(dp1121
g4
g1119
sg5
I1
sba(iGenerate
Edge
p1122
(dp1123
g4
I1
sg5
I9
sba(iGenerate
Edge
p1124
(dp1125
g4
I9
sg5
I3
sba(iGenerate
Edge
p1126
(dp1127
g4
I3
sg5
I4
sba(iGenerate
Edge
p1128
(dp1129
g4
I4
sg5
I5
sba(iGenerate
Edge
p1130
(dp1131
g4
I5
sg5
I7
sba(iGenerate
Edge
p1132
(dp1133
g4
I7
sg5
I6
sba(iGenerate
Edge
p1134
(dp1135
g4
I6
sg5
I8
sba(iGenerate
Edge
p1136
(dp1137
g4
I8
sg5
I0
sbaa(lp1138
(iGenerate
Edge
p1139
(dp1140
g4
I0
sg5
g6
(g10
S'\x02\x00\x00\x00'
p1141
tp1142
Rp1143
sba(iGenerate
Edge
p1144
(dp1145
g4
g1143
sg5
I1
sba(iGenerate
Edge
p1146
(dp1147
g4
I1
sg5
I9
sba(iGenerate
Edge
p1148
(dp1149
g4
I9
sg5
I3
sba(iGenerate
Edge
p1150
(dp1151
g4
I3
sg5
I4
sba(iGenerate
Edge
p1152
(dp1153
g4
I4
sg5
I5
sba(iGenerate
Edge
p1154
(dp1155
g4
I5
sg5
I7
sba(iGenerate
Edge
p1156
(dp1157
g4
I7
sg5
I6
sba(iGenerate
Edge
p1158
(dp1159
g4
I6
sg5
I8
sba(iGenerate
Edge
p1160
(dp1161
g4
I8
sg5
I0
sbaa(lp1162
(iGenerate
Edge
p1163
(dp1164
g4
I0
sg5
g6
(g10
S'\x02\x00\x00\x00'
p1165
tp1166
Rp1167
sba(iGenerate
Edge
p1168
(dp1169
g4
g1167
sg5
I1
sba(iGenerate
Edge
p1170
(dp1171
g4
I1
sg5
I9
sba(iGenerate
Edge
p1172
(dp1173
g4
I9
sg5
I3
sba(iGenerate
Edge
p1174
(dp1175
g4
I3
sg5
I4
sba(iGenerate
Edge
p1176
(dp1177
g4
I4
sg5
I5
sba(iGenerate
Edge
p1178
(dp1179
g4
I5
sg5
I7
sba(iGenerate
Edge
p1180
(dp1181
g4
I7
sg5
I6
sba(iGenerate
Edge
p1182
(dp1183
g4
I6
sg5
I8
sba(iGenerate
Edge
p1184
(dp1185
g4
I8
sg5
I0
sbaa(lp1186
(iGenerate
Edge
p1187
(dp1188
g4
I0
sg5
g6
(g10
S'\x02\x00\x00\x00'
p1189
tp1190
Rp1191
sba(iGenerate
Edge
p1192
(dp1193
g4
g1191
sg5
I1
sba(iGenerate
Edge
p1194
(dp1195
g4
I1
sg5
I9
sba(iGenerate
Edge
p1196
(dp1197
g4
I9
sg5
I3
sba(iGenerate
Edge
p1198
(dp1199
g4
I3
sg5
I4
sba(iGenerate
Edge
p1200
(dp1201
g4
I4
sg5
I5
sba(iGenerate
Edge
p1202
(dp1203
g4
I5
sg5
I7
sba(iGenerate
Edge
p1204
(dp1205
g4
I7
sg5
I6
sba(iGenerate
Edge
p1206
(dp1207
g4
I6
sg5
I8
sba(iGenerate
Edge
p1208
(dp1209
g4
I8
sg5
I0
sbaa.