(lp0
(lp1
(iGenerate
Edge
p2
(dp3
S'a'
p4
I0
sS'b'
p5
I2
sba(iGenerate
Edge
p6
(dp7
g4
I2
sg5
cnumpy.core.multiarray
scalar
p8
(cnumpy
dtype
p9
(S'i4'
p10
I0
I1
tp11
Rp12
(I3
S'<'
p13
NNNI-1
I-1
I0
tp14
bS'\x05\x00\x00\x00'
p15
tp16
Rp17
sba(iGenerate
Edge
p18
(dp19
g4
g17
sg5
I1
sba(iGenerate
Edge
p20
(dp21
g4
I1
sg5
I3
sba(iGenerate
Edge
p22
(dp23
g4
I3
sg5
I4
sba(iGenerate
Edge
p24
(dp25
g4
I4
sg5
I8
sba(iGenerate
Edge
p26
(dp27
g4
I8
sg5
I6
sba(iGenerate
Edge
p28
(dp29
g4
I6
sg5
I7
sba(iGenerate
Edge
p30
(dp31
g4
I7
sg5
I9
sba(iGenerate
Edge
p32
(dp33
g4
I9
sg5
I11
sba(iGenerate
Edge
p34
(dp35
g4
I11
sg5
I10
sba(iGenerate
Edge
p36
(dp37
g4
I10
sg5
I15
sba(iGenerate
Edge
p38
(dp39
g4
I15
sg5
I12
sba(iGenerate
Edge
p40
(dp41
g4
I12
sg5
I14
sba(iGenerate
Edge
p42
(dp43
g4
I14
sg5
I13
sba(iGenerate
Edge
p44
(dp45
g4
I13
sg5
I16
sba(iGenerate
Edge
p46
(dp47
g4
I16
sg5
I0
sbaa(lp48
(iGenerate
Edge
p49
(dp50
g4
I0
sg5
I2
sba(iGenerate
Edge
p51
(dp52
g4
I2
sg5
g8
(g12
S'\x05\x00\x00\x00'
p53
tp54
Rp55
sba(iGenerate
Edge
p56
(dp57
g4
g55
sg5
I1
sba(iGenerate
Edge
p58
(dp59
g4
I1
sg5
I3
sba(iGenerate
Edge
p60
(dp61
g4
I3
sg5
I4
sba(iGenerate
Edge
p62
(dp63
g4
I4
sg5
I8
sba(iGenerate
Edge
p64
(dp65
g4
I8
sg5
I6
sba(iGenerate
Edge
p66
(dp67
g4
I6
sg5
I7
sba(iGenerate
Edge
p68
(dp69
g4
I7
sg5
I9
sba(iGenerate
Edge
p70
(dp71
g4
I9
sg5
I11
sba(iGenerate
Edge
p72
(dp73
g4
I11
sg5
I10
sba(iGenerate
Edge
p74
(dp75
g4
I10
sg5
I15
sba(iGenerate
Edge
p76
(dp77
g4
I15
sg5
I12
sba(iGenerate
Edge
p78
(dp79
g4
I12
sg5
I14
sba(iGenerate
Edge
p80
(dp81
g4
I14
sg5
I13
sba(iGenerate
Edge
p82
(dp83
g4
I13
sg5
I16
sba(iGenerate
Edge
p84
(dp85
g4
I16
sg5
I0
sbaa(lp86
(iGenerate
Edge
p87
(dp88
g4
I0
sg5
I2
sba(iGenerate
Edge
p89
(dp90
g4
I2
sg5
g8
(g12
S'\x05\x00\x00\x00'
p91
tp92
Rp93
sba(iGenerate
Edge
p94
(dp95
g4
g93
sg5
I1
sba(iGenerate
Edge
p96
(dp97
g4
I1
sg5
I3
sba(iGenerate
Edge
p98
(dp99
g4
I3
sg5
I4
sba(iGenerate
Edge
p100
(dp101
g4
I4
sg5
I8
sba(iGenerate
Edge
p102
(dp103
g4
I8
sg5
I6
sba(iGenerate
Edge
p104
(dp105
g4
I6
sg5
I7
sba(iGenerate
Edge
p106
(dp107
g4
I7
sg5
I9
sba(iGenerate
Edge
p108
(dp109
g4
I9
sg5
I11
sba(iGenerate
Edge
p110
(dp111
g4
I11
sg5
I10
sba(iGenerate
Edge
p112
(dp113
g4
I10
sg5
I15
sba(iGenerate
Edge
p114
(dp115
g4
I15
sg5
I12
sba(iGenerate
Edge
p116
(dp117
g4
I12
sg5
I14
sba(iGenerate
Edge
p118
(dp119
g4
I14
sg5
I13
sba(iGenerate
Edge
p120
(dp121
g4
I13
sg5
I16
sba(iGenerate
Edge
p122
(dp123
g4
I16
sg5
I0
sbaa(lp124
(iGenerate
Edge
p125
(dp126
g4
I0
sg5
I2
sba(iGenerate
Edge
p127
(dp128
g4
I2
sg5
g8
(g12
S'\x05\x00\x00\x00'
p129
tp130
Rp131
sba(iGenerate
Edge
p132
(dp133
g4
g131
sg5
I1
sba(iGenerate
Edge
p134
(dp135
g4
I1
sg5
I3
sba(iGenerate
Edge
p136
(dp137
g4
I3
sg5
I4
sba(iGenerate
Edge
p138
(dp139
g4
I4
sg5
I8
sba(iGenerate
Edge
p140
(dp141
g4
I8
sg5
I6
sba(iGenerate
Edge
p142
(dp143
g4
I6
sg5
I7
sba(iGenerate
Edge
p144
(dp145
g4
I7
sg5
I9
sba(iGenerate
Edge
p146
(dp147
g4
I9
sg5
I11
sba(iGenerate
Edge
p148
(dp149
g4
I11
sg5
I10
sba(iGenerate
Edge
p150
(dp151
g4
I10
sg5
I15
sba(iGenerate
Edge
p152
(dp153
g4
I15
sg5
I12
sba(iGenerate
Edge
p154
(dp155
g4
I12
sg5
I14
sba(iGenerate
Edge
p156
(dp157
g4
I14
sg5
I13
sba(iGenerate
Edge
p158
(dp159
g4
I13
sg5
I16
sba(iGenerate
Edge
p160
(dp161
g4
I16
sg5
I0
sbaa(lp162
(iGenerate
Edge
p163
(dp164
g4
I0
sg5
I2
sba(iGenerate
Edge
p165
(dp166
g4
I2
sg5
g8
(g12
S'\x05\x00\x00\x00'
p167
tp168
Rp169
sba(iGenerate
Edge
p170
(dp171
g4
g169
sg5
I1
sba(iGenerate
Edge
p172
(dp173
g4
I1
sg5
I3
sba(iGenerate
Edge
p174
(dp175
g4
I3
sg5
I4
sba(iGenerate
Edge
p176
(dp177
g4
I4
sg5
I8
sba(iGenerate
Edge
p178
(dp179
g4
I8
sg5
I6
sba(iGenerate
Edge
p180
(dp181
g4
I6
sg5
I7
sba(iGenerate
Edge
p182
(dp183
g4
I7
sg5
I9
sba(iGenerate
Edge
p184
(dp185
g4
I9
sg5
I11
sba(iGenerate
Edge
p186
(dp187
g4
I11
sg5
I10
sba(iGenerate
Edge
p188
(dp189
g4
I10
sg5
I15
sba(iGenerate
Edge
p190
(dp191
g4
I15
sg5
I12
sba(iGenerate
Edge
p192
(dp193
g4
I12
sg5
I14
sba(iGenerate
Edge
p194
(dp195
g4
I14
sg5
I13
sba(iGenerate
Edge
p196
(dp197
g4
I13
sg5
I16
sba(iGenerate
Edge
p198
(dp199
g4
I16
sg5
I0
sbaa(lp200
(iGenerate
Edge
p201
(dp202
g4
I0
sg5
I2
sba(iGenerate
Edge
p203
(dp204
g4
I2
sg5
g8
(g12
S'\x05\x00\x00\x00'
p205
tp206
Rp207
sba(iGenerate
Edge
p208
(dp209
g4
g207
sg5
I1
sba(iGenerate
Edge
p210
(dp211
g4
I1
sg5
I3
sba(iGenerate
Edge
p212
(dp213
g4
I3
sg5
I4
sba(iGenerate
Edge
p214
(dp215
g4
I4
sg5
I8
sba(iGenerate
Edge
p216
(dp217
g4
I8
sg5
I6
sba(iGenerate
Edge
p218
(dp219
g4
I6
sg5
I7
sba(iGenerate
Edge
p220
(dp221
g4
I7
sg5
I9
sba(iGenerate
Edge
p222
(dp223
g4
I9
sg5
I11
sba(iGenerate
Edge
p224
(dp225
g4
I11
sg5
I10
sba(iGenerate
Edge
p226
(dp227
g4
I10
sg5
I15
sba(iGenerate
Edge
p228
(dp229
g4
I15
sg5
I12
sba(iGenerate
Edge
p230
(dp231
g4
I12
sg5
I14
sba(iGenerate
Edge
p232
(dp233
g4
I14
sg5
I13
sba(iGenerate
Edge
p234
(dp235
g4
I13
sg5
I16
sba(iGenerate
Edge
p236
(dp237
g4
I16
sg5
I0
sbaa(lp238
(iGenerate
Edge
p239
(dp240
g4
I0
sg5
I2
sba(iGenerate
Edge
p241
(dp242
g4
I2
sg5
g8
(g12
S'\x05\x00\x00\x00'
p243
tp244
Rp245
sba(iGenerate
Edge
p246
(dp247
g4
g245
sg5
I1
sba(iGenerate
Edge
p248
(dp249
g4
I1
sg5
I3
sba(iGenerate
Edge
p250
(dp251
g4
I3
sg5
I4
sba(iGenerate
Edge
p252
(dp253
g4
I4
sg5
I8
sba(iGenerate
Edge
p254
(dp255
g4
I8
sg5
I6
sba(iGenerate
Edge
p256
(dp257
g4
I6
sg5
I7
sba(iGenerate
Edge
p258
(dp259
g4
I7
sg5
I9
sba(iGenerate
Edge
p260
(dp261
g4
I9
sg5
I11
sba(iGenerate
Edge
p262
(dp263
g4
I11
sg5
I10
sba(iGenerate
Edge
p264
(dp265
g4
I10
sg5
I15
sba(iGenerate
Edge
p266
(dp267
g4
I15
sg5
I12
sba(iGenerate
Edge
p268
(dp269
g4
I12
sg5
I14
sba(iGenerate
Edge
p270
(dp271
g4
I14
sg5
I13
sba(iGenerate
Edge
p272
(dp273
g4
I13
sg5
I16
sba(iGenerate
Edge
p274
(dp275
g4
I16
sg5
I0
sbaa(lp276
(iGenerate
Edge
p277
(dp278
g4
I0
sg5
I2
sba(iGenerate
Edge
p279
(dp280
g4
I2
sg5
g8
(g12
S'\x05\x00\x00\x00'
p281
tp282
Rp283
sba(iGenerate
Edge
p284
(dp285
g4
g283
sg5
I1
sba(iGenerate
Edge
p286
(dp287
g4
I1
sg5
I3
sba(iGenerate
Edge
p288
(dp289
g4
I3
sg5
I4
sba(iGenerate
Edge
p290
(dp291
g4
I4
sg5
I8
sba(iGenerate
Edge
p292
(dp293
g4
I8
sg5
I6
sba(iGenerate
Edge
p294
(dp295
g4
I6
sg5
I7
sba(iGenerate
Edge
p296
(dp297
g4
I7
sg5
I9
sba(iGenerate
Edge
p298
(dp299
g4
I9
sg5
I11
sba(iGenerate
Edge
p300
(dp301
g4
I11
sg5
I10
sba(iGenerate
Edge
p302
(dp303
g4
I10
sg5
I15
sba(iGenerate
Edge
p304
(dp305
g4
I15
sg5
I12
sba(iGenerate
Edge
p306
(dp307
g4
I12
sg5
I14
sba(iGenerate
Edge
p308
(dp309
g4
I14
sg5
I13
sba(iGenerate
Edge
p310
(dp311
g4
I13
sg5
I16
sba(iGenerate
Edge
p312
(dp313
g4
I16
sg5
I0
sbaa(lp314
(iGenerate
Edge
p315
(dp316
g4
I0
sg5
I2
sba(iGenerate
Edge
p317
(dp318
g4
I2
sg5
g8
(g12
S'\x05\x00\x00\x00'
p319
tp320
Rp321
sba(iGenerate
Edge
p322
(dp323
g4
g321
sg5
I1
sba(iGenerate
Edge
p324
(dp325
g4
I1
sg5
I3
sba(iGenerate
Edge
p326
(dp327
g4
I3
sg5
I4
sba(iGenerate
Edge
p328
(dp329
g4
I4
sg5
I8
sba(iGenerate
Edge
p330
(dp331
g4
I8
sg5
I6
sba(iGenerate
Edge
p332
(dp333
g4
I6
sg5
I7
sba(iGenerate
Edge
p334
(dp335
g4
I7
sg5
I9
sba(iGenerate
Edge
p336
(dp337
g4
I9
sg5
I11
sba(iGenerate
Edge
p338
(dp339
g4
I11
sg5
I10
sba(iGenerate
Edge
p340
(dp341
g4
I10
sg5
I15
sba(iGenerate
Edge
p342
(dp343
g4
I15
sg5
I12
sba(iGenerate
Edge
p344
(dp345
g4
I12
sg5
I14
sba(iGenerate
Edge
p346
(dp347
g4
I14
sg5
I13
sba(iGenerate
Edge
p348
(dp349
g4
I13
sg5
I16
sba(iGenerate
Edge
p350
(dp351
g4
I16
sg5
I0
sbaa(lp352
(iGenerate
Edge
p353
(dp354
g4
I0
sg5
I2
sba(iGenerate
Edge
p355
(dp356
g4
I2
sg5
g8
(g12
S'\x05\x00\x00\x00'
p357
tp358
Rp359
sba(iGenerate
Edge
p360
(dp361
g4
g359
sg5
I1
sba(iGenerate
Edge
p362
(dp363
g4
I1
sg5
I3
sba(iGenerate
Edge
p364
(dp365
g4
I3
sg5
I4
sba(iGenerate
Edge
p366
(dp367
g4
I4
sg5
I8
sba(iGenerate
Edge
p368
(dp369
g4
I8
sg5
I6
sba(iGenerate
Edge
p370
(dp371
g4
I6
sg5
I7
sba(iGenerate
Edge
p372
(dp373
g4
I7
sg5
I9
sba(iGenerate
Edge
p374
(dp375
g4
I9
sg5
I11
sba(iGenerate
Edge
p376
(dp377
g4
I11
sg5
I10
sba(iGenerate
Edge
p378
(dp379
g4
I10
sg5
I15
sba(iGenerate
Edge
p380
(dp381
g4
I15
sg5
I12
sba(iGenerate
Edge
p382
(dp383
g4
I12
sg5
I14
sba(iGenerate
Edge
p384
(dp385
g4
I14
sg5
I13
sba(iGenerate
Edge
p386
(dp387
g4
I13
sg5
I16
sba(iGenerate
Edge
p388
(dp389
g4
I16
sg5
I0
sbaa(lp390
(iGenerate
Edge
p391
(dp392
g4
I0
sg5
I2
sba(iGenerate
Edge
p393
(dp394
g4
I2
sg5
g8
(g12
S'\x05\x00\x00\x00'
p395
tp396
Rp397
sba(iGenerate
Edge
p398
(dp399
g4
g397
sg5
I1
sba(iGenerate
Edge
p400
(dp401
g4
I1
sg5
I3
sba(iGenerate
Edge
p402
(dp403
g4
I3
sg5
I4
sba(iGenerate
Edge
p404
(dp405
g4
I4
sg5
I8
sba(iGenerate
Edge
p406
(dp407
g4
I8
sg5
I6
sba(iGenerate
Edge
p408
(dp409
g4
I6
sg5
I7
sba(iGenerate
Edge
p410
(dp411
g4
I7
sg5
I9
sba(iGenerate
Edge
p412
(dp413
g4
I9
sg5
I11
sba(iGenerate
Edge
p414
(dp415
g4
I11
sg5
I10
sba(iGenerate
Edge
p416
(dp417
g4
I10
sg5
I15
sba(iGenerate
Edge
p418
(dp419
g4
I15
sg5
I12
sba(iGenerate
Edge
p420
(dp421
g4
I12
sg5
I14
sba(iGenerate
Edge
p422
(dp423
g4
I14
sg5
I13
sba(iGenerate
Edge
p424
(dp425
g4
I13
sg5
I16
sba(iGenerate
Edge
p426
(dp427
g4
I16
sg5
I0
sbaa(lp428
(iGenerate
Edge
p429
(dp430
g4
I0
sg5
I2
sba(iGenerate
Edge
p431
(dp432
g4
I2
sg5
g8
(g12
S'\x05\x00\x00\x00'
p433
tp434
Rp435
sba(iGenerate
Edge
p436
(dp437
g4
g435
sg5
I1
sba(iGenerate
Edge
p438
(dp439
g4
I1
sg5
I3
sba(iGenerate
Edge
p440
(dp441
g4
I3
sg5
I4
sba(iGenerate
Edge
p442
(dp443
g4
I4
sg5
I8
sba(iGenerate
Edge
p444
(dp445
g4
I8
sg5
I6
sba(iGenerate
Edge
p446
(dp447
g4
I6
sg5
I7
sba(iGenerate
Edge
p448
(dp449
g4
I7
sg5
I9
sba(iGenerate
Edge
p450
(dp451
g4
I9
sg5
I11
sba(iGenerate
Edge
p452
(dp453
g4
I11
sg5
I10
sba(iGenerate
Edge
p454
(dp455
g4
I10
sg5
I15
sba(iGenerate
Edge
p456
(dp457
g4
I15
sg5
I12
sba(iGenerate
Edge
p458
(dp459
g4
I12
sg5
I14
sba(iGenerate
Edge
p460
(dp461
g4
I14
sg5
I13
sba(iGenerate
Edge
p462
(dp463
g4
I13
sg5
I16
sba(iGenerate
Edge
p464
(dp465
g4
I16
sg5
I0
sbaa(lp466
(iGenerate
Edge
p467
(dp468
g4
I0
sg5
I2
sba(iGenerate
Edge
p469
(dp470
g4
I2
sg5
g8
(g12
S'\x05\x00\x00\x00'
p471
tp472
Rp473
sba(iGenerate
Edge
p474
(dp475
g4
g473
sg5
I1
sba(iGenerate
Edge
p476
(dp477
g4
I1
sg5
I3
sba(iGenerate
Edge
p478
(dp479
g4
I3
sg5
I4
sba(iGenerate
Edge
p480
(dp481
g4
I4
sg5
I8
sba(iGenerate
Edge
p482
(dp483
g4
I8
sg5
I6
sba(iGenerate
Edge
p484
(dp485
g4
I6
sg5
I7
sba(iGenerate
Edge
p486
(dp487
g4
I7
sg5
I9
sba(iGenerate
Edge
p488
(dp489
g4
I9
sg5
I11
sba(iGenerate
Edge
p490
(dp491
g4
I11
sg5
I10
sba(iGenerate
Edge
p492
(dp493
g4
I10
sg5
I15
sba(iGenerate
Edge
p494
(dp495
g4
I15
sg5
I12
sba(iGenerate
Edge
p496
(dp497
g4
I12
sg5
I14
sba(iGenerate
Edge
p498
(dp499
g4
I14
sg5
I13
sba(iGenerate
Edge
p500
(dp501
g4
I13
sg5
I16
sba(iGenerate
Edge
p502
(dp503
g4
I16
sg5
I0
sbaa(lp504
(iGenerate
Edge
p505
(dp506
g4
I0
sg5
I2
sba(iGenerate
Edge
p507
(dp508
g4
I2
sg5
g8
(g12
S'\x05\x00\x00\x00'
p509
tp510
Rp511
sba(iGenerate
Edge
p512
(dp513
g4
g511
sg5
I1
sba(iGenerate
Edge
p514
(dp515
g4
I1
sg5
I3
sba(iGenerate
Edge
p516
(dp517
g4
I3
sg5
I4
sba(iGenerate
Edge
p518
(dp519
g4
I4
sg5
I8
sba(iGenerate
Edge
p520
(dp521
g4
I8
sg5
I6
sba(iGenerate
Edge
p522
(dp523
g4
I6
sg5
I7
sba(iGenerate
Edge
p524
(dp525
g4
I7
sg5
I9
sba(iGenerate
Edge
p526
(dp527
g4
I9
sg5
I11
sba(iGenerate
Edge
p528
(dp529
g4
I11
sg5
I10
sba(iGenerate
Edge
p530
(dp531
g4
I10
sg5
I15
sba(iGenerate
Edge
p532
(dp533
g4
I15
sg5
I12
sba(iGenerate
Edge
p534
(dp535
g4
I12
sg5
I14
sba(iGenerate
Edge
p536
(dp537
g4
I14
sg5
I13
sba(iGenerate
Edge
p538
(dp539
g4
I13
sg5
I16
sba(iGenerate
Edge
p540
(dp541
g4
I16
sg5
I0
sbaa(lp542
(iGenerate
Edge
p543
(dp544
g4
I0
sg5
I2
sba(iGenerate
Edge
p545
(dp546
g4
I2
sg5
g8
(g12
S'\x05\x00\x00\x00'
p547
tp548
Rp549
sba(iGenerate
Edge
p550
(dp551
g4
g549
sg5
I1
sba(iGenerate
Edge
p552
(dp553
g4
I1
sg5
I3
sba(iGenerate
Edge
p554
(dp555
g4
I3
sg5
I4
sba(iGenerate
Edge
p556
(dp557
g4
I4
sg5
I8
sba(iGenerate
Edge
p558
(dp559
g4
I8
sg5
I6
sba(iGenerate
Edge
p560
(dp561
g4
I6
sg5
I7
sba(iGenerate
Edge
p562
(dp563
g4
I7
sg5
I9
sba(iGenerate
Edge
p564
(dp565
g4
I9
sg5
I11
sba(iGenerate
Edge
p566
(dp567
g4
I11
sg5
I10
sba(iGenerate
Edge
p568
(dp569
g4
I10
sg5
I15
sba(iGenerate
Edge
p570
(dp571
g4
I15
sg5
I12
sba(iGenerate
Edge
p572
(dp573
g4
I12
sg5
I14
sba(iGenerate
Edge
p574
(dp575
g4
I14
sg5
I13
sba(iGenerate
Edge
p576
(dp577
g4
I13
sg5
I16
sba(iGenerate
Edge
p578
(dp579
g4
I16
sg5
I0
sbaa(lp580
(iGenerate
Edge
p581
(dp582
g4
I0
sg5
I2
sba(iGenerate
Edge
p583
(dp584
g4
I2
sg5
g8
(g12
S'\x05\x00\x00\x00'
p585
tp586
Rp587
sba(iGenerate
Edge
p588
(dp589
g4
g587
sg5
I1
sba(iGenerate
Edge
p590
(dp591
g4
I1
sg5
I3
sba(iGenerate
Edge
p592
(dp593
g4
I3
sg5
I4
sba(iGenerate
Edge
p594
(dp595
g4
I4
sg5
I8
sba(iGenerate
Edge
p596
(dp597
g4
I8
sg5
I6
sba(iGenerate
Edge
p598
(dp599
g4
I6
sg5
I7
sba(iGenerate
Edge
p600
(dp601
g4
I7
sg5
I9
sba(iGenerate
Edge
p602
(dp603
g4
I9
sg5
I11
sba(iGenerate
Edge
p604
(dp605
g4
I11
sg5
I10
sba(iGenerate
Edge
p606
(dp607
g4
I10
sg5
I15
sba(iGenerate
Edge
p608
(dp609
g4
I15
sg5
I12
sba(iGenerate
Edge
p610
(dp611
g4
I12
sg5
I14
sba(iGenerate
Edge
p612
(dp613
g4
I14
sg5
I13
sba(iGenerate
Edge
p614
(dp615
g4
I13
sg5
I16
sba(iGenerate
Edge
p616
(dp617
g4
I16
sg5
I0
sbaa(lp618
(iGenerate
Edge
p619
(dp620
g4
I0
sg5
I2
sba(iGenerate
Edge
p621
(dp622
g4
I2
sg5
g8
(g12
S'\x05\x00\x00\x00'
p623
tp624
Rp625
sba(iGenerate
Edge
p626
(dp627
g4
g625
sg5
I1
sba(iGenerate
Edge
p628
(dp629
g4
I1
sg5
I3
sba(iGenerate
Edge
p630
(dp631
g4
I3
sg5
I4
sba(iGenerate
Edge
p632
(dp633
g4
I4
sg5
I8
sba(iGenerate
Edge
p634
(dp635
g4
I8
sg5
I6
sba(iGenerate
Edge
p636
(dp637
g4
I6
sg5
I7
sba(iGenerate
Edge
p638
(dp639
g4
I7
sg5
I9
sba(iGenerate
Edge
p640
(dp641
g4
I9
sg5
I11
sba(iGenerate
Edge
p642
(dp643
g4
I11
sg5
I10
sba(iGenerate
Edge
p644
(dp645
g4
I10
sg5
I15
sba(iGenerate
Edge
p646
(dp647
g4
I15
sg5
I12
sba(iGenerate
Edge
p648
(dp649
g4
I12
sg5
I14
sba(iGenerate
Edge
p650
(dp651
g4
I14
sg5
I13
sba(iGenerate
Edge
p652
(dp653
g4
I13
sg5
I16
sba(iGenerate
Edge
p654
(dp655
g4
I16
sg5
I0
sbaa(lp656
(iGenerate
Edge
p657
(dp658
g4
I0
sg5
I2
sba(iGenerate
Edge
p659
(dp660
g4
I2
sg5
g8
(g12
S'\x05\x00\x00\x00'
p661
tp662
Rp663
sba(iGenerate
Edge
p664
(dp665
g4
g663
sg5
I1
sba(iGenerate
Edge
p666
(dp667
g4
I1
sg5
I3
sba(iGenerate
Edge
p668
(dp669
g4
I3
sg5
I4
sba(iGenerate
Edge
p670
(dp671
g4
I4
sg5
I8
sba(iGenerate
Edge
p672
(dp673
g4
I8
sg5
I6
sba(iGenerate
Edge
p674
(dp675
g4
I6
sg5
I7
sba(iGenerate
Edge
p676
(dp677
g4
I7
sg5
I9
sba(iGenerate
Edge
p678
(dp679
g4
I9
sg5
I11
sba(iGenerate
Edge
p680
(dp681
g4
I11
sg5
I10
sba(iGenerate
Edge
p682
(dp683
g4
I10
sg5
I15
sba(iGenerate
Edge
p684
(dp685
g4
I15
sg5
I12
sba(iGenerate
Edge
p686
(dp687
g4
I12
sg5
I14
sba(iGenerate
Edge
p688
(dp689
g4
I14
sg5
I13
sba(iGenerate
Edge
p690
(dp691
g4
I13
sg5
I16
sba(iGenerate
Edge
p692
(dp693
g4
I16
sg5
I0
sbaa(lp694
(iGenerate
Edge
p695
(dp696
g4
I0
sg5
I2
sba(iGenerate
Edge
p697
(dp698
g4
I2
sg5
g8
(g12
S'\x05\x00\x00\x00'
p699
tp700
Rp701
sba(iGenerate
Edge
p702
(dp703
g4
g701
sg5
I1
sba(iGenerate
Edge
p704
(dp705
g4
I1
sg5
I3
sba(iGenerate
Edge
p706
(dp707
g4
I3
sg5
I4
sba(iGenerate
Edge
p708
(dp709
g4
I4
sg5
I8
sba(iGenerate
Edge
p710
(dp711
g4
I8
sg5
I6
sba(iGenerate
Edge
p712
(dp713
g4
I6
sg5
I7
sba(iGenerate
Edge
p714
(dp715
g4
I7
sg5
I9
sba(iGenerate
Edge
p716
(dp717
g4
I9
sg5
I11
sba(iGenerate
Edge
p718
(dp719
g4
I11
sg5
I10
sba(iGenerate
Edge
p720
(dp721
g4
I10
sg5
I15
sba(iGenerate
Edge
p722
(dp723
g4
I15
sg5
I12
sba(iGenerate
Edge
p724
(dp725
g4
I12
sg5
I14
sba(iGenerate
Edge
p726
(dp727
g4
I14
sg5
I13
sba(iGenerate
Edge
p728
(dp729
g4
I13
sg5
I16
sba(iGenerate
Edge
p730
(dp731
g4
I16
sg5
I0
sbaa(lp732
(iGenerate
Edge
p733
(dp734
g4
I0
sg5
I2
sba(iGenerate
Edge
p735
(dp736
g4
I2
sg5
g8
(g12
S'\x05\x00\x00\x00'
p737
tp738
Rp739
sba(iGenerate
Edge
p740
(dp741
g4
g739
sg5
I1
sba(iGenerate
Edge
p742
(dp743
g4
I1
sg5
I3
sba(iGenerate
Edge
p744
(dp745
g4
I3
sg5
I4
sba(iGenerate
Edge
p746
(dp747
g4
I4
sg5
I8
sba(iGenerate
Edge
p748
(dp749
g4
I8
sg5
I6
sba(iGenerate
Edge
p750
(dp751
g4
I6
sg5
I7
sba(iGenerate
Edge
p752
(dp753
g4
I7
sg5
I9
sba(iGenerate
Edge
p754
(dp755
g4
I9
sg5
I11
sba(iGenerate
Edge
p756
(dp757
g4
I11
sg5
I10
sba(iGenerate
Edge
p758
(dp759
g4
I10
sg5
I15
sba(iGenerate
Edge
p760
(dp761
g4
I15
sg5
I12
sba(iGenerate
Edge
p762
(dp763
g4
I12
sg5
I14
sba(iGenerate
Edge
p764
(dp765
g4
I14
sg5
I13
sba(iGenerate
Edge
p766
(dp767
g4
I13
sg5
I16
sba(iGenerate
Edge
p768
(dp769
g4
I16
sg5
I0
sbaa(lp770
(iGenerate
Edge
p771
(dp772
g4
I0
sg5
I2
sba(iGenerate
Edge
p773
(dp774
g4
I2
sg5
g8
(g12
S'\x05\x00\x00\x00'
p775
tp776
Rp777
sba(iGenerate
Edge
p778
(dp779
g4
g777
sg5
I1
sba(iGenerate
Edge
p780
(dp781
g4
I1
sg5
I3
sba(iGenerate
Edge
p782
(dp783
g4
I3
sg5
I4
sba(iGenerate
Edge
p784
(dp785
g4
I4
sg5
I8
sba(iGenerate
Edge
p786
(dp787
g4
I8
sg5
I6
sba(iGenerate
Edge
p788
(dp789
g4
I6
sg5
I7
sba(iGenerate
Edge
p790
(dp791
g4
I7
sg5
I9
sba(iGenerate
Edge
p792
(dp793
g4
I9
sg5
I11
sba(iGenerate
Edge
p794
(dp795
g4
I11
sg5
I10
sba(iGenerate
Edge
p796
(dp797
g4
I10
sg5
I15
sba(iGenerate
Edge
p798
(dp799
g4
I15
sg5
I12
sba(iGenerate
Edge
p800
(dp801
g4
I12
sg5
I14
sba(iGenerate
Edge
p802
(dp803
g4
I14
sg5
I13
sba(iGenerate
Edge
p804
(dp805
g4
I13
sg5
I16
sba(iGenerate
Edge
p806
(dp807
g4
I16
sg5
I0
sbaa(lp808
(iGenerate
Edge
p809
(dp810
g4
I0
sg5
I2
sba(iGenerate
Edge
p811
(dp812
g4
I2
sg5
g8
(g12
S'\x05\x00\x00\x00'
p813
tp814
Rp815
sba(iGenerate
Edge
p816
(dp817
g4
g815
sg5
I1
sba(iGenerate
Edge
p818
(dp819
g4
I1
sg5
I3
sba(iGenerate
Edge
p820
(dp821
g4
I3
sg5
I4
sba(iGenerate
Edge
p822
(dp823
g4
I4
sg5
I8
sba(iGenerate
Edge
p824
(dp825
g4
I8
sg5
I6
sba(iGenerate
Edge
p826
(dp827
g4
I6
sg5
I7
sba(iGenerate
Edge
p828
(dp829
g4
I7
sg5
I9
sba(iGenerate
Edge
p830
(dp831
g4
I9
sg5
I11
sba(iGenerate
Edge
p832
(dp833
g4
I11
sg5
I10
sba(iGenerate
Edge
p834
(dp835
g4
I10
sg5
I15
sba(iGenerate
Edge
p836
(dp837
g4
I15
sg5
I12
sba(iGenerate
Edge
p838
(dp839
g4
I12
sg5
I14
sba(iGenerate
Edge
p840
(dp841
g4
I14
sg5
I13
sba(iGenerate
Edge
p842
(dp843
g4
I13
sg5
I16
sba(iGenerate
Edge
p844
(dp845
g4
I16
sg5
I0
sbaa(lp846
(iGenerate
Edge
p847
(dp848
g4
I0
sg5
I2
sba(iGenerate
Edge
p849
(dp850
g4
I2
sg5
g8
(g12
S'\x05\x00\x00\x00'
p851
tp852
Rp853
sba(iGenerate
Edge
p854
(dp855
g4
g853
sg5
I1
sba(iGenerate
Edge
p856
(dp857
g4
I1
sg5
I3
sba(iGenerate
Edge
p858
(dp859
g4
I3
sg5
I4
sba(iGenerate
Edge
p860
(dp861
g4
I4
sg5
I8
sba(iGenerate
Edge
p862
(dp863
g4
I8
sg5
I6
sba(iGenerate
Edge
p864
(dp865
g4
I6
sg5
I7
sba(iGenerate
Edge
p866
(dp867
g4
I7
sg5
I9
sba(iGenerate
Edge
p868
(dp869
g4
I9
sg5
I11
sba(iGenerate
Edge
p870
(dp871
g4
I11
sg5
I10
sba(iGenerate
Edge
p872
(dp873
g4
I10
sg5
I15
sba(iGenerate
Edge
p874
(dp875
g4
I15
sg5
I12
sba(iGenerate
Edge
p876
(dp877
g4
I12
sg5
I14
sba(iGenerate
Edge
p878
(dp879
g4
I14
sg5
I13
sba(iGenerate
Edge
p880
(dp881
g4
I13
sg5
I16
sba(iGenerate
Edge
p882
(dp883
g4
I16
sg5
I0
sbaa(lp884
(iGenerate
Edge
p885
(dp886
g4
I0
sg5
I2
sba(iGenerate
Edge
p887
(dp888
g4
I2
sg5
g8
(g12
S'\x05\x00\x00\x00'
p889
tp890
Rp891
sba(iGenerate
Edge
p892
(dp893
g4
g891
sg5
I1
sba(iGenerate
Edge
p894
(dp895
g4
I1
sg5
I3
sba(iGenerate
Edge
p896
(dp897
g4
I3
sg5
I4
sba(iGenerate
Edge
p898
(dp899
g4
I4
sg5
I8
sba(iGenerate
Edge
p900
(dp901
g4
I8
sg5
I6
sba(iGenerate
Edge
p902
(dp903
g4
I6
sg5
I7
sba(iGenerate
Edge
p904
(dp905
g4
I7
sg5
I9
sba(iGenerate
Edge
p906
(dp907
g4
I9
sg5
I11
sba(iGenerate
Edge
p908
(dp909
g4
I11
sg5
I10
sba(iGenerate
Edge
p910
(dp911
g4
I10
sg5
I15
sba(iGenerate
Edge
p912
(dp913
g4
I15
sg5
I12
sba(iGenerate
Edge
p914
(dp915
g4
I12
sg5
I14
sba(iGenerate
Edge
p916
(dp917
g4
I14
sg5
I13
sba(iGenerate
Edge
p918
(dp919
g4
I13
sg5
I16
sba(iGenerate
Edge
p920
(dp921
g4
I16
sg5
I0
sbaa(lp922
(iGenerate
Edge
p923
(dp924
g4
I0
sg5
I2
sba(iGenerate
Edge
p925
(dp926
g4
I2
sg5
g8
(g12
S'\x05\x00\x00\x00'
p927
tp928
Rp929
sba(iGenerate
Edge
p930
(dp931
g4
g929
sg5
I1
sba(iGenerate
Edge
p932
(dp933
g4
I1
sg5
I3
sba(iGenerate
Edge
p934
(dp935
g4
I3
sg5
I4
sba(iGenerate
Edge
p936
(dp937
g4
I4
sg5
I8
sba(iGenerate
Edge
p938
(dp939
g4
I8
sg5
I6
sba(iGenerate
Edge
p940
(dp941
g4
I6
sg5
I7
sba(iGenerate
Edge
p942
(dp943
g4
I7
sg5
I9
sba(iGenerate
Edge
p944
(dp945
g4
I9
sg5
I11
sba(iGenerate
Edge
p946
(dp947
g4
I11
sg5
I10
sba(iGenerate
Edge
p948
(dp949
g4
I10
sg5
I15
sba(iGenerate
Edge
p950
(dp951
g4
I15
sg5
I12
sba(iGenerate
Edge
p952
(dp953
g4
I12
sg5
I14
sba(iGenerate
Edge
p954
(dp955
g4
I14
sg5
I13
sba(iGenerate
Edge
p956
(dp957
g4
I13
sg5
I16
sba(iGenerate
Edge
p958
(dp959
g4
I16
sg5
I0
sbaa(lp960
(iGenerate
Edge
p961
(dp962
g4
I0
sg5
I2
sba(iGenerate
Edge
p963
(dp964
g4
I2
sg5
g8
(g12
S'\x05\x00\x00\x00'
p965
tp966
Rp967
sba(iGenerate
Edge
p968
(dp969
g4
g967
sg5
I1
sba(iGenerate
Edge
p970
(dp971
g4
I1
sg5
I3
sba(iGenerate
Edge
p972
(dp973
g4
I3
sg5
I4
sba(iGenerate
Edge
p974
(dp975
g4
I4
sg5
I8
sba(iGenerate
Edge
p976
(dp977
g4
I8
sg5
I6
sba(iGenerate
Edge
p978
(dp979
g4
I6
sg5
I7
sba(iGenerate
Edge
p980
(dp981
g4
I7
sg5
I9
sba(iGenerate
Edge
p982
(dp983
g4
I9
sg5
I11
sba(iGenerate
Edge
p984
(dp985
g4
I11
sg5
I10
sba(iGenerate
Edge
p986
(dp987
g4
I10
sg5
I15
sba(iGenerate
Edge
p988
(dp989
g4
I15
sg5
I12
sba(iGenerate
Edge
p990
(dp991
g4
I12
sg5
I14
sba(iGenerate
Edge
p992
(dp993
g4
I14
sg5
I13
sba(iGenerate
Edge
p994
(dp995
g4
I13
sg5
I16
sba(iGenerate
Edge
p996
(dp997
g4
I16
sg5
I0
sbaa(lp998
(iGenerate
Edge
p999
(dp1000
g4
I0
sg5
I2
sba(iGenerate
Edge
p1001
(dp1002
g4
I2
sg5
g8
(g12
S'\x05\x00\x00\x00'
p1003
tp1004
Rp1005
sba(iGenerate
Edge
p1006
(dp1007
g4
g1005
sg5
I1
sba(iGenerate
Edge
p1008
(dp1009
g4
I1
sg5
I3
sba(iGenerate
Edge
p1010
(dp1011
g4
I3
sg5
I4
sba(iGenerate
Edge
p1012
(dp1013
g4
I4
sg5
I8
sba(iGenerate
Edge
p1014
(dp1015
g4
I8
sg5
I6
sba(iGenerate
Edge
p1016
(dp1017
g4
I6
sg5
I7
sba(iGenerate
Edge
p1018
(dp1019
g4
I7
sg5
I9
sba(iGenerate
Edge
p1020
(dp1021
g4
I9
sg5
I11
sba(iGenerate
Edge
p1022
(dp1023
g4
I11
sg5
I10
sba(iGenerate
Edge
p1024
(dp1025
g4
I10
sg5
I15
sba(iGenerate
Edge
p1026
(dp1027
g4
I15
sg5
I12
sba(iGenerate
Edge
p1028
(dp1029
g4
I12
sg5
I14
sba(iGenerate
Edge
p1030
(dp1031
g4
I14
sg5
I13
sba(iGenerate
Edge
p1032
(dp1033
g4
I13
sg5
I16
sba(iGenerate
Edge
p1034
(dp1035
g4
I16
sg5
I0
sbaa(lp1036
(iGenerate
Edge
p1037
(dp1038
g4
I0
sg5
I2
sba(iGenerate
Edge
p1039
(dp1040
g4
I2
sg5
g8
(g12
S'\x05\x00\x00\x00'
p1041
tp1042
Rp1043
sba(iGenerate
Edge
p1044
(dp1045
g4
g1043
sg5
I1
sba(iGenerate
Edge
p1046
(dp1047
g4
I1
sg5
I3
sba(iGenerate
Edge
p1048
(dp1049
g4
I3
sg5
I4
sba(iGenerate
Edge
p1050
(dp1051
g4
I4
sg5
I8
sba(iGenerate
Edge
p1052
(dp1053
g4
I8
sg5
I6
sba(iGenerate
Edge
p1054
(dp1055
g4
I6
sg5
I7
sba(iGenerate
Edge
p1056
(dp1057
g4
I7
sg5
I9
sba(iGenerate
Edge
p1058
(dp1059
g4
I9
sg5
I11
sba(iGenerate
Edge
p1060
(dp1061
g4
I11
sg5
I10
sba(iGenerate
Edge
p1062
(dp1063
g4
I10
sg5
I15
sba(iGenerate
Edge
p1064
(dp1065
g4
I15
sg5
I12
sba(iGenerate
Edge
p1066
(dp1067
g4
I12
sg5
I14
sba(iGenerate
Edge
p1068
(dp1069
g4
I14
sg5
I13
sba(iGenerate
Edge
p1070
(dp1071
g4
I13
sg5
I16
sba(iGenerate
Edge
p1072
(dp1073
g4
I16
sg5
I0
sbaa(lp1074
(iGenerate
Edge
p1075
(dp1076
g4
I0
sg5
I2
sba(iGenerate
Edge
p1077
(dp1078
g4
I2
sg5
g8
(g12
S'\x05\x00\x00\x00'
p1079
tp1080
Rp1081
sba(iGenerate
Edge
p1082
(dp1083
g4
g1081
sg5
I1
sba(iGenerate
Edge
p1084
(dp1085
g4
I1
sg5
I3
sba(iGenerate
Edge
p1086
(dp1087
g4
I3
sg5
I4
sba(iGenerate
Edge
p1088
(dp1089
g4
I4
sg5
I8
sba(iGenerate
Edge
p1090
(dp1091
g4
I8
sg5
I6
sba(iGenerate
Edge
p1092
(dp1093
g4
I6
sg5
I7
sba(iGenerate
Edge
p1094
(dp1095
g4
I7
sg5
I9
sba(iGenerate
Edge
p1096
(dp1097
g4
I9
sg5
I11
sba(iGenerate
Edge
p1098
(dp1099
g4
I11
sg5
I10
sba(iGenerate
Edge
p1100
(dp1101
g4
I10
sg5
I15
sba(iGenerate
Edge
p1102
(dp1103
g4
I15
sg5
I12
sba(iGenerate
Edge
p1104
(dp1105
g4
I12
sg5
I14
sba(iGenerate
Edge
p1106
(dp1107
g4
I14
sg5
I13
sba(iGenerate
Edge
p1108
(dp1109
g4
I13
sg5
I16
sba(iGenerate
Edge
p1110
(dp1111
g4
I16
sg5
I0
sbaa(lp1112
(iGenerate
Edge
p1113
(dp1114
g4
I0
sg5
I2
sba(iGenerate
Edge
p1115
(dp1116
g4
I2
sg5
g8
(g12
S'\x05\x00\x00\x00'
p1117
tp1118
Rp1119
sba(iGenerate
Edge
p1120
(dp1121
g4
g1119
sg5
I1
sba(iGenerate
Edge
p1122
(dp1123
g4
I1
sg5
I3
sba(iGenerate
Edge
p1124
(dp1125
g4
I3
sg5
I4
sba(iGenerate
Edge
p1126
(dp1127
g4
I4
sg5
I8
sba(iGenerate
Edge
p1128
(dp1129
g4
I8
sg5
I6
sba(iGenerate
Edge
p1130
(dp1131
g4
I6
sg5
I7
sba(iGenerate
Edge
p1132
(dp1133
g4
I7
sg5
I9
sba(iGenerate
Edge
p1134
(dp1135
g4
I9
sg5
I11
sba(iGenerate
Edge
p1136
(dp1137
g4
I11
sg5
I10
sba(iGenerate
Edge
p1138
(dp1139
g4
I10
sg5
I15
sba(iGenerate
Edge
p1140
(dp1141
g4
I15
sg5
I12
sba(iGenerate
Edge
p1142
(dp1143
g4
I12
sg5
I14
sba(iGenerate
Edge
p1144
(dp1145
g4
I14
sg5
I13
sba(iGenerate
Edge
p1146
(dp1147
g4
I13
sg5
I16
sba(iGenerate
Edge
p1148
(dp1149
g4
I16
sg5
I0
sbaa(lp1150
(iGenerate
Edge
p1151
(dp1152
g4
I0
sg5
I2
sba(iGenerate
Edge
p1153
(dp1154
g4
I2
sg5
g8
(g12
S'\x05\x00\x00\x00'
p1155
tp1156
Rp1157
sba(iGenerate
Edge
p1158
(dp1159
g4
g1157
sg5
I1
sba(iGenerate
Edge
p1160
(dp1161
g4
I1
sg5
I3
sba(iGenerate
Edge
p1162
(dp1163
g4
I3
sg5
I4
sba(iGenerate
Edge
p1164
(dp1165
g4
I4
sg5
I8
sba(iGenerate
Edge
p1166
(dp1167
g4
I8
sg5
I6
sba(iGenerate
Edge
p1168
(dp1169
g4
I6
sg5
I7
sba(iGenerate
Edge
p1170
(dp1171
g4
I7
sg5
I9
sba(iGenerate
Edge
p1172
(dp1173
g4
I9
sg5
I11
sba(iGenerate
Edge
p1174
(dp1175
g4
I11
sg5
I10
sba(iGenerate
Edge
p1176
(dp1177
g4
I10
sg5
I15
sba(iGenerate
Edge
p1178
(dp1179
g4
I15
sg5
I12
sba(iGenerate
Edge
p1180
(dp1181
g4
I12
sg5
I14
sba(iGenerate
Edge
p1182
(dp1183
g4
I14
sg5
I13
sba(iGenerate
Edge
p1184
(dp1185
g4
I13
sg5
I16
sba(iGenerate
Edge
p1186
(dp1187
g4
I16
sg5
I0
sbaa(lp1188
(iGenerate
Edge
p1189
(dp1190
g4
I0
sg5
I2
sba(iGenerate
Edge
p1191
(dp1192
g4
I2
sg5
g8
(g12
S'\x05\x00\x00\x00'
p1193
tp1194
Rp1195
sba(iGenerate
Edge
p1196
(dp1197
g4
g1195
sg5
I1
sba(iGenerate
Edge
p1198
(dp1199
g4
I1
sg5
I3
sba(iGenerate
Edge
p1200
(dp1201
g4
I3
sg5
I4
sba(iGenerate
Edge
p1202
(dp1203
g4
I4
sg5
I8
sba(iGenerate
Edge
p1204
(dp1205
g4
I8
sg5
I6
sba(iGenerate
Edge
p1206
(dp1207
g4
I6
sg5
I7
sba(iGenerate
Edge
p1208
(dp1209
g4
I7
sg5
I9
sba(iGenerate
Edge
p1210
(dp1211
g4
I9
sg5
I11
sba(iGenerate
Edge
p1212
(dp1213
g4
I11
sg5
I10
sba(iGenerate
Edge
p1214
(dp1215
g4
I10
sg5
I15
sba(iGenerate
Edge
p1216
(dp1217
g4
I15
sg5
I12
sba(iGenerate
Edge
p1218
(dp1219
g4
I12
sg5
I14
sba(iGenerate
Edge
p1220
(dp1221
g4
I14
sg5
I13
sba(iGenerate
Edge
p1222
(dp1223
g4
I13
sg5
I16
sba(iGenerate
Edge
p1224
(dp1225
g4
I16
sg5
I0
sbaa(lp1226
(iGenerate
Edge
p1227
(dp1228
g4
I0
sg5
I2
sba(iGenerate
Edge
p1229
(dp1230
g4
I2
sg5
g8
(g12
S'\x05\x00\x00\x00'
p1231
tp1232
Rp1233
sba(iGenerate
Edge
p1234
(dp1235
g4
g1233
sg5
I1
sba(iGenerate
Edge
p1236
(dp1237
g4
I1
sg5
I3
sba(iGenerate
Edge
p1238
(dp1239
g4
I3
sg5
I4
sba(iGenerate
Edge
p1240
(dp1241
g4
I4
sg5
I8
sba(iGenerate
Edge
p1242
(dp1243
g4
I8
sg5
I6
sba(iGenerate
Edge
p1244
(dp1245
g4
I6
sg5
I7
sba(iGenerate
Edge
p1246
(dp1247
g4
I7
sg5
I9
sba(iGenerate
Edge
p1248
(dp1249
g4
I9
sg5
I11
sba(iGenerate
Edge
p1250
(dp1251
g4
I11
sg5
I10
sba(iGenerate
Edge
p1252
(dp1253
g4
I10
sg5
I15
sba(iGenerate
Edge
p1254
(dp1255
g4
I15
sg5
I12
sba(iGenerate
Edge
p1256
(dp1257
g4
I12
sg5
I14
sba(iGenerate
Edge
p1258
(dp1259
g4
I14
sg5
I13
sba(iGenerate
Edge
p1260
(dp1261
g4
I13
sg5
I16
sba(iGenerate
Edge
p1262
(dp1263
g4
I16
sg5
I0
sbaa(lp1264
(iGenerate
Edge
p1265
(dp1266
g4
I0
sg5
I2
sba(iGenerate
Edge
p1267
(dp1268
g4
I2
sg5
g8
(g12
S'\x05\x00\x00\x00'
p1269
tp1270
Rp1271
sba(iGenerate
Edge
p1272
(dp1273
g4
g1271
sg5
I1
sba(iGenerate
Edge
p1274
(dp1275
g4
I1
sg5
I3
sba(iGenerate
Edge
p1276
(dp1277
g4
I3
sg5
I4
sba(iGenerate
Edge
p1278
(dp1279
g4
I4
sg5
I8
sba(iGenerate
Edge
p1280
(dp1281
g4
I8
sg5
I6
sba(iGenerate
Edge
p1282
(dp1283
g4
I6
sg5
I7
sba(iGenerate
Edge
p1284
(dp1285
g4
I7
sg5
I9
sba(iGenerate
Edge
p1286
(dp1287
g4
I9
sg5
I11
sba(iGenerate
Edge
p1288
(dp1289
g4
I11
sg5
I10
sba(iGenerate
Edge
p1290
(dp1291
g4
I10
sg5
I15
sba(iGenerate
Edge
p1292
(dp1293
g4
I15
sg5
I12
sba(iGenerate
Edge
p1294
(dp1295
g4
I12
sg5
I14
sba(iGenerate
Edge
p1296
(dp1297
g4
I14
sg5
I13
sba(iGenerate
Edge
p1298
(dp1299
g4
I13
sg5
I16
sba(iGenerate
Edge
p1300
(dp1301
g4
I16
sg5
I0
sbaa(lp1302
(iGenerate
Edge
p1303
(dp1304
g4
I0
sg5
I2
sba(iGenerate
Edge
p1305
(dp1306
g4
I2
sg5
g8
(g12
S'\x05\x00\x00\x00'
p1307
tp1308
Rp1309
sba(iGenerate
Edge
p1310
(dp1311
g4
g1309
sg5
I1
sba(iGenerate
Edge
p1312
(dp1313
g4
I1
sg5
I3
sba(iGenerate
Edge
p1314
(dp1315
g4
I3
sg5
I4
sba(iGenerate
Edge
p1316
(dp1317
g4
I4
sg5
I8
sba(iGenerate
Edge
p1318
(dp1319
g4
I8
sg5
I6
sba(iGenerate
Edge
p1320
(dp1321
g4
I6
sg5
I7
sba(iGenerate
Edge
p1322
(dp1323
g4
I7
sg5
I9
sba(iGenerate
Edge
p1324
(dp1325
g4
I9
sg5
I11
sba(iGenerate
Edge
p1326
(dp1327
g4
I11
sg5
I10
sba(iGenerate
Edge
p1328
(dp1329
g4
I10
sg5
I15
sba(iGenerate
Edge
p1330
(dp1331
g4
I15
sg5
I12
sba(iGenerate
Edge
p1332
(dp1333
g4
I12
sg5
I14
sba(iGenerate
Edge
p1334
(dp1335
g4
I14
sg5
I13
sba(iGenerate
Edge
p1336
(dp1337
g4
I13
sg5
I16
sba(iGenerate
Edge
p1338
(dp1339
g4
I16
sg5
I0
sbaa(lp1340
(iGenerate
Edge
p1341
(dp1342
g4
I0
sg5
I2
sba(iGenerate
Edge
p1343
(dp1344
g4
I2
sg5
g8
(g12
S'\x05\x00\x00\x00'
p1345
tp1346
Rp1347
sba(iGenerate
Edge
p1348
(dp1349
g4
g1347
sg5
I1
sba(iGenerate
Edge
p1350
(dp1351
g4
I1
sg5
I3
sba(iGenerate
Edge
p1352
(dp1353
g4
I3
sg5
I4
sba(iGenerate
Edge
p1354
(dp1355
g4
I4
sg5
I8
sba(iGenerate
Edge
p1356
(dp1357
g4
I8
sg5
I6
sba(iGenerate
Edge
p1358
(dp1359
g4
I6
sg5
I7
sba(iGenerate
Edge
p1360
(dp1361
g4
I7
sg5
I9
sba(iGenerate
Edge
p1362
(dp1363
g4
I9
sg5
I11
sba(iGenerate
Edge
p1364
(dp1365
g4
I11
sg5
I10
sba(iGenerate
Edge
p1366
(dp1367
g4
I10
sg5
I15
sba(iGenerate
Edge
p1368
(dp1369
g4
I15
sg5
I12
sba(iGenerate
Edge
p1370
(dp1371
g4
I12
sg5
I14
sba(iGenerate
Edge
p1372
(dp1373
g4
I14
sg5
I13
sba(iGenerate
Edge
p1374
(dp1375
g4
I13
sg5
I16
sba(iGenerate
Edge
p1376
(dp1377
g4
I16
sg5
I0
sbaa(lp1378
(iGenerate
Edge
p1379
(dp1380
g4
I0
sg5
I2
sba(iGenerate
Edge
p1381
(dp1382
g4
I2
sg5
g8
(g12
S'\x05\x00\x00\x00'
p1383
tp1384
Rp1385
sba(iGenerate
Edge
p1386
(dp1387
g4
g1385
sg5
I1
sba(iGenerate
Edge
p1388
(dp1389
g4
I1
sg5
I3
sba(iGenerate
Edge
p1390
(dp1391
g4
I3
sg5
I4
sba(iGenerate
Edge
p1392
(dp1393
g4
I4
sg5
I8
sba(iGenerate
Edge
p1394
(dp1395
g4
I8
sg5
I6
sba(iGenerate
Edge
p1396
(dp1397
g4
I6
sg5
I7
sba(iGenerate
Edge
p1398
(dp1399
g4
I7
sg5
I9
sba(iGenerate
Edge
p1400
(dp1401
g4
I9
sg5
I11
sba(iGenerate
Edge
p1402
(dp1403
g4
I11
sg5
I10
sba(iGenerate
Edge
p1404
(dp1405
g4
I10
sg5
I15
sba(iGenerate
Edge
p1406
(dp1407
g4
I15
sg5
I12
sba(iGenerate
Edge
p1408
(dp1409
g4
I12
sg5
I14
sba(iGenerate
Edge
p1410
(dp1411
g4
I14
sg5
I13
sba(iGenerate
Edge
p1412
(dp1413
g4
I13
sg5
I16
sba(iGenerate
Edge
p1414
(dp1415
g4
I16
sg5
I0
sbaa(lp1416
(iGenerate
Edge
p1417
(dp1418
g4
I0
sg5
I2
sba(iGenerate
Edge
p1419
(dp1420
g4
I2
sg5
g8
(g12
S'\x05\x00\x00\x00'
p1421
tp1422
Rp1423
sba(iGenerate
Edge
p1424
(dp1425
g4
g1423
sg5
I1
sba(iGenerate
Edge
p1426
(dp1427
g4
I1
sg5
I3
sba(iGenerate
Edge
p1428
(dp1429
g4
I3
sg5
I4
sba(iGenerate
Edge
p1430
(dp1431
g4
I4
sg5
I8
sba(iGenerate
Edge
p1432
(dp1433
g4
I8
sg5
I6
sba(iGenerate
Edge
p1434
(dp1435
g4
I6
sg5
I7
sba(iGenerate
Edge
p1436
(dp1437
g4
I7
sg5
I9
sba(iGenerate
Edge
p1438
(dp1439
g4
I9
sg5
I11
sba(iGenerate
Edge
p1440
(dp1441
g4
I11
sg5
I10
sba(iGenerate
Edge
p1442
(dp1443
g4
I10
sg5
I15
sba(iGenerate
Edge
p1444
(dp1445
g4
I15
sg5
I12
sba(iGenerate
Edge
p1446
(dp1447
g4
I12
sg5
I14
sba(iGenerate
Edge
p1448
(dp1449
g4
I14
sg5
I13
sba(iGenerate
Edge
p1450
(dp1451
g4
I13
sg5
I16
sba(iGenerate
Edge
p1452
(dp1453
g4
I16
sg5
I0
sbaa(lp1454
(iGenerate
Edge
p1455
(dp1456
g4
I0
sg5
I2
sba(iGenerate
Edge
p1457
(dp1458
g4
I2
sg5
g8
(g12
S'\x05\x00\x00\x00'
p1459
tp1460
Rp1461
sba(iGenerate
Edge
p1462
(dp1463
g4
g1461
sg5
I1
sba(iGenerate
Edge
p1464
(dp1465
g4
I1
sg5
I3
sba(iGenerate
Edge
p1466
(dp1467
g4
I3
sg5
I4
sba(iGenerate
Edge
p1468
(dp1469
g4
I4
sg5
I8
sba(iGenerate
Edge
p1470
(dp1471
g4
I8
sg5
I6
sba(iGenerate
Edge
p1472
(dp1473
g4
I6
sg5
I7
sba(iGenerate
Edge
p1474
(dp1475
g4
I7
sg5
I9
sba(iGenerate
Edge
p1476
(dp1477
g4
I9
sg5
I11
sba(iGenerate
Edge
p1478
(dp1479
g4
I11
sg5
I10
sba(iGenerate
Edge
p1480
(dp1481
g4
I10
sg5
I15
sba(iGenerate
Edge
p1482
(dp1483
g4
I15
sg5
I12
sba(iGenerate
Edge
p1484
(dp1485
g4
I12
sg5
I14
sba(iGenerate
Edge
p1486
(dp1487
g4
I14
sg5
I13
sba(iGenerate
Edge
p1488
(dp1489
g4
I13
sg5
I16
sba(iGenerate
Edge
p1490
(dp1491
g4
I16
sg5
I0
sbaa(lp1492
(iGenerate
Edge
p1493
(dp1494
g4
I0
sg5
I2
sba(iGenerate
Edge
p1495
(dp1496
g4
I2
sg5
g8
(g12
S'\x05\x00\x00\x00'
p1497
tp1498
Rp1499
sba(iGenerate
Edge
p1500
(dp1501
g4
g1499
sg5
I1
sba(iGenerate
Edge
p1502
(dp1503
g4
I1
sg5
I3
sba(iGenerate
Edge
p1504
(dp1505
g4
I3
sg5
I4
sba(iGenerate
Edge
p1506
(dp1507
g4
I4
sg5
I8
sba(iGenerate
Edge
p1508
(dp1509
g4
I8
sg5
I6
sba(iGenerate
Edge
p1510
(dp1511
g4
I6
sg5
I7
sba(iGenerate
Edge
p1512
(dp1513
g4
I7
sg5
I9
sba(iGenerate
Edge
p1514
(dp1515
g4
I9
sg5
I11
sba(iGenerate
Edge
p1516
(dp1517
g4
I11
sg5
I10
sba(iGenerate
Edge
p1518
(dp1519
g4
I10
sg5
I15
sba(iGenerate
Edge
p1520
(dp1521
g4
I15
sg5
I12
sba(iGenerate
Edge
p1522
(dp1523
g4
I12
sg5
I14
sba(iGenerate
Edge
p1524
(dp1525
g4
I14
sg5
I13
sba(iGenerate
Edge
p1526
(dp1527
g4
I13
sg5
I16
sba(iGenerate
Edge
p1528
(dp1529
g4
I16
sg5
I0
sbaa(lp1530
(iGenerate
Edge
p1531
(dp1532
g4
I0
sg5
I2
sba(iGenerate
Edge
p1533
(dp1534
g4
I2
sg5
g8
(g12
S'\x05\x00\x00\x00'
p1535
tp1536
Rp1537
sba(iGenerate
Edge
p1538
(dp1539
g4
g1537
sg5
I1
sba(iGenerate
Edge
p1540
(dp1541
g4
I1
sg5
I3
sba(iGenerate
Edge
p1542
(dp1543
g4
I3
sg5
I4
sba(iGenerate
Edge
p1544
(dp1545
g4
I4
sg5
I8
sba(iGenerate
Edge
p1546
(dp1547
g4
I8
sg5
I6
sba(iGenerate
Edge
p1548
(dp1549
g4
I6
sg5
I7
sba(iGenerate
Edge
p1550
(dp1551
g4
I7
sg5
I9
sba(iGenerate
Edge
p1552
(dp1553
g4
I9
sg5
I11
sba(iGenerate
Edge
p1554
(dp1555
g4
I11
sg5
I10
sba(iGenerate
Edge
p1556
(dp1557
g4
I10
sg5
I15
sba(iGenerate
Edge
p1558
(dp1559
g4
I15
sg5
I12
sba(iGenerate
Edge
p1560
(dp1561
g4
I12
sg5
I14
sba(iGenerate
Edge
p1562
(dp1563
g4
I14
sg5
I13
sba(iGenerate
Edge
p1564
(dp1565
g4
I13
sg5
I16
sba(iGenerate
Edge
p1566
(dp1567
g4
I16
sg5
I0
sbaa(lp1568
(iGenerate
Edge
p1569
(dp1570
g4
I0
sg5
I2
sba(iGenerate
Edge
p1571
(dp1572
g4
I2
sg5
g8
(g12
S'\x05\x00\x00\x00'
p1573
tp1574
Rp1575
sba(iGenerate
Edge
p1576
(dp1577
g4
g1575
sg5
I1
sba(iGenerate
Edge
p1578
(dp1579
g4
I1
sg5
I3
sba(iGenerate
Edge
p1580
(dp1581
g4
I3
sg5
I4
sba(iGenerate
Edge
p1582
(dp1583
g4
I4
sg5
I8
sba(iGenerate
Edge
p1584
(dp1585
g4
I8
sg5
I6
sba(iGenerate
Edge
p1586
(dp1587
g4
I6
sg5
I7
sba(iGenerate
Edge
p1588
(dp1589
g4
I7
sg5
I9
sba(iGenerate
Edge
p1590
(dp1591
g4
I9
sg5
I11
sba(iGenerate
Edge
p1592
(dp1593
g4
I11
sg5
I10
sba(iGenerate
Edge
p1594
(dp1595
g4
I10
sg5
I15
sba(iGenerate
Edge
p1596
(dp1597
g4
I15
sg5
I12
sba(iGenerate
Edge
p1598
(dp1599
g4
I12
sg5
I14
sba(iGenerate
Edge
p1600
(dp1601
g4
I14
sg5
I13
sba(iGenerate
Edge
p1602
(dp1603
g4
I13
sg5
I16
sba(iGenerate
Edge
p1604
(dp1605
g4
I16
sg5
I0
sbaa(lp1606
(iGenerate
Edge
p1607
(dp1608
g4
I0
sg5
I2
sba(iGenerate
Edge
p1609
(dp1610
g4
I2
sg5
g8
(g12
S'\x05\x00\x00\x00'
p1611
tp1612
Rp1613
sba(iGenerate
Edge
p1614
(dp1615
g4
g1613
sg5
I1
sba(iGenerate
Edge
p1616
(dp1617
g4
I1
sg5
I3
sba(iGenerate
Edge
p1618
(dp1619
g4
I3
sg5
I4
sba(iGenerate
Edge
p1620
(dp1621
g4
I4
sg5
I8
sba(iGenerate
Edge
p1622
(dp1623
g4
I8
sg5
I6
sba(iGenerate
Edge
p1624
(dp1625
g4
I6
sg5
I7
sba(iGenerate
Edge
p1626
(dp1627
g4
I7
sg5
I9
sba(iGenerate
Edge
p1628
(dp1629
g4
I9
sg5
I11
sba(iGenerate
Edge
p1630
(dp1631
g4
I11
sg5
I10
sba(iGenerate
Edge
p1632
(dp1633
g4
I10
sg5
I15
sba(iGenerate
Edge
p1634
(dp1635
g4
I15
sg5
I12
sba(iGenerate
Edge
p1636
(dp1637
g4
I12
sg5
I14
sba(iGenerate
Edge
p1638
(dp1639
g4
I14
sg5
I13
sba(iGenerate
Edge
p1640
(dp1641
g4
I13
sg5
I16
sba(iGenerate
Edge
p1642
(dp1643
g4
I16
sg5
I0
sbaa(lp1644
(iGenerate
Edge
p1645
(dp1646
g4
I0
sg5
I2
sba(iGenerate
Edge
p1647
(dp1648
g4
I2
sg5
g8
(g12
S'\x05\x00\x00\x00'
p1649
tp1650
Rp1651
sba(iGenerate
Edge
p1652
(dp1653
g4
g1651
sg5
I1
sba(iGenerate
Edge
p1654
(dp1655
g4
I1
sg5
I3
sba(iGenerate
Edge
p1656
(dp1657
g4
I3
sg5
I4
sba(iGenerate
Edge
p1658
(dp1659
g4
I4
sg5
I8
sba(iGenerate
Edge
p1660
(dp1661
g4
I8
sg5
I6
sba(iGenerate
Edge
p1662
(dp1663
g4
I6
sg5
I7
sba(iGenerate
Edge
p1664
(dp1665
g4
I7
sg5
I9
sba(iGenerate
Edge
p1666
(dp1667
g4
I9
sg5
I11
sba(iGenerate
Edge
p1668
(dp1669
g4
I11
sg5
I10
sba(iGenerate
Edge
p1670
(dp1671
g4
I10
sg5
I15
sba(iGenerate
Edge
p1672
(dp1673
g4
I15
sg5
I12
sba(iGenerate
Edge
p1674
(dp1675
g4
I12
sg5
I14
sba(iGenerate
Edge
p1676
(dp1677
g4
I14
sg5
I13
sba(iGenerate
Edge
p1678
(dp1679
g4
I13
sg5
I16
sba(iGenerate
Edge
p1680
(dp1681
g4
I16
sg5
I0
sbaa(lp1682
(iGenerate
Edge
p1683
(dp1684
g4
I0
sg5
I2
sba(iGenerate
Edge
p1685
(dp1686
g4
I2
sg5
g8
(g12
S'\x05\x00\x00\x00'
p1687
tp1688
Rp1689
sba(iGenerate
Edge
p1690
(dp1691
g4
g1689
sg5
I1
sba(iGenerate
Edge
p1692
(dp1693
g4
I1
sg5
I3
sba(iGenerate
Edge
p1694
(dp1695
g4
I3
sg5
I4
sba(iGenerate
Edge
p1696
(dp1697
g4
I4
sg5
I8
sba(iGenerate
Edge
p1698
(dp1699
g4
I8
sg5
I6
sba(iGenerate
Edge
p1700
(dp1701
g4
I6
sg5
I7
sba(iGenerate
Edge
p1702
(dp1703
g4
I7
sg5
I9
sba(iGenerate
Edge
p1704
(dp1705
g4
I9
sg5
I11
sba(iGenerate
Edge
p1706
(dp1707
g4
I11
sg5
I10
sba(iGenerate
Edge
p1708
(dp1709
g4
I10
sg5
I15
sba(iGenerate
Edge
p1710
(dp1711
g4
I15
sg5
I12
sba(iGenerate
Edge
p1712
(dp1713
g4
I12
sg5
I14
sba(iGenerate
Edge
p1714
(dp1715
g4
I14
sg5
I13
sba(iGenerate
Edge
p1716
(dp1717
g4
I13
sg5
I16
sba(iGenerate
Edge
p1718
(dp1719
g4
I16
sg5
I0
sbaa(lp1720
(iGenerate
Edge
p1721
(dp1722
g4
I0
sg5
I2
sba(iGenerate
Edge
p1723
(dp1724
g4
I2
sg5
g8
(g12
S'\x05\x00\x00\x00'
p1725
tp1726
Rp1727
sba(iGenerate
Edge
p1728
(dp1729
g4
g1727
sg5
I1
sba(iGenerate
Edge
p1730
(dp1731
g4
I1
sg5
I3
sba(iGenerate
Edge
p1732
(dp1733
g4
I3
sg5
I4
sba(iGenerate
Edge
p1734
(dp1735
g4
I4
sg5
I8
sba(iGenerate
Edge
p1736
(dp1737
g4
I8
sg5
I6
sba(iGenerate
Edge
p1738
(dp1739
g4
I6
sg5
I7
sba(iGenerate
Edge
p1740
(dp1741
g4
I7
sg5
I9
sba(iGenerate
Edge
p1742
(dp1743
g4
I9
sg5
I11
sba(iGenerate
Edge
p1744
(dp1745
g4
I11
sg5
I10
sba(iGenerate
Edge
p1746
(dp1747
g4
I10
sg5
I15
sba(iGenerate
Edge
p1748
(dp1749
g4
I15
sg5
I12
sba(iGenerate
Edge
p1750
(dp1751
g4
I12
sg5
I14
sba(iGenerate
Edge
p1752
(dp1753
g4
I14
sg5
I13
sba(iGenerate
Edge
p1754
(dp1755
g4
I13
sg5
I16
sba(iGenerate
Edge
p1756
(dp1757
g4
I16
sg5
I0
sbaa(lp1758
(iGenerate
Edge
p1759
(dp1760
g4
I0
sg5
I2
sba(iGenerate
Edge
p1761
(dp1762
g4
I2
sg5
g8
(g12
S'\x05\x00\x00\x00'
p1763
tp1764
Rp1765
sba(iGenerate
Edge
p1766
(dp1767
g4
g1765
sg5
I1
sba(iGenerate
Edge
p1768
(dp1769
g4
I1
sg5
I3
sba(iGenerate
Edge
p1770
(dp1771
g4
I3
sg5
I4
sba(iGenerate
Edge
p1772
(dp1773
g4
I4
sg5
I8
sba(iGenerate
Edge
p1774
(dp1775
g4
I8
sg5
I6
sba(iGenerate
Edge
p1776
(dp1777
g4
I6
sg5
I7
sba(iGenerate
Edge
p1778
(dp1779
g4
I7
sg5
I9
sba(iGenerate
Edge
p1780
(dp1781
g4
I9
sg5
I11
sba(iGenerate
Edge
p1782
(dp1783
g4
I11
sg5
I10
sba(iGenerate
Edge
p1784
(dp1785
g4
I10
sg5
I15
sba(iGenerate
Edge
p1786
(dp1787
g4
I15
sg5
I12
sba(iGenerate
Edge
p1788
(dp1789
g4
I12
sg5
I14
sba(iGenerate
Edge
p1790
(dp1791
g4
I14
sg5
I13
sba(iGenerate
Edge
p1792
(dp1793
g4
I13
sg5
I16
sba(iGenerate
Edge
p1794
(dp1795
g4
I16
sg5
I0
sbaa(lp1796
(iGenerate
Edge
p1797
(dp1798
g4
I0
sg5
I2
sba(iGenerate
Edge
p1799
(dp1800
g4
I2
sg5
g8
(g12
S'\x05\x00\x00\x00'
p1801
tp1802
Rp1803
sba(iGenerate
Edge
p1804
(dp1805
g4
g1803
sg5
I1
sba(iGenerate
Edge
p1806
(dp1807
g4
I1
sg5
I3
sba(iGenerate
Edge
p1808
(dp1809
g4
I3
sg5
I4
sba(iGenerate
Edge
p1810
(dp1811
g4
I4
sg5
I8
sba(iGenerate
Edge
p1812
(dp1813
g4
I8
sg5
I6
sba(iGenerate
Edge
p1814
(dp1815
g4
I6
sg5
I7
sba(iGenerate
Edge
p1816
(dp1817
g4
I7
sg5
I9
sba(iGenerate
Edge
p1818
(dp1819
g4
I9
sg5
I11
sba(iGenerate
Edge
p1820
(dp1821
g4
I11
sg5
I10
sba(iGenerate
Edge
p1822
(dp1823
g4
I10
sg5
I15
sba(iGenerate
Edge
p1824
(dp1825
g4
I15
sg5
I12
sba(iGenerate
Edge
p1826
(dp1827
g4
I12
sg5
I14
sba(iGenerate
Edge
p1828
(dp1829
g4
I14
sg5
I13
sba(iGenerate
Edge
p1830
(dp1831
g4
I13
sg5
I16
sba(iGenerate
Edge
p1832
(dp1833
g4
I16
sg5
I0
sbaa(lp1834
(iGenerate
Edge
p1835
(dp1836
g4
I0
sg5
I2
sba(iGenerate
Edge
p1837
(dp1838
g4
I2
sg5
g8
(g12
S'\x05\x00\x00\x00'
p1839
tp1840
Rp1841
sba(iGenerate
Edge
p1842
(dp1843
g4
g1841
sg5
I1
sba(iGenerate
Edge
p1844
(dp1845
g4
I1
sg5
I3
sba(iGenerate
Edge
p1846
(dp1847
g4
I3
sg5
I4
sba(iGenerate
Edge
p1848
(dp1849
g4
I4
sg5
I8
sba(iGenerate
Edge
p1850
(dp1851
g4
I8
sg5
I6
sba(iGenerate
Edge
p1852
(dp1853
g4
I6
sg5
I7
sba(iGenerate
Edge
p1854
(dp1855
g4
I7
sg5
I9
sba(iGenerate
Edge
p1856
(dp1857
g4
I9
sg5
I11
sba(iGenerate
Edge
p1858
(dp1859
g4
I11
sg5
I10
sba(iGenerate
Edge
p1860
(dp1861
g4
I10
sg5
I15
sba(iGenerate
Edge
p1862
(dp1863
g4
I15
sg5
I12
sba(iGenerate
Edge
p1864
(dp1865
g4
I12
sg5
I14
sba(iGenerate
Edge
p1866
(dp1867
g4
I14
sg5
I13
sba(iGenerate
Edge
p1868
(dp1869
g4
I13
sg5
I16
sba(iGenerate
Edge
p1870
(dp1871
g4
I16
sg5
I0
sbaa(lp1872
(iGenerate
Edge
p1873
(dp1874
g4
I0
sg5
I2
sba(iGenerate
Edge
p1875
(dp1876
g4
I2
sg5
g8
(g12
S'\x05\x00\x00\x00'
p1877
tp1878
Rp1879
sba(iGenerate
Edge
p1880
(dp1881
g4
g1879
sg5
I1
sba(iGenerate
Edge
p1882
(dp1883
g4
I1
sg5
I3
sba(iGenerate
Edge
p1884
(dp1885
g4
I3
sg5
I4
sba(iGenerate
Edge
p1886
(dp1887
g4
I4
sg5
I8
sba(iGenerate
Edge
p1888
(dp1889
g4
I8
sg5
I6
sba(iGenerate
Edge
p1890
(dp1891
g4
I6
sg5
I7
sba(iGenerate
Edge
p1892
(dp1893
g4
I7
sg5
I9
sba(iGenerate
Edge
p1894
(dp1895
g4
I9
sg5
I11
sba(iGenerate
Edge
p1896
(dp1897
g4
I11
sg5
I10
sba(iGenerate
Edge
p1898
(dp1899
g4
I10
sg5
I15
sba(iGenerate
Edge
p1900
(dp1901
g4
I15
sg5
I12
sba(iGenerate
Edge
p1902
(dp1903
g4
I12
sg5
I14
sba(iGenerate
Edge
p1904
(dp1905
g4
I14
sg5
I13
sba(iGenerate
Edge
p1906
(dp1907
g4
I13
sg5
I16
sba(iGenerate
Edge
p1908
(dp1909
g4
I16
sg5
I0
sbaa.