(lp0
(lp1
(iGenerate
Edge
p2
(dp3
S'a'
p4
I0
sS'b'
p5
I2
sba(iGenerate
Edge
p6
(dp7
g4
I2
sg5
cnumpy.core.multiarray
scalar
p8
(cnumpy
dtype
p9
(S'i4'
p10
I0
I1
tp11
Rp12
(I3
S'<'
p13
NNNI-1
I-1
I0
tp14
bS'\x04\x00\x00\x00'
p15
tp16
Rp17
sba(iGenerate
Edge
p18
(dp19
g4
g17
sg5
I1
sba(iGenerate
Edge
p20
(dp21
g4
I1
sg5
I3
sba(iGenerate
Edge
p22
(dp23
g4
I3
sg5
I5
sba(iGenerate
Edge
p24
(dp25
g4
I5
sg5
I7
sba(iGenerate
Edge
p26
(dp27
g4
I7
sg5
I6
sba(iGenerate
Edge
p28
(dp29
g4
I6
sg5
I8
sba(iGenerate
Edge
p30
(dp31
g4
I8
sg5
I9
sba(iGenerate
Edge
p32
(dp33
g4
I9
sg5
I14
sba(iGenerate
Edge
p34
(dp35
g4
I14
sg5
I10
sba(iGenerate
Edge
p36
(dp37
g4
I10
sg5
I15
sba(iGenerate
Edge
p38
(dp39
g4
I15
sg5
I11
sba(iGenerate
Edge
p40
(dp41
g4
I11
sg5
I16
sba(iGenerate
Edge
p42
(dp43
g4
I16
sg5
I12
sba(iGenerate
Edge
p44
(dp45
g4
I12
sg5
I17
sba(iGenerate
Edge
p46
(dp47
g4
I17
sg5
I13
sba(iGenerate
Edge
p48
(dp49
g4
I13
sg5
I18
sba(iGenerate
Edge
p50
(dp51
g4
I18
sg5
I0
sbaa(lp52
(iGenerate
Edge
p53
(dp54
g4
I0
sg5
I2
sba(iGenerate
Edge
p55
(dp56
g4
I2
sg5
g8
(g12
S'\x04\x00\x00\x00'
p57
tp58
Rp59
sba(iGenerate
Edge
p60
(dp61
g4
g59
sg5
I1
sba(iGenerate
Edge
p62
(dp63
g4
I1
sg5
I3
sba(iGenerate
Edge
p64
(dp65
g4
I3
sg5
I5
sba(iGenerate
Edge
p66
(dp67
g4
I5
sg5
I7
sba(iGenerate
Edge
p68
(dp69
g4
I7
sg5
I6
sba(iGenerate
Edge
p70
(dp71
g4
I6
sg5
I8
sba(iGenerate
Edge
p72
(dp73
g4
I8
sg5
I9
sba(iGenerate
Edge
p74
(dp75
g4
I9
sg5
I14
sba(iGenerate
Edge
p76
(dp77
g4
I14
sg5
I10
sba(iGenerate
Edge
p78
(dp79
g4
I10
sg5
I15
sba(iGenerate
Edge
p80
(dp81
g4
I15
sg5
I11
sba(iGenerate
Edge
p82
(dp83
g4
I11
sg5
I16
sba(iGenerate
Edge
p84
(dp85
g4
I16
sg5
I12
sba(iGenerate
Edge
p86
(dp87
g4
I12
sg5
I17
sba(iGenerate
Edge
p88
(dp89
g4
I17
sg5
I13
sba(iGenerate
Edge
p90
(dp91
g4
I13
sg5
I18
sba(iGenerate
Edge
p92
(dp93
g4
I18
sg5
I0
sbaa(lp94
(iGenerate
Edge
p95
(dp96
g4
I0
sg5
I2
sba(iGenerate
Edge
p97
(dp98
g4
I2
sg5
g8
(g12
S'\x04\x00\x00\x00'
p99
tp100
Rp101
sba(iGenerate
Edge
p102
(dp103
g4
g101
sg5
I1
sba(iGenerate
Edge
p104
(dp105
g4
I1
sg5
I3
sba(iGenerate
Edge
p106
(dp107
g4
I3
sg5
I5
sba(iGenerate
Edge
p108
(dp109
g4
I5
sg5
I7
sba(iGenerate
Edge
p110
(dp111
g4
I7
sg5
I6
sba(iGenerate
Edge
p112
(dp113
g4
I6
sg5
I8
sba(iGenerate
Edge
p114
(dp115
g4
I8
sg5
I9
sba(iGenerate
Edge
p116
(dp117
g4
I9
sg5
I14
sba(iGenerate
Edge
p118
(dp119
g4
I14
sg5
I10
sba(iGenerate
Edge
p120
(dp121
g4
I10
sg5
I15
sba(iGenerate
Edge
p122
(dp123
g4
I15
sg5
I11
sba(iGenerate
Edge
p124
(dp125
g4
I11
sg5
I16
sba(iGenerate
Edge
p126
(dp127
g4
I16
sg5
I12
sba(iGenerate
Edge
p128
(dp129
g4
I12
sg5
I17
sba(iGenerate
Edge
p130
(dp131
g4
I17
sg5
I13
sba(iGenerate
Edge
p132
(dp133
g4
I13
sg5
I18
sba(iGenerate
Edge
p134
(dp135
g4
I18
sg5
I0
sbaa(lp136
(iGenerate
Edge
p137
(dp138
g4
I0
sg5
I2
sba(iGenerate
Edge
p139
(dp140
g4
I2
sg5
g8
(g12
S'\x04\x00\x00\x00'
p141
tp142
Rp143
sba(iGenerate
Edge
p144
(dp145
g4
g143
sg5
I1
sba(iGenerate
Edge
p146
(dp147
g4
I1
sg5
I3
sba(iGenerate
Edge
p148
(dp149
g4
I3
sg5
I5
sba(iGenerate
Edge
p150
(dp151
g4
I5
sg5
I7
sba(iGenerate
Edge
p152
(dp153
g4
I7
sg5
I6
sba(iGenerate
Edge
p154
(dp155
g4
I6
sg5
I8
sba(iGenerate
Edge
p156
(dp157
g4
I8
sg5
I9
sba(iGenerate
Edge
p158
(dp159
g4
I9
sg5
I14
sba(iGenerate
Edge
p160
(dp161
g4
I14
sg5
I10
sba(iGenerate
Edge
p162
(dp163
g4
I10
sg5
I15
sba(iGenerate
Edge
p164
(dp165
g4
I15
sg5
I11
sba(iGenerate
Edge
p166
(dp167
g4
I11
sg5
I16
sba(iGenerate
Edge
p168
(dp169
g4
I16
sg5
I12
sba(iGenerate
Edge
p170
(dp171
g4
I12
sg5
I17
sba(iGenerate
Edge
p172
(dp173
g4
I17
sg5
I13
sba(iGenerate
Edge
p174
(dp175
g4
I13
sg5
I18
sba(iGenerate
Edge
p176
(dp177
g4
I18
sg5
I0
sbaa(lp178
(iGenerate
Edge
p179
(dp180
g4
I0
sg5
I2
sba(iGenerate
Edge
p181
(dp182
g4
I2
sg5
g8
(g12
S'\x04\x00\x00\x00'
p183
tp184
Rp185
sba(iGenerate
Edge
p186
(dp187
g4
g185
sg5
I1
sba(iGenerate
Edge
p188
(dp189
g4
I1
sg5
I3
sba(iGenerate
Edge
p190
(dp191
g4
I3
sg5
I5
sba(iGenerate
Edge
p192
(dp193
g4
I5
sg5
I7
sba(iGenerate
Edge
p194
(dp195
g4
I7
sg5
I6
sba(iGenerate
Edge
p196
(dp197
g4
I6
sg5
I8
sba(iGenerate
Edge
p198
(dp199
g4
I8
sg5
I9
sba(iGenerate
Edge
p200
(dp201
g4
I9
sg5
I14
sba(iGenerate
Edge
p202
(dp203
g4
I14
sg5
I10
sba(iGenerate
Edge
p204
(dp205
g4
I10
sg5
I15
sba(iGenerate
Edge
p206
(dp207
g4
I15
sg5
I11
sba(iGenerate
Edge
p208
(dp209
g4
I11
sg5
I16
sba(iGenerate
Edge
p210
(dp211
g4
I16
sg5
I12
sba(iGenerate
Edge
p212
(dp213
g4
I12
sg5
I17
sba(iGenerate
Edge
p214
(dp215
g4
I17
sg5
I13
sba(iGenerate
Edge
p216
(dp217
g4
I13
sg5
I18
sba(iGenerate
Edge
p218
(dp219
g4
I18
sg5
I0
sbaa(lp220
(iGenerate
Edge
p221
(dp222
g4
I0
sg5
I2
sba(iGenerate
Edge
p223
(dp224
g4
I2
sg5
g8
(g12
S'\x04\x00\x00\x00'
p225
tp226
Rp227
sba(iGenerate
Edge
p228
(dp229
g4
g227
sg5
I1
sba(iGenerate
Edge
p230
(dp231
g4
I1
sg5
I3
sba(iGenerate
Edge
p232
(dp233
g4
I3
sg5
I5
sba(iGenerate
Edge
p234
(dp235
g4
I5
sg5
I7
sba(iGenerate
Edge
p236
(dp237
g4
I7
sg5
I6
sba(iGenerate
Edge
p238
(dp239
g4
I6
sg5
I8
sba(iGenerate
Edge
p240
(dp241
g4
I8
sg5
I9
sba(iGenerate
Edge
p242
(dp243
g4
I9
sg5
I14
sba(iGenerate
Edge
p244
(dp245
g4
I14
sg5
I10
sba(iGenerate
Edge
p246
(dp247
g4
I10
sg5
I15
sba(iGenerate
Edge
p248
(dp249
g4
I15
sg5
I11
sba(iGenerate
Edge
p250
(dp251
g4
I11
sg5
I16
sba(iGenerate
Edge
p252
(dp253
g4
I16
sg5
I12
sba(iGenerate
Edge
p254
(dp255
g4
I12
sg5
I17
sba(iGenerate
Edge
p256
(dp257
g4
I17
sg5
I13
sba(iGenerate
Edge
p258
(dp259
g4
I13
sg5
I18
sba(iGenerate
Edge
p260
(dp261
g4
I18
sg5
I0
sbaa(lp262
(iGenerate
Edge
p263
(dp264
g4
I0
sg5
I2
sba(iGenerate
Edge
p265
(dp266
g4
I2
sg5
g8
(g12
S'\x04\x00\x00\x00'
p267
tp268
Rp269
sba(iGenerate
Edge
p270
(dp271
g4
g269
sg5
I1
sba(iGenerate
Edge
p272
(dp273
g4
I1
sg5
I3
sba(iGenerate
Edge
p274
(dp275
g4
I3
sg5
I5
sba(iGenerate
Edge
p276
(dp277
g4
I5
sg5
I7
sba(iGenerate
Edge
p278
(dp279
g4
I7
sg5
I6
sba(iGenerate
Edge
p280
(dp281
g4
I6
sg5
I8
sba(iGenerate
Edge
p282
(dp283
g4
I8
sg5
I9
sba(iGenerate
Edge
p284
(dp285
g4
I9
sg5
I14
sba(iGenerate
Edge
p286
(dp287
g4
I14
sg5
I10
sba(iGenerate
Edge
p288
(dp289
g4
I10
sg5
I15
sba(iGenerate
Edge
p290
(dp291
g4
I15
sg5
I11
sba(iGenerate
Edge
p292
(dp293
g4
I11
sg5
I16
sba(iGenerate
Edge
p294
(dp295
g4
I16
sg5
I12
sba(iGenerate
Edge
p296
(dp297
g4
I12
sg5
I17
sba(iGenerate
Edge
p298
(dp299
g4
I17
sg5
I13
sba(iGenerate
Edge
p300
(dp301
g4
I13
sg5
I18
sba(iGenerate
Edge
p302
(dp303
g4
I18
sg5
I0
sbaa(lp304
(iGenerate
Edge
p305
(dp306
g4
I0
sg5
I2
sba(iGenerate
Edge
p307
(dp308
g4
I2
sg5
g8
(g12
S'\x04\x00\x00\x00'
p309
tp310
Rp311
sba(iGenerate
Edge
p312
(dp313
g4
g311
sg5
I1
sba(iGenerate
Edge
p314
(dp315
g4
I1
sg5
I3
sba(iGenerate
Edge
p316
(dp317
g4
I3
sg5
I5
sba(iGenerate
Edge
p318
(dp319
g4
I5
sg5
I7
sba(iGenerate
Edge
p320
(dp321
g4
I7
sg5
I6
sba(iGenerate
Edge
p322
(dp323
g4
I6
sg5
I8
sba(iGenerate
Edge
p324
(dp325
g4
I8
sg5
I9
sba(iGenerate
Edge
p326
(dp327
g4
I9
sg5
I14
sba(iGenerate
Edge
p328
(dp329
g4
I14
sg5
I10
sba(iGenerate
Edge
p330
(dp331
g4
I10
sg5
I15
sba(iGenerate
Edge
p332
(dp333
g4
I15
sg5
I11
sba(iGenerate
Edge
p334
(dp335
g4
I11
sg5
I16
sba(iGenerate
Edge
p336
(dp337
g4
I16
sg5
I12
sba(iGenerate
Edge
p338
(dp339
g4
I12
sg5
I17
sba(iGenerate
Edge
p340
(dp341
g4
I17
sg5
I13
sba(iGenerate
Edge
p342
(dp343
g4
I13
sg5
I18
sba(iGenerate
Edge
p344
(dp345
g4
I18
sg5
I0
sbaa(lp346
(iGenerate
Edge
p347
(dp348
g4
I0
sg5
I2
sba(iGenerate
Edge
p349
(dp350
g4
I2
sg5
g8
(g12
S'\x04\x00\x00\x00'
p351
tp352
Rp353
sba(iGenerate
Edge
p354
(dp355
g4
g353
sg5
I1
sba(iGenerate
Edge
p356
(dp357
g4
I1
sg5
I3
sba(iGenerate
Edge
p358
(dp359
g4
I3
sg5
I5
sba(iGenerate
Edge
p360
(dp361
g4
I5
sg5
I7
sba(iGenerate
Edge
p362
(dp363
g4
I7
sg5
I6
sba(iGenerate
Edge
p364
(dp365
g4
I6
sg5
I8
sba(iGenerate
Edge
p366
(dp367
g4
I8
sg5
I9
sba(iGenerate
Edge
p368
(dp369
g4
I9
sg5
I14
sba(iGenerate
Edge
p370
(dp371
g4
I14
sg5
I10
sba(iGenerate
Edge
p372
(dp373
g4
I10
sg5
I15
sba(iGenerate
Edge
p374
(dp375
g4
I15
sg5
I11
sba(iGenerate
Edge
p376
(dp377
g4
I11
sg5
I16
sba(iGenerate
Edge
p378
(dp379
g4
I16
sg5
I12
sba(iGenerate
Edge
p380
(dp381
g4
I12
sg5
I17
sba(iGenerate
Edge
p382
(dp383
g4
I17
sg5
I13
sba(iGenerate
Edge
p384
(dp385
g4
I13
sg5
I18
sba(iGenerate
Edge
p386
(dp387
g4
I18
sg5
I0
sbaa(lp388
(iGenerate
Edge
p389
(dp390
g4
I0
sg5
I2
sba(iGenerate
Edge
p391
(dp392
g4
I2
sg5
g8
(g12
S'\x04\x00\x00\x00'
p393
tp394
Rp395
sba(iGenerate
Edge
p396
(dp397
g4
g395
sg5
I1
sba(iGenerate
Edge
p398
(dp399
g4
I1
sg5
I3
sba(iGenerate
Edge
p400
(dp401
g4
I3
sg5
I5
sba(iGenerate
Edge
p402
(dp403
g4
I5
sg5
I7
sba(iGenerate
Edge
p404
(dp405
g4
I7
sg5
I6
sba(iGenerate
Edge
p406
(dp407
g4
I6
sg5
I8
sba(iGenerate
Edge
p408
(dp409
g4
I8
sg5
I9
sba(iGenerate
Edge
p410
(dp411
g4
I9
sg5
I14
sba(iGenerate
Edge
p412
(dp413
g4
I14
sg5
I10
sba(iGenerate
Edge
p414
(dp415
g4
I10
sg5
I15
sba(iGenerate
Edge
p416
(dp417
g4
I15
sg5
I11
sba(iGenerate
Edge
p418
(dp419
g4
I11
sg5
I16
sba(iGenerate
Edge
p420
(dp421
g4
I16
sg5
I12
sba(iGenerate
Edge
p422
(dp423
g4
I12
sg5
I17
sba(iGenerate
Edge
p424
(dp425
g4
I17
sg5
I13
sba(iGenerate
Edge
p426
(dp427
g4
I13
sg5
I18
sba(iGenerate
Edge
p428
(dp429
g4
I18
sg5
I0
sbaa(lp430
(iGenerate
Edge
p431
(dp432
g4
I0
sg5
I2
sba(iGenerate
Edge
p433
(dp434
g4
I2
sg5
g8
(g12
S'\x04\x00\x00\x00'
p435
tp436
Rp437
sba(iGenerate
Edge
p438
(dp439
g4
g437
sg5
I1
sba(iGenerate
Edge
p440
(dp441
g4
I1
sg5
I3
sba(iGenerate
Edge
p442
(dp443
g4
I3
sg5
I5
sba(iGenerate
Edge
p444
(dp445
g4
I5
sg5
I7
sba(iGenerate
Edge
p446
(dp447
g4
I7
sg5
I6
sba(iGenerate
Edge
p448
(dp449
g4
I6
sg5
I8
sba(iGenerate
Edge
p450
(dp451
g4
I8
sg5
I9
sba(iGenerate
Edge
p452
(dp453
g4
I9
sg5
I14
sba(iGenerate
Edge
p454
(dp455
g4
I14
sg5
I10
sba(iGenerate
Edge
p456
(dp457
g4
I10
sg5
I15
sba(iGenerate
Edge
p458
(dp459
g4
I15
sg5
I11
sba(iGenerate
Edge
p460
(dp461
g4
I11
sg5
I16
sba(iGenerate
Edge
p462
(dp463
g4
I16
sg5
I12
sba(iGenerate
Edge
p464
(dp465
g4
I12
sg5
I17
sba(iGenerate
Edge
p466
(dp467
g4
I17
sg5
I13
sba(iGenerate
Edge
p468
(dp469
g4
I13
sg5
I18
sba(iGenerate
Edge
p470
(dp471
g4
I18
sg5
I0
sbaa(lp472
(iGenerate
Edge
p473
(dp474
g4
I0
sg5
I2
sba(iGenerate
Edge
p475
(dp476
g4
I2
sg5
g8
(g12
S'\x04\x00\x00\x00'
p477
tp478
Rp479
sba(iGenerate
Edge
p480
(dp481
g4
g479
sg5
I1
sba(iGenerate
Edge
p482
(dp483
g4
I1
sg5
I3
sba(iGenerate
Edge
p484
(dp485
g4
I3
sg5
I5
sba(iGenerate
Edge
p486
(dp487
g4
I5
sg5
I7
sba(iGenerate
Edge
p488
(dp489
g4
I7
sg5
I6
sba(iGenerate
Edge
p490
(dp491
g4
I6
sg5
I8
sba(iGenerate
Edge
p492
(dp493
g4
I8
sg5
I9
sba(iGenerate
Edge
p494
(dp495
g4
I9
sg5
I14
sba(iGenerate
Edge
p496
(dp497
g4
I14
sg5
I10
sba(iGenerate
Edge
p498
(dp499
g4
I10
sg5
I15
sba(iGenerate
Edge
p500
(dp501
g4
I15
sg5
I11
sba(iGenerate
Edge
p502
(dp503
g4
I11
sg5
I16
sba(iGenerate
Edge
p504
(dp505
g4
I16
sg5
I12
sba(iGenerate
Edge
p506
(dp507
g4
I12
sg5
I17
sba(iGenerate
Edge
p508
(dp509
g4
I17
sg5
I13
sba(iGenerate
Edge
p510
(dp511
g4
I13
sg5
I18
sba(iGenerate
Edge
p512
(dp513
g4
I18
sg5
I0
sbaa(lp514
(iGenerate
Edge
p515
(dp516
g4
I0
sg5
I2
sba(iGenerate
Edge
p517
(dp518
g4
I2
sg5
g8
(g12
S'\x04\x00\x00\x00'
p519
tp520
Rp521
sba(iGenerate
Edge
p522
(dp523
g4
g521
sg5
I1
sba(iGenerate
Edge
p524
(dp525
g4
I1
sg5
I3
sba(iGenerate
Edge
p526
(dp527
g4
I3
sg5
I5
sba(iGenerate
Edge
p528
(dp529
g4
I5
sg5
I7
sba(iGenerate
Edge
p530
(dp531
g4
I7
sg5
I6
sba(iGenerate
Edge
p532
(dp533
g4
I6
sg5
I8
sba(iGenerate
Edge
p534
(dp535
g4
I8
sg5
I9
sba(iGenerate
Edge
p536
(dp537
g4
I9
sg5
I14
sba(iGenerate
Edge
p538
(dp539
g4
I14
sg5
I10
sba(iGenerate
Edge
p540
(dp541
g4
I10
sg5
I15
sba(iGenerate
Edge
p542
(dp543
g4
I15
sg5
I11
sba(iGenerate
Edge
p544
(dp545
g4
I11
sg5
I16
sba(iGenerate
Edge
p546
(dp547
g4
I16
sg5
I12
sba(iGenerate
Edge
p548
(dp549
g4
I12
sg5
I17
sba(iGenerate
Edge
p550
(dp551
g4
I17
sg5
I13
sba(iGenerate
Edge
p552
(dp553
g4
I13
sg5
I18
sba(iGenerate
Edge
p554
(dp555
g4
I18
sg5
I0
sbaa(lp556
(iGenerate
Edge
p557
(dp558
g4
I0
sg5
I2
sba(iGenerate
Edge
p559
(dp560
g4
I2
sg5
g8
(g12
S'\x04\x00\x00\x00'
p561
tp562
Rp563
sba(iGenerate
Edge
p564
(dp565
g4
g563
sg5
I1
sba(iGenerate
Edge
p566
(dp567
g4
I1
sg5
I3
sba(iGenerate
Edge
p568
(dp569
g4
I3
sg5
I5
sba(iGenerate
Edge
p570
(dp571
g4
I5
sg5
I7
sba(iGenerate
Edge
p572
(dp573
g4
I7
sg5
I6
sba(iGenerate
Edge
p574
(dp575
g4
I6
sg5
I8
sba(iGenerate
Edge
p576
(dp577
g4
I8
sg5
I9
sba(iGenerate
Edge
p578
(dp579
g4
I9
sg5
I14
sba(iGenerate
Edge
p580
(dp581
g4
I14
sg5
I10
sba(iGenerate
Edge
p582
(dp583
g4
I10
sg5
I15
sba(iGenerate
Edge
p584
(dp585
g4
I15
sg5
I11
sba(iGenerate
Edge
p586
(dp587
g4
I11
sg5
I16
sba(iGenerate
Edge
p588
(dp589
g4
I16
sg5
I12
sba(iGenerate
Edge
p590
(dp591
g4
I12
sg5
I17
sba(iGenerate
Edge
p592
(dp593
g4
I17
sg5
I13
sba(iGenerate
Edge
p594
(dp595
g4
I13
sg5
I18
sba(iGenerate
Edge
p596
(dp597
g4
I18
sg5
I0
sbaa(lp598
(iGenerate
Edge
p599
(dp600
g4
I0
sg5
I2
sba(iGenerate
Edge
p601
(dp602
g4
I2
sg5
g8
(g12
S'\x04\x00\x00\x00'
p603
tp604
Rp605
sba(iGenerate
Edge
p606
(dp607
g4
g605
sg5
I1
sba(iGenerate
Edge
p608
(dp609
g4
I1
sg5
I3
sba(iGenerate
Edge
p610
(dp611
g4
I3
sg5
I5
sba(iGenerate
Edge
p612
(dp613
g4
I5
sg5
I7
sba(iGenerate
Edge
p614
(dp615
g4
I7
sg5
I6
sba(iGenerate
Edge
p616
(dp617
g4
I6
sg5
I8
sba(iGenerate
Edge
p618
(dp619
g4
I8
sg5
I9
sba(iGenerate
Edge
p620
(dp621
g4
I9
sg5
I14
sba(iGenerate
Edge
p622
(dp623
g4
I14
sg5
I10
sba(iGenerate
Edge
p624
(dp625
g4
I10
sg5
I15
sba(iGenerate
Edge
p626
(dp627
g4
I15
sg5
I11
sba(iGenerate
Edge
p628
(dp629
g4
I11
sg5
I16
sba(iGenerate
Edge
p630
(dp631
g4
I16
sg5
I12
sba(iGenerate
Edge
p632
(dp633
g4
I12
sg5
I17
sba(iGenerate
Edge
p634
(dp635
g4
I17
sg5
I13
sba(iGenerate
Edge
p636
(dp637
g4
I13
sg5
I18
sba(iGenerate
Edge
p638
(dp639
g4
I18
sg5
I0
sbaa(lp640
(iGenerate
Edge
p641
(dp642
g4
I0
sg5
I2
sba(iGenerate
Edge
p643
(dp644
g4
I2
sg5
g8
(g12
S'\x04\x00\x00\x00'
p645
tp646
Rp647
sba(iGenerate
Edge
p648
(dp649
g4
g647
sg5
I1
sba(iGenerate
Edge
p650
(dp651
g4
I1
sg5
I3
sba(iGenerate
Edge
p652
(dp653
g4
I3
sg5
I5
sba(iGenerate
Edge
p654
(dp655
g4
I5
sg5
I7
sba(iGenerate
Edge
p656
(dp657
g4
I7
sg5
I6
sba(iGenerate
Edge
p658
(dp659
g4
I6
sg5
I8
sba(iGenerate
Edge
p660
(dp661
g4
I8
sg5
I9
sba(iGenerate
Edge
p662
(dp663
g4
I9
sg5
I14
sba(iGenerate
Edge
p664
(dp665
g4
I14
sg5
I10
sba(iGenerate
Edge
p666
(dp667
g4
I10
sg5
I15
sba(iGenerate
Edge
p668
(dp669
g4
I15
sg5
I11
sba(iGenerate
Edge
p670
(dp671
g4
I11
sg5
I16
sba(iGenerate
Edge
p672
(dp673
g4
I16
sg5
I12
sba(iGenerate
Edge
p674
(dp675
g4
I12
sg5
I17
sba(iGenerate
Edge
p676
(dp677
g4
I17
sg5
I13
sba(iGenerate
Edge
p678
(dp679
g4
I13
sg5
I18
sba(iGenerate
Edge
p680
(dp681
g4
I18
sg5
I0
sbaa(lp682
(iGenerate
Edge
p683
(dp684
g4
I0
sg5
I2
sba(iGenerate
Edge
p685
(dp686
g4
I2
sg5
g8
(g12
S'\x04\x00\x00\x00'
p687
tp688
Rp689
sba(iGenerate
Edge
p690
(dp691
g4
g689
sg5
I1
sba(iGenerate
Edge
p692
(dp693
g4
I1
sg5
I3
sba(iGenerate
Edge
p694
(dp695
g4
I3
sg5
I5
sba(iGenerate
Edge
p696
(dp697
g4
I5
sg5
I7
sba(iGenerate
Edge
p698
(dp699
g4
I7
sg5
I6
sba(iGenerate
Edge
p700
(dp701
g4
I6
sg5
I8
sba(iGenerate
Edge
p702
(dp703
g4
I8
sg5
I9
sba(iGenerate
Edge
p704
(dp705
g4
I9
sg5
I14
sba(iGenerate
Edge
p706
(dp707
g4
I14
sg5
I10
sba(iGenerate
Edge
p708
(dp709
g4
I10
sg5
I15
sba(iGenerate
Edge
p710
(dp711
g4
I15
sg5
I11
sba(iGenerate
Edge
p712
(dp713
g4
I11
sg5
I16
sba(iGenerate
Edge
p714
(dp715
g4
I16
sg5
I12
sba(iGenerate
Edge
p716
(dp717
g4
I12
sg5
I17
sba(iGenerate
Edge
p718
(dp719
g4
I17
sg5
I13
sba(iGenerate
Edge
p720
(dp721
g4
I13
sg5
I18
sba(iGenerate
Edge
p722
(dp723
g4
I18
sg5
I0
sbaa(lp724
(iGenerate
Edge
p725
(dp726
g4
I0
sg5
I2
sba(iGenerate
Edge
p727
(dp728
g4
I2
sg5
g8
(g12
S'\x04\x00\x00\x00'
p729
tp730
Rp731
sba(iGenerate
Edge
p732
(dp733
g4
g731
sg5
I1
sba(iGenerate
Edge
p734
(dp735
g4
I1
sg5
I3
sba(iGenerate
Edge
p736
(dp737
g4
I3
sg5
I5
sba(iGenerate
Edge
p738
(dp739
g4
I5
sg5
I7
sba(iGenerate
Edge
p740
(dp741
g4
I7
sg5
I6
sba(iGenerate
Edge
p742
(dp743
g4
I6
sg5
I8
sba(iGenerate
Edge
p744
(dp745
g4
I8
sg5
I9
sba(iGenerate
Edge
p746
(dp747
g4
I9
sg5
I14
sba(iGenerate
Edge
p748
(dp749
g4
I14
sg5
I10
sba(iGenerate
Edge
p750
(dp751
g4
I10
sg5
I15
sba(iGenerate
Edge
p752
(dp753
g4
I15
sg5
I11
sba(iGenerate
Edge
p754
(dp755
g4
I11
sg5
I16
sba(iGenerate
Edge
p756
(dp757
g4
I16
sg5
I12
sba(iGenerate
Edge
p758
(dp759
g4
I12
sg5
I17
sba(iGenerate
Edge
p760
(dp761
g4
I17
sg5
I13
sba(iGenerate
Edge
p762
(dp763
g4
I13
sg5
I18
sba(iGenerate
Edge
p764
(dp765
g4
I18
sg5
I0
sbaa(lp766
(iGenerate
Edge
p767
(dp768
g4
I0
sg5
I2
sba(iGenerate
Edge
p769
(dp770
g4
I2
sg5
g8
(g12
S'\x04\x00\x00\x00'
p771
tp772
Rp773
sba(iGenerate
Edge
p774
(dp775
g4
g773
sg5
I1
sba(iGenerate
Edge
p776
(dp777
g4
I1
sg5
I3
sba(iGenerate
Edge
p778
(dp779
g4
I3
sg5
I5
sba(iGenerate
Edge
p780
(dp781
g4
I5
sg5
I7
sba(iGenerate
Edge
p782
(dp783
g4
I7
sg5
I6
sba(iGenerate
Edge
p784
(dp785
g4
I6
sg5
I8
sba(iGenerate
Edge
p786
(dp787
g4
I8
sg5
I9
sba(iGenerate
Edge
p788
(dp789
g4
I9
sg5
I14
sba(iGenerate
Edge
p790
(dp791
g4
I14
sg5
I10
sba(iGenerate
Edge
p792
(dp793
g4
I10
sg5
I15
sba(iGenerate
Edge
p794
(dp795
g4
I15
sg5
I11
sba(iGenerate
Edge
p796
(dp797
g4
I11
sg5
I16
sba(iGenerate
Edge
p798
(dp799
g4
I16
sg5
I12
sba(iGenerate
Edge
p800
(dp801
g4
I12
sg5
I17
sba(iGenerate
Edge
p802
(dp803
g4
I17
sg5
I13
sba(iGenerate
Edge
p804
(dp805
g4
I13
sg5
I18
sba(iGenerate
Edge
p806
(dp807
g4
I18
sg5
I0
sbaa(lp808
(iGenerate
Edge
p809
(dp810
g4
I0
sg5
I2
sba(iGenerate
Edge
p811
(dp812
g4
I2
sg5
g8
(g12
S'\x04\x00\x00\x00'
p813
tp814
Rp815
sba(iGenerate
Edge
p816
(dp817
g4
g815
sg5
I1
sba(iGenerate
Edge
p818
(dp819
g4
I1
sg5
I3
sba(iGenerate
Edge
p820
(dp821
g4
I3
sg5
I5
sba(iGenerate
Edge
p822
(dp823
g4
I5
sg5
I7
sba(iGenerate
Edge
p824
(dp825
g4
I7
sg5
I6
sba(iGenerate
Edge
p826
(dp827
g4
I6
sg5
I8
sba(iGenerate
Edge
p828
(dp829
g4
I8
sg5
I9
sba(iGenerate
Edge
p830
(dp831
g4
I9
sg5
I14
sba(iGenerate
Edge
p832
(dp833
g4
I14
sg5
I10
sba(iGenerate
Edge
p834
(dp835
g4
I10
sg5
I15
sba(iGenerate
Edge
p836
(dp837
g4
I15
sg5
I11
sba(iGenerate
Edge
p838
(dp839
g4
I11
sg5
I16
sba(iGenerate
Edge
p840
(dp841
g4
I16
sg5
I12
sba(iGenerate
Edge
p842
(dp843
g4
I12
sg5
I17
sba(iGenerate
Edge
p844
(dp845
g4
I17
sg5
I13
sba(iGenerate
Edge
p846
(dp847
g4
I13
sg5
I18
sba(iGenerate
Edge
p848
(dp849
g4
I18
sg5
I0
sbaa(lp850
(iGenerate
Edge
p851
(dp852
g4
I0
sg5
I2
sba(iGenerate
Edge
p853
(dp854
g4
I2
sg5
g8
(g12
S'\x04\x00\x00\x00'
p855
tp856
Rp857
sba(iGenerate
Edge
p858
(dp859
g4
g857
sg5
I1
sba(iGenerate
Edge
p860
(dp861
g4
I1
sg5
I3
sba(iGenerate
Edge
p862
(dp863
g4
I3
sg5
I5
sba(iGenerate
Edge
p864
(dp865
g4
I5
sg5
I7
sba(iGenerate
Edge
p866
(dp867
g4
I7
sg5
I6
sba(iGenerate
Edge
p868
(dp869
g4
I6
sg5
I8
sba(iGenerate
Edge
p870
(dp871
g4
I8
sg5
I9
sba(iGenerate
Edge
p872
(dp873
g4
I9
sg5
I14
sba(iGenerate
Edge
p874
(dp875
g4
I14
sg5
I10
sba(iGenerate
Edge
p876
(dp877
g4
I10
sg5
I15
sba(iGenerate
Edge
p878
(dp879
g4
I15
sg5
I11
sba(iGenerate
Edge
p880
(dp881
g4
I11
sg5
I16
sba(iGenerate
Edge
p882
(dp883
g4
I16
sg5
I12
sba(iGenerate
Edge
p884
(dp885
g4
I12
sg5
I17
sba(iGenerate
Edge
p886
(dp887
g4
I17
sg5
I13
sba(iGenerate
Edge
p888
(dp889
g4
I13
sg5
I18
sba(iGenerate
Edge
p890
(dp891
g4
I18
sg5
I0
sbaa(lp892
(iGenerate
Edge
p893
(dp894
g4
I0
sg5
I2
sba(iGenerate
Edge
p895
(dp896
g4
I2
sg5
g8
(g12
S'\x04\x00\x00\x00'
p897
tp898
Rp899
sba(iGenerate
Edge
p900
(dp901
g4
g899
sg5
I1
sba(iGenerate
Edge
p902
(dp903
g4
I1
sg5
I3
sba(iGenerate
Edge
p904
(dp905
g4
I3
sg5
I5
sba(iGenerate
Edge
p906
(dp907
g4
I5
sg5
I7
sba(iGenerate
Edge
p908
(dp909
g4
I7
sg5
I6
sba(iGenerate
Edge
p910
(dp911
g4
I6
sg5
I8
sba(iGenerate
Edge
p912
(dp913
g4
I8
sg5
I9
sba(iGenerate
Edge
p914
(dp915
g4
I9
sg5
I14
sba(iGenerate
Edge
p916
(dp917
g4
I14
sg5
I10
sba(iGenerate
Edge
p918
(dp919
g4
I10
sg5
I15
sba(iGenerate
Edge
p920
(dp921
g4
I15
sg5
I11
sba(iGenerate
Edge
p922
(dp923
g4
I11
sg5
I16
sba(iGenerate
Edge
p924
(dp925
g4
I16
sg5
I12
sba(iGenerate
Edge
p926
(dp927
g4
I12
sg5
I17
sba(iGenerate
Edge
p928
(dp929
g4
I17
sg5
I13
sba(iGenerate
Edge
p930
(dp931
g4
I13
sg5
I18
sba(iGenerate
Edge
p932
(dp933
g4
I18
sg5
I0
sbaa(lp934
(iGenerate
Edge
p935
(dp936
g4
I0
sg5
I2
sba(iGenerate
Edge
p937
(dp938
g4
I2
sg5
g8
(g12
S'\x04\x00\x00\x00'
p939
tp940
Rp941
sba(iGenerate
Edge
p942
(dp943
g4
g941
sg5
I1
sba(iGenerate
Edge
p944
(dp945
g4
I1
sg5
I3
sba(iGenerate
Edge
p946
(dp947
g4
I3
sg5
I5
sba(iGenerate
Edge
p948
(dp949
g4
I5
sg5
I7
sba(iGenerate
Edge
p950
(dp951
g4
I7
sg5
I6
sba(iGenerate
Edge
p952
(dp953
g4
I6
sg5
I8
sba(iGenerate
Edge
p954
(dp955
g4
I8
sg5
I9
sba(iGenerate
Edge
p956
(dp957
g4
I9
sg5
I14
sba(iGenerate
Edge
p958
(dp959
g4
I14
sg5
I10
sba(iGenerate
Edge
p960
(dp961
g4
I10
sg5
I15
sba(iGenerate
Edge
p962
(dp963
g4
I15
sg5
I11
sba(iGenerate
Edge
p964
(dp965
g4
I11
sg5
I16
sba(iGenerate
Edge
p966
(dp967
g4
I16
sg5
I12
sba(iGenerate
Edge
p968
(dp969
g4
I12
sg5
I17
sba(iGenerate
Edge
p970
(dp971
g4
I17
sg5
I13
sba(iGenerate
Edge
p972
(dp973
g4
I13
sg5
I18
sba(iGenerate
Edge
p974
(dp975
g4
I18
sg5
I0
sbaa(lp976
(iGenerate
Edge
p977
(dp978
g4
I0
sg5
I2
sba(iGenerate
Edge
p979
(dp980
g4
I2
sg5
g8
(g12
S'\x04\x00\x00\x00'
p981
tp982
Rp983
sba(iGenerate
Edge
p984
(dp985
g4
g983
sg5
I1
sba(iGenerate
Edge
p986
(dp987
g4
I1
sg5
I3
sba(iGenerate
Edge
p988
(dp989
g4
I3
sg5
I5
sba(iGenerate
Edge
p990
(dp991
g4
I5
sg5
I7
sba(iGenerate
Edge
p992
(dp993
g4
I7
sg5
I6
sba(iGenerate
Edge
p994
(dp995
g4
I6
sg5
I8
sba(iGenerate
Edge
p996
(dp997
g4
I8
sg5
I9
sba(iGenerate
Edge
p998
(dp999
g4
I9
sg5
I14
sba(iGenerate
Edge
p1000
(dp1001
g4
I14
sg5
I10
sba(iGenerate
Edge
p1002
(dp1003
g4
I10
sg5
I15
sba(iGenerate
Edge
p1004
(dp1005
g4
I15
sg5
I11
sba(iGenerate
Edge
p1006
(dp1007
g4
I11
sg5
I16
sba(iGenerate
Edge
p1008
(dp1009
g4
I16
sg5
I12
sba(iGenerate
Edge
p1010
(dp1011
g4
I12
sg5
I17
sba(iGenerate
Edge
p1012
(dp1013
g4
I17
sg5
I13
sba(iGenerate
Edge
p1014
(dp1015
g4
I13
sg5
I18
sba(iGenerate
Edge
p1016
(dp1017
g4
I18
sg5
I0
sbaa(lp1018
(iGenerate
Edge
p1019
(dp1020
g4
I0
sg5
I2
sba(iGenerate
Edge
p1021
(dp1022
g4
I2
sg5
g8
(g12
S'\x04\x00\x00\x00'
p1023
tp1024
Rp1025
sba(iGenerate
Edge
p1026
(dp1027
g4
g1025
sg5
I1
sba(iGenerate
Edge
p1028
(dp1029
g4
I1
sg5
I3
sba(iGenerate
Edge
p1030
(dp1031
g4
I3
sg5
I5
sba(iGenerate
Edge
p1032
(dp1033
g4
I5
sg5
I7
sba(iGenerate
Edge
p1034
(dp1035
g4
I7
sg5
I6
sba(iGenerate
Edge
p1036
(dp1037
g4
I6
sg5
I8
sba(iGenerate
Edge
p1038
(dp1039
g4
I8
sg5
I9
sba(iGenerate
Edge
p1040
(dp1041
g4
I9
sg5
I14
sba(iGenerate
Edge
p1042
(dp1043
g4
I14
sg5
I10
sba(iGenerate
Edge
p1044
(dp1045
g4
I10
sg5
I15
sba(iGenerate
Edge
p1046
(dp1047
g4
I15
sg5
I11
sba(iGenerate
Edge
p1048
(dp1049
g4
I11
sg5
I16
sba(iGenerate
Edge
p1050
(dp1051
g4
I16
sg5
I12
sba(iGenerate
Edge
p1052
(dp1053
g4
I12
sg5
I17
sba(iGenerate
Edge
p1054
(dp1055
g4
I17
sg5
I13
sba(iGenerate
Edge
p1056
(dp1057
g4
I13
sg5
I18
sba(iGenerate
Edge
p1058
(dp1059
g4
I18
sg5
I0
sbaa(lp1060
(iGenerate
Edge
p1061
(dp1062
g4
I0
sg5
I2
sba(iGenerate
Edge
p1063
(dp1064
g4
I2
sg5
g8
(g12
S'\x04\x00\x00\x00'
p1065
tp1066
Rp1067
sba(iGenerate
Edge
p1068
(dp1069
g4
g1067
sg5
I1
sba(iGenerate
Edge
p1070
(dp1071
g4
I1
sg5
I3
sba(iGenerate
Edge
p1072
(dp1073
g4
I3
sg5
I5
sba(iGenerate
Edge
p1074
(dp1075
g4
I5
sg5
I7
sba(iGenerate
Edge
p1076
(dp1077
g4
I7
sg5
I6
sba(iGenerate
Edge
p1078
(dp1079
g4
I6
sg5
I8
sba(iGenerate
Edge
p1080
(dp1081
g4
I8
sg5
I9
sba(iGenerate
Edge
p1082
(dp1083
g4
I9
sg5
I14
sba(iGenerate
Edge
p1084
(dp1085
g4
I14
sg5
I10
sba(iGenerate
Edge
p1086
(dp1087
g4
I10
sg5
I15
sba(iGenerate
Edge
p1088
(dp1089
g4
I15
sg5
I11
sba(iGenerate
Edge
p1090
(dp1091
g4
I11
sg5
I16
sba(iGenerate
Edge
p1092
(dp1093
g4
I16
sg5
I12
sba(iGenerate
Edge
p1094
(dp1095
g4
I12
sg5
I17
sba(iGenerate
Edge
p1096
(dp1097
g4
I17
sg5
I13
sba(iGenerate
Edge
p1098
(dp1099
g4
I13
sg5
I18
sba(iGenerate
Edge
p1100
(dp1101
g4
I18
sg5
I0
sbaa(lp1102
(iGenerate
Edge
p1103
(dp1104
g4
I0
sg5
I2
sba(iGenerate
Edge
p1105
(dp1106
g4
I2
sg5
g8
(g12
S'\x04\x00\x00\x00'
p1107
tp1108
Rp1109
sba(iGenerate
Edge
p1110
(dp1111
g4
g1109
sg5
I1
sba(iGenerate
Edge
p1112
(dp1113
g4
I1
sg5
I3
sba(iGenerate
Edge
p1114
(dp1115
g4
I3
sg5
I5
sba(iGenerate
Edge
p1116
(dp1117
g4
I5
sg5
I7
sba(iGenerate
Edge
p1118
(dp1119
g4
I7
sg5
I6
sba(iGenerate
Edge
p1120
(dp1121
g4
I6
sg5
I8
sba(iGenerate
Edge
p1122
(dp1123
g4
I8
sg5
I9
sba(iGenerate
Edge
p1124
(dp1125
g4
I9
sg5
I14
sba(iGenerate
Edge
p1126
(dp1127
g4
I14
sg5
I10
sba(iGenerate
Edge
p1128
(dp1129
g4
I10
sg5
I15
sba(iGenerate
Edge
p1130
(dp1131
g4
I15
sg5
I11
sba(iGenerate
Edge
p1132
(dp1133
g4
I11
sg5
I16
sba(iGenerate
Edge
p1134
(dp1135
g4
I16
sg5
I12
sba(iGenerate
Edge
p1136
(dp1137
g4
I12
sg5
I17
sba(iGenerate
Edge
p1138
(dp1139
g4
I17
sg5
I13
sba(iGenerate
Edge
p1140
(dp1141
g4
I13
sg5
I18
sba(iGenerate
Edge
p1142
(dp1143
g4
I18
sg5
I0
sbaa(lp1144
(iGenerate
Edge
p1145
(dp1146
g4
I0
sg5
I2
sba(iGenerate
Edge
p1147
(dp1148
g4
I2
sg5
g8
(g12
S'\x04\x00\x00\x00'
p1149
tp1150
Rp1151
sba(iGenerate
Edge
p1152
(dp1153
g4
g1151
sg5
I1
sba(iGenerate
Edge
p1154
(dp1155
g4
I1
sg5
I3
sba(iGenerate
Edge
p1156
(dp1157
g4
I3
sg5
I5
sba(iGenerate
Edge
p1158
(dp1159
g4
I5
sg5
I7
sba(iGenerate
Edge
p1160
(dp1161
g4
I7
sg5
I6
sba(iGenerate
Edge
p1162
(dp1163
g4
I6
sg5
I8
sba(iGenerate
Edge
p1164
(dp1165
g4
I8
sg5
I9
sba(iGenerate
Edge
p1166
(dp1167
g4
I9
sg5
I14
sba(iGenerate
Edge
p1168
(dp1169
g4
I14
sg5
I10
sba(iGenerate
Edge
p1170
(dp1171
g4
I10
sg5
I15
sba(iGenerate
Edge
p1172
(dp1173
g4
I15
sg5
I11
sba(iGenerate
Edge
p1174
(dp1175
g4
I11
sg5
I16
sba(iGenerate
Edge
p1176
(dp1177
g4
I16
sg5
I12
sba(iGenerate
Edge
p1178
(dp1179
g4
I12
sg5
I17
sba(iGenerate
Edge
p1180
(dp1181
g4
I17
sg5
I13
sba(iGenerate
Edge
p1182
(dp1183
g4
I13
sg5
I18
sba(iGenerate
Edge
p1184
(dp1185
g4
I18
sg5
I0
sbaa(lp1186
(iGenerate
Edge
p1187
(dp1188
g4
I0
sg5
I2
sba(iGenerate
Edge
p1189
(dp1190
g4
I2
sg5
g8
(g12
S'\x04\x00\x00\x00'
p1191
tp1192
Rp1193
sba(iGenerate
Edge
p1194
(dp1195
g4
g1193
sg5
I1
sba(iGenerate
Edge
p1196
(dp1197
g4
I1
sg5
I3
sba(iGenerate
Edge
p1198
(dp1199
g4
I3
sg5
I5
sba(iGenerate
Edge
p1200
(dp1201
g4
I5
sg5
I7
sba(iGenerate
Edge
p1202
(dp1203
g4
I7
sg5
I6
sba(iGenerate
Edge
p1204
(dp1205
g4
I6
sg5
I8
sba(iGenerate
Edge
p1206
(dp1207
g4
I8
sg5
I9
sba(iGenerate
Edge
p1208
(dp1209
g4
I9
sg5
I14
sba(iGenerate
Edge
p1210
(dp1211
g4
I14
sg5
I10
sba(iGenerate
Edge
p1212
(dp1213
g4
I10
sg5
I15
sba(iGenerate
Edge
p1214
(dp1215
g4
I15
sg5
I11
sba(iGenerate
Edge
p1216
(dp1217
g4
I11
sg5
I16
sba(iGenerate
Edge
p1218
(dp1219
g4
I16
sg5
I12
sba(iGenerate
Edge
p1220
(dp1221
g4
I12
sg5
I17
sba(iGenerate
Edge
p1222
(dp1223
g4
I17
sg5
I13
sba(iGenerate
Edge
p1224
(dp1225
g4
I13
sg5
I18
sba(iGenerate
Edge
p1226
(dp1227
g4
I18
sg5
I0
sbaa(lp1228
(iGenerate
Edge
p1229
(dp1230
g4
I0
sg5
I2
sba(iGenerate
Edge
p1231
(dp1232
g4
I2
sg5
g8
(g12
S'\x04\x00\x00\x00'
p1233
tp1234
Rp1235
sba(iGenerate
Edge
p1236
(dp1237
g4
g1235
sg5
I1
sba(iGenerate
Edge
p1238
(dp1239
g4
I1
sg5
I3
sba(iGenerate
Edge
p1240
(dp1241
g4
I3
sg5
I5
sba(iGenerate
Edge
p1242
(dp1243
g4
I5
sg5
I7
sba(iGenerate
Edge
p1244
(dp1245
g4
I7
sg5
I6
sba(iGenerate
Edge
p1246
(dp1247
g4
I6
sg5
I8
sba(iGenerate
Edge
p1248
(dp1249
g4
I8
sg5
I9
sba(iGenerate
Edge
p1250
(dp1251
g4
I9
sg5
I14
sba(iGenerate
Edge
p1252
(dp1253
g4
I14
sg5
I10
sba(iGenerate
Edge
p1254
(dp1255
g4
I10
sg5
I15
sba(iGenerate
Edge
p1256
(dp1257
g4
I15
sg5
I11
sba(iGenerate
Edge
p1258
(dp1259
g4
I11
sg5
I16
sba(iGenerate
Edge
p1260
(dp1261
g4
I16
sg5
I12
sba(iGenerate
Edge
p1262
(dp1263
g4
I12
sg5
I17
sba(iGenerate
Edge
p1264
(dp1265
g4
I17
sg5
I13
sba(iGenerate
Edge
p1266
(dp1267
g4
I13
sg5
I18
sba(iGenerate
Edge
p1268
(dp1269
g4
I18
sg5
I0
sbaa(lp1270
(iGenerate
Edge
p1271
(dp1272
g4
I0
sg5
I2
sba(iGenerate
Edge
p1273
(dp1274
g4
I2
sg5
g8
(g12
S'\x04\x00\x00\x00'
p1275
tp1276
Rp1277
sba(iGenerate
Edge
p1278
(dp1279
g4
g1277
sg5
I1
sba(iGenerate
Edge
p1280
(dp1281
g4
I1
sg5
I3
sba(iGenerate
Edge
p1282
(dp1283
g4
I3
sg5
I5
sba(iGenerate
Edge
p1284
(dp1285
g4
I5
sg5
I7
sba(iGenerate
Edge
p1286
(dp1287
g4
I7
sg5
I6
sba(iGenerate
Edge
p1288
(dp1289
g4
I6
sg5
I8
sba(iGenerate
Edge
p1290
(dp1291
g4
I8
sg5
I9
sba(iGenerate
Edge
p1292
(dp1293
g4
I9
sg5
I14
sba(iGenerate
Edge
p1294
(dp1295
g4
I14
sg5
I10
sba(iGenerate
Edge
p1296
(dp1297
g4
I10
sg5
I15
sba(iGenerate
Edge
p1298
(dp1299
g4
I15
sg5
I11
sba(iGenerate
Edge
p1300
(dp1301
g4
I11
sg5
I16
sba(iGenerate
Edge
p1302
(dp1303
g4
I16
sg5
I12
sba(iGenerate
Edge
p1304
(dp1305
g4
I12
sg5
I17
sba(iGenerate
Edge
p1306
(dp1307
g4
I17
sg5
I13
sba(iGenerate
Edge
p1308
(dp1309
g4
I13
sg5
I18
sba(iGenerate
Edge
p1310
(dp1311
g4
I18
sg5
I0
sbaa(lp1312
(iGenerate
Edge
p1313
(dp1314
g4
I0
sg5
I2
sba(iGenerate
Edge
p1315
(dp1316
g4
I2
sg5
g8
(g12
S'\x04\x00\x00\x00'
p1317
tp1318
Rp1319
sba(iGenerate
Edge
p1320
(dp1321
g4
g1319
sg5
I1
sba(iGenerate
Edge
p1322
(dp1323
g4
I1
sg5
I3
sba(iGenerate
Edge
p1324
(dp1325
g4
I3
sg5
I5
sba(iGenerate
Edge
p1326
(dp1327
g4
I5
sg5
I7
sba(iGenerate
Edge
p1328
(dp1329
g4
I7
sg5
I6
sba(iGenerate
Edge
p1330
(dp1331
g4
I6
sg5
I8
sba(iGenerate
Edge
p1332
(dp1333
g4
I8
sg5
I9
sba(iGenerate
Edge
p1334
(dp1335
g4
I9
sg5
I14
sba(iGenerate
Edge
p1336
(dp1337
g4
I14
sg5
I10
sba(iGenerate
Edge
p1338
(dp1339
g4
I10
sg5
I15
sba(iGenerate
Edge
p1340
(dp1341
g4
I15
sg5
I11
sba(iGenerate
Edge
p1342
(dp1343
g4
I11
sg5
I16
sba(iGenerate
Edge
p1344
(dp1345
g4
I16
sg5
I12
sba(iGenerate
Edge
p1346
(dp1347
g4
I12
sg5
I17
sba(iGenerate
Edge
p1348
(dp1349
g4
I17
sg5
I13
sba(iGenerate
Edge
p1350
(dp1351
g4
I13
sg5
I18
sba(iGenerate
Edge
p1352
(dp1353
g4
I18
sg5
I0
sbaa(lp1354
(iGenerate
Edge
p1355
(dp1356
g4
I0
sg5
I2
sba(iGenerate
Edge
p1357
(dp1358
g4
I2
sg5
g8
(g12
S'\x04\x00\x00\x00'
p1359
tp1360
Rp1361
sba(iGenerate
Edge
p1362
(dp1363
g4
g1361
sg5
I1
sba(iGenerate
Edge
p1364
(dp1365
g4
I1
sg5
I3
sba(iGenerate
Edge
p1366
(dp1367
g4
I3
sg5
I5
sba(iGenerate
Edge
p1368
(dp1369
g4
I5
sg5
I7
sba(iGenerate
Edge
p1370
(dp1371
g4
I7
sg5
I6
sba(iGenerate
Edge
p1372
(dp1373
g4
I6
sg5
I8
sba(iGenerate
Edge
p1374
(dp1375
g4
I8
sg5
I9
sba(iGenerate
Edge
p1376
(dp1377
g4
I9
sg5
I14
sba(iGenerate
Edge
p1378
(dp1379
g4
I14
sg5
I10
sba(iGenerate
Edge
p1380
(dp1381
g4
I10
sg5
I15
sba(iGenerate
Edge
p1382
(dp1383
g4
I15
sg5
I11
sba(iGenerate
Edge
p1384
(dp1385
g4
I11
sg5
I16
sba(iGenerate
Edge
p1386
(dp1387
g4
I16
sg5
I12
sba(iGenerate
Edge
p1388
(dp1389
g4
I12
sg5
I17
sba(iGenerate
Edge
p1390
(dp1391
g4
I17
sg5
I13
sba(iGenerate
Edge
p1392
(dp1393
g4
I13
sg5
I18
sba(iGenerate
Edge
p1394
(dp1395
g4
I18
sg5
I0
sbaa(lp1396
(iGenerate
Edge
p1397
(dp1398
g4
I0
sg5
I2
sba(iGenerate
Edge
p1399
(dp1400
g4
I2
sg5
g8
(g12
S'\x04\x00\x00\x00'
p1401
tp1402
Rp1403
sba(iGenerate
Edge
p1404
(dp1405
g4
g1403
sg5
I1
sba(iGenerate
Edge
p1406
(dp1407
g4
I1
sg5
I3
sba(iGenerate
Edge
p1408
(dp1409
g4
I3
sg5
I5
sba(iGenerate
Edge
p1410
(dp1411
g4
I5
sg5
I7
sba(iGenerate
Edge
p1412
(dp1413
g4
I7
sg5
I6
sba(iGenerate
Edge
p1414
(dp1415
g4
I6
sg5
I8
sba(iGenerate
Edge
p1416
(dp1417
g4
I8
sg5
I9
sba(iGenerate
Edge
p1418
(dp1419
g4
I9
sg5
I14
sba(iGenerate
Edge
p1420
(dp1421
g4
I14
sg5
I10
sba(iGenerate
Edge
p1422
(dp1423
g4
I10
sg5
I15
sba(iGenerate
Edge
p1424
(dp1425
g4
I15
sg5
I11
sba(iGenerate
Edge
p1426
(dp1427
g4
I11
sg5
I16
sba(iGenerate
Edge
p1428
(dp1429
g4
I16
sg5
I12
sba(iGenerate
Edge
p1430
(dp1431
g4
I12
sg5
I17
sba(iGenerate
Edge
p1432
(dp1433
g4
I17
sg5
I13
sba(iGenerate
Edge
p1434
(dp1435
g4
I13
sg5
I18
sba(iGenerate
Edge
p1436
(dp1437
g4
I18
sg5
I0
sbaa(lp1438
(iGenerate
Edge
p1439
(dp1440
g4
I0
sg5
I2
sba(iGenerate
Edge
p1441
(dp1442
g4
I2
sg5
g8
(g12
S'\x04\x00\x00\x00'
p1443
tp1444
Rp1445
sba(iGenerate
Edge
p1446
(dp1447
g4
g1445
sg5
I1
sba(iGenerate
Edge
p1448
(dp1449
g4
I1
sg5
I3
sba(iGenerate
Edge
p1450
(dp1451
g4
I3
sg5
I5
sba(iGenerate
Edge
p1452
(dp1453
g4
I5
sg5
I7
sba(iGenerate
Edge
p1454
(dp1455
g4
I7
sg5
I6
sba(iGenerate
Edge
p1456
(dp1457
g4
I6
sg5
I8
sba(iGenerate
Edge
p1458
(dp1459
g4
I8
sg5
I9
sba(iGenerate
Edge
p1460
(dp1461
g4
I9
sg5
I14
sba(iGenerate
Edge
p1462
(dp1463
g4
I14
sg5
I10
sba(iGenerate
Edge
p1464
(dp1465
g4
I10
sg5
I15
sba(iGenerate
Edge
p1466
(dp1467
g4
I15
sg5
I11
sba(iGenerate
Edge
p1468
(dp1469
g4
I11
sg5
I16
sba(iGenerate
Edge
p1470
(dp1471
g4
I16
sg5
I12
sba(iGenerate
Edge
p1472
(dp1473
g4
I12
sg5
I17
sba(iGenerate
Edge
p1474
(dp1475
g4
I17
sg5
I13
sba(iGenerate
Edge
p1476
(dp1477
g4
I13
sg5
I18
sba(iGenerate
Edge
p1478
(dp1479
g4
I18
sg5
I0
sbaa(lp1480
(iGenerate
Edge
p1481
(dp1482
g4
I0
sg5
I2
sba(iGenerate
Edge
p1483
(dp1484
g4
I2
sg5
g8
(g12
S'\x04\x00\x00\x00'
p1485
tp1486
Rp1487
sba(iGenerate
Edge
p1488
(dp1489
g4
g1487
sg5
I1
sba(iGenerate
Edge
p1490
(dp1491
g4
I1
sg5
I3
sba(iGenerate
Edge
p1492
(dp1493
g4
I3
sg5
I5
sba(iGenerate
Edge
p1494
(dp1495
g4
I5
sg5
I7
sba(iGenerate
Edge
p1496
(dp1497
g4
I7
sg5
I6
sba(iGenerate
Edge
p1498
(dp1499
g4
I6
sg5
I8
sba(iGenerate
Edge
p1500
(dp1501
g4
I8
sg5
I9
sba(iGenerate
Edge
p1502
(dp1503
g4
I9
sg5
I14
sba(iGenerate
Edge
p1504
(dp1505
g4
I14
sg5
I10
sba(iGenerate
Edge
p1506
(dp1507
g4
I10
sg5
I15
sba(iGenerate
Edge
p1508
(dp1509
g4
I15
sg5
I11
sba(iGenerate
Edge
p1510
(dp1511
g4
I11
sg5
I16
sba(iGenerate
Edge
p1512
(dp1513
g4
I16
sg5
I12
sba(iGenerate
Edge
p1514
(dp1515
g4
I12
sg5
I17
sba(iGenerate
Edge
p1516
(dp1517
g4
I17
sg5
I13
sba(iGenerate
Edge
p1518
(dp1519
g4
I13
sg5
I18
sba(iGenerate
Edge
p1520
(dp1521
g4
I18
sg5
I0
sbaa(lp1522
(iGenerate
Edge
p1523
(dp1524
g4
I0
sg5
I2
sba(iGenerate
Edge
p1525
(dp1526
g4
I2
sg5
g8
(g12
S'\x04\x00\x00\x00'
p1527
tp1528
Rp1529
sba(iGenerate
Edge
p1530
(dp1531
g4
g1529
sg5
I1
sba(iGenerate
Edge
p1532
(dp1533
g4
I1
sg5
I3
sba(iGenerate
Edge
p1534
(dp1535
g4
I3
sg5
I5
sba(iGenerate
Edge
p1536
(dp1537
g4
I5
sg5
I7
sba(iGenerate
Edge
p1538
(dp1539
g4
I7
sg5
I6
sba(iGenerate
Edge
p1540
(dp1541
g4
I6
sg5
I8
sba(iGenerate
Edge
p1542
(dp1543
g4
I8
sg5
I9
sba(iGenerate
Edge
p1544
(dp1545
g4
I9
sg5
I14
sba(iGenerate
Edge
p1546
(dp1547
g4
I14
sg5
I10
sba(iGenerate
Edge
p1548
(dp1549
g4
I10
sg5
I15
sba(iGenerate
Edge
p1550
(dp1551
g4
I15
sg5
I11
sba(iGenerate
Edge
p1552
(dp1553
g4
I11
sg5
I16
sba(iGenerate
Edge
p1554
(dp1555
g4
I16
sg5
I12
sba(iGenerate
Edge
p1556
(dp1557
g4
I12
sg5
I17
sba(iGenerate
Edge
p1558
(dp1559
g4
I17
sg5
I13
sba(iGenerate
Edge
p1560
(dp1561
g4
I13
sg5
I18
sba(iGenerate
Edge
p1562
(dp1563
g4
I18
sg5
I0
sbaa(lp1564
(iGenerate
Edge
p1565
(dp1566
g4
I0
sg5
I2
sba(iGenerate
Edge
p1567
(dp1568
g4
I2
sg5
g8
(g12
S'\x04\x00\x00\x00'
p1569
tp1570
Rp1571
sba(iGenerate
Edge
p1572
(dp1573
g4
g1571
sg5
I1
sba(iGenerate
Edge
p1574
(dp1575
g4
I1
sg5
I3
sba(iGenerate
Edge
p1576
(dp1577
g4
I3
sg5
I5
sba(iGenerate
Edge
p1578
(dp1579
g4
I5
sg5
I7
sba(iGenerate
Edge
p1580
(dp1581
g4
I7
sg5
I6
sba(iGenerate
Edge
p1582
(dp1583
g4
I6
sg5
I8
sba(iGenerate
Edge
p1584
(dp1585
g4
I8
sg5
I9
sba(iGenerate
Edge
p1586
(dp1587
g4
I9
sg5
I14
sba(iGenerate
Edge
p1588
(dp1589
g4
I14
sg5
I10
sba(iGenerate
Edge
p1590
(dp1591
g4
I10
sg5
I15
sba(iGenerate
Edge
p1592
(dp1593
g4
I15
sg5
I11
sba(iGenerate
Edge
p1594
(dp1595
g4
I11
sg5
I16
sba(iGenerate
Edge
p1596
(dp1597
g4
I16
sg5
I12
sba(iGenerate
Edge
p1598
(dp1599
g4
I12
sg5
I17
sba(iGenerate
Edge
p1600
(dp1601
g4
I17
sg5
I13
sba(iGenerate
Edge
p1602
(dp1603
g4
I13
sg5
I18
sba(iGenerate
Edge
p1604
(dp1605
g4
I18
sg5
I0
sbaa(lp1606
(iGenerate
Edge
p1607
(dp1608
g4
I0
sg5
I2
sba(iGenerate
Edge
p1609
(dp1610
g4
I2
sg5
g8
(g12
S'\x04\x00\x00\x00'
p1611
tp1612
Rp1613
sba(iGenerate
Edge
p1614
(dp1615
g4
g1613
sg5
I1
sba(iGenerate
Edge
p1616
(dp1617
g4
I1
sg5
I3
sba(iGenerate
Edge
p1618
(dp1619
g4
I3
sg5
I5
sba(iGenerate
Edge
p1620
(dp1621
g4
I5
sg5
I7
sba(iGenerate
Edge
p1622
(dp1623
g4
I7
sg5
I6
sba(iGenerate
Edge
p1624
(dp1625
g4
I6
sg5
I8
sba(iGenerate
Edge
p1626
(dp1627
g4
I8
sg5
I9
sba(iGenerate
Edge
p1628
(dp1629
g4
I9
sg5
I14
sba(iGenerate
Edge
p1630
(dp1631
g4
I14
sg5
I10
sba(iGenerate
Edge
p1632
(dp1633
g4
I10
sg5
I15
sba(iGenerate
Edge
p1634
(dp1635
g4
I15
sg5
I11
sba(iGenerate
Edge
p1636
(dp1637
g4
I11
sg5
I16
sba(iGenerate
Edge
p1638
(dp1639
g4
I16
sg5
I12
sba(iGenerate
Edge
p1640
(dp1641
g4
I12
sg5
I17
sba(iGenerate
Edge
p1642
(dp1643
g4
I17
sg5
I13
sba(iGenerate
Edge
p1644
(dp1645
g4
I13
sg5
I18
sba(iGenerate
Edge
p1646
(dp1647
g4
I18
sg5
I0
sbaa(lp1648
(iGenerate
Edge
p1649
(dp1650
g4
I0
sg5
I2
sba(iGenerate
Edge
p1651
(dp1652
g4
I2
sg5
g8
(g12
S'\x04\x00\x00\x00'
p1653
tp1654
Rp1655
sba(iGenerate
Edge
p1656
(dp1657
g4
g1655
sg5
I1
sba(iGenerate
Edge
p1658
(dp1659
g4
I1
sg5
I3
sba(iGenerate
Edge
p1660
(dp1661
g4
I3
sg5
I5
sba(iGenerate
Edge
p1662
(dp1663
g4
I5
sg5
I7
sba(iGenerate
Edge
p1664
(dp1665
g4
I7
sg5
I6
sba(iGenerate
Edge
p1666
(dp1667
g4
I6
sg5
I8
sba(iGenerate
Edge
p1668
(dp1669
g4
I8
sg5
I9
sba(iGenerate
Edge
p1670
(dp1671
g4
I9
sg5
I14
sba(iGenerate
Edge
p1672
(dp1673
g4
I14
sg5
I10
sba(iGenerate
Edge
p1674
(dp1675
g4
I10
sg5
I15
sba(iGenerate
Edge
p1676
(dp1677
g4
I15
sg5
I11
sba(iGenerate
Edge
p1678
(dp1679
g4
I11
sg5
I16
sba(iGenerate
Edge
p1680
(dp1681
g4
I16
sg5
I12
sba(iGenerate
Edge
p1682
(dp1683
g4
I12
sg5
I17
sba(iGenerate
Edge
p1684
(dp1685
g4
I17
sg5
I13
sba(iGenerate
Edge
p1686
(dp1687
g4
I13
sg5
I18
sba(iGenerate
Edge
p1688
(dp1689
g4
I18
sg5
I0
sbaa(lp1690
(iGenerate
Edge
p1691
(dp1692
g4
I0
sg5
I2
sba(iGenerate
Edge
p1693
(dp1694
g4
I2
sg5
g8
(g12
S'\x04\x00\x00\x00'
p1695
tp1696
Rp1697
sba(iGenerate
Edge
p1698
(dp1699
g4
g1697
sg5
I1
sba(iGenerate
Edge
p1700
(dp1701
g4
I1
sg5
I3
sba(iGenerate
Edge
p1702
(dp1703
g4
I3
sg5
I5
sba(iGenerate
Edge
p1704
(dp1705
g4
I5
sg5
I7
sba(iGenerate
Edge
p1706
(dp1707
g4
I7
sg5
I6
sba(iGenerate
Edge
p1708
(dp1709
g4
I6
sg5
I8
sba(iGenerate
Edge
p1710
(dp1711
g4
I8
sg5
I9
sba(iGenerate
Edge
p1712
(dp1713
g4
I9
sg5
I14
sba(iGenerate
Edge
p1714
(dp1715
g4
I14
sg5
I10
sba(iGenerate
Edge
p1716
(dp1717
g4
I10
sg5
I15
sba(iGenerate
Edge
p1718
(dp1719
g4
I15
sg5
I11
sba(iGenerate
Edge
p1720
(dp1721
g4
I11
sg5
I16
sba(iGenerate
Edge
p1722
(dp1723
g4
I16
sg5
I12
sba(iGenerate
Edge
p1724
(dp1725
g4
I12
sg5
I17
sba(iGenerate
Edge
p1726
(dp1727
g4
I17
sg5
I13
sba(iGenerate
Edge
p1728
(dp1729
g4
I13
sg5
I18
sba(iGenerate
Edge
p1730
(dp1731
g4
I18
sg5
I0
sbaa(lp1732
(iGenerate
Edge
p1733
(dp1734
g4
I0
sg5
I2
sba(iGenerate
Edge
p1735
(dp1736
g4
I2
sg5
g8
(g12
S'\x04\x00\x00\x00'
p1737
tp1738
Rp1739
sba(iGenerate
Edge
p1740
(dp1741
g4
g1739
sg5
I1
sba(iGenerate
Edge
p1742
(dp1743
g4
I1
sg5
I3
sba(iGenerate
Edge
p1744
(dp1745
g4
I3
sg5
I5
sba(iGenerate
Edge
p1746
(dp1747
g4
I5
sg5
I7
sba(iGenerate
Edge
p1748
(dp1749
g4
I7
sg5
I6
sba(iGenerate
Edge
p1750
(dp1751
g4
I6
sg5
I8
sba(iGenerate
Edge
p1752
(dp1753
g4
I8
sg5
I9
sba(iGenerate
Edge
p1754
(dp1755
g4
I9
sg5
I14
sba(iGenerate
Edge
p1756
(dp1757
g4
I14
sg5
I10
sba(iGenerate
Edge
p1758
(dp1759
g4
I10
sg5
I15
sba(iGenerate
Edge
p1760
(dp1761
g4
I15
sg5
I11
sba(iGenerate
Edge
p1762
(dp1763
g4
I11
sg5
I16
sba(iGenerate
Edge
p1764
(dp1765
g4
I16
sg5
I12
sba(iGenerate
Edge
p1766
(dp1767
g4
I12
sg5
I17
sba(iGenerate
Edge
p1768
(dp1769
g4
I17
sg5
I13
sba(iGenerate
Edge
p1770
(dp1771
g4
I13
sg5
I18
sba(iGenerate
Edge
p1772
(dp1773
g4
I18
sg5
I0
sbaa(lp1774
(iGenerate
Edge
p1775
(dp1776
g4
I0
sg5
I2
sba(iGenerate
Edge
p1777
(dp1778
g4
I2
sg5
g8
(g12
S'\x04\x00\x00\x00'
p1779
tp1780
Rp1781
sba(iGenerate
Edge
p1782
(dp1783
g4
g1781
sg5
I1
sba(iGenerate
Edge
p1784
(dp1785
g4
I1
sg5
I3
sba(iGenerate
Edge
p1786
(dp1787
g4
I3
sg5
I5
sba(iGenerate
Edge
p1788
(dp1789
g4
I5
sg5
I7
sba(iGenerate
Edge
p1790
(dp1791
g4
I7
sg5
I6
sba(iGenerate
Edge
p1792
(dp1793
g4
I6
sg5
I8
sba(iGenerate
Edge
p1794
(dp1795
g4
I8
sg5
I9
sba(iGenerate
Edge
p1796
(dp1797
g4
I9
sg5
I14
sba(iGenerate
Edge
p1798
(dp1799
g4
I14
sg5
I10
sba(iGenerate
Edge
p1800
(dp1801
g4
I10
sg5
I15
sba(iGenerate
Edge
p1802
(dp1803
g4
I15
sg5
I11
sba(iGenerate
Edge
p1804
(dp1805
g4
I11
sg5
I16
sba(iGenerate
Edge
p1806
(dp1807
g4
I16
sg5
I12
sba(iGenerate
Edge
p1808
(dp1809
g4
I12
sg5
I17
sba(iGenerate
Edge
p1810
(dp1811
g4
I17
sg5
I13
sba(iGenerate
Edge
p1812
(dp1813
g4
I13
sg5
I18
sba(iGenerate
Edge
p1814
(dp1815
g4
I18
sg5
I0
sbaa(lp1816
(iGenerate
Edge
p1817
(dp1818
g4
I0
sg5
I2
sba(iGenerate
Edge
p1819
(dp1820
g4
I2
sg5
g8
(g12
S'\x04\x00\x00\x00'
p1821
tp1822
Rp1823
sba(iGenerate
Edge
p1824
(dp1825
g4
g1823
sg5
I1
sba(iGenerate
Edge
p1826
(dp1827
g4
I1
sg5
I3
sba(iGenerate
Edge
p1828
(dp1829
g4
I3
sg5
I5
sba(iGenerate
Edge
p1830
(dp1831
g4
I5
sg5
I7
sba(iGenerate
Edge
p1832
(dp1833
g4
I7
sg5
I6
sba(iGenerate
Edge
p1834
(dp1835
g4
I6
sg5
I8
sba(iGenerate
Edge
p1836
(dp1837
g4
I8
sg5
I9
sba(iGenerate
Edge
p1838
(dp1839
g4
I9
sg5
I14
sba(iGenerate
Edge
p1840
(dp1841
g4
I14
sg5
I10
sba(iGenerate
Edge
p1842
(dp1843
g4
I10
sg5
I15
sba(iGenerate
Edge
p1844
(dp1845
g4
I15
sg5
I11
sba(iGenerate
Edge
p1846
(dp1847
g4
I11
sg5
I16
sba(iGenerate
Edge
p1848
(dp1849
g4
I16
sg5
I12
sba(iGenerate
Edge
p1850
(dp1851
g4
I12
sg5
I17
sba(iGenerate
Edge
p1852
(dp1853
g4
I17
sg5
I13
sba(iGenerate
Edge
p1854
(dp1855
g4
I13
sg5
I18
sba(iGenerate
Edge
p1856
(dp1857
g4
I18
sg5
I0
sbaa(lp1858
(iGenerate
Edge
p1859
(dp1860
g4
I0
sg5
I2
sba(iGenerate
Edge
p1861
(dp1862
g4
I2
sg5
g8
(g12
S'\x04\x00\x00\x00'
p1863
tp1864
Rp1865
sba(iGenerate
Edge
p1866
(dp1867
g4
g1865
sg5
I1
sba(iGenerate
Edge
p1868
(dp1869
g4
I1
sg5
I3
sba(iGenerate
Edge
p1870
(dp1871
g4
I3
sg5
I5
sba(iGenerate
Edge
p1872
(dp1873
g4
I5
sg5
I7
sba(iGenerate
Edge
p1874
(dp1875
g4
I7
sg5
I6
sba(iGenerate
Edge
p1876
(dp1877
g4
I6
sg5
I8
sba(iGenerate
Edge
p1878
(dp1879
g4
I8
sg5
I9
sba(iGenerate
Edge
p1880
(dp1881
g4
I9
sg5
I14
sba(iGenerate
Edge
p1882
(dp1883
g4
I14
sg5
I10
sba(iGenerate
Edge
p1884
(dp1885
g4
I10
sg5
I15
sba(iGenerate
Edge
p1886
(dp1887
g4
I15
sg5
I11
sba(iGenerate
Edge
p1888
(dp1889
g4
I11
sg5
I16
sba(iGenerate
Edge
p1890
(dp1891
g4
I16
sg5
I12
sba(iGenerate
Edge
p1892
(dp1893
g4
I12
sg5
I17
sba(iGenerate
Edge
p1894
(dp1895
g4
I17
sg5
I13
sba(iGenerate
Edge
p1896
(dp1897
g4
I13
sg5
I18
sba(iGenerate
Edge
p1898
(dp1899
g4
I18
sg5
I0
sbaa(lp1900
(iGenerate
Edge
p1901
(dp1902
g4
I0
sg5
I2
sba(iGenerate
Edge
p1903
(dp1904
g4
I2
sg5
g8
(g12
S'\x04\x00\x00\x00'
p1905
tp1906
Rp1907
sba(iGenerate
Edge
p1908
(dp1909
g4
g1907
sg5
I1
sba(iGenerate
Edge
p1910
(dp1911
g4
I1
sg5
I3
sba(iGenerate
Edge
p1912
(dp1913
g4
I3
sg5
I5
sba(iGenerate
Edge
p1914
(dp1915
g4
I5
sg5
I7
sba(iGenerate
Edge
p1916
(dp1917
g4
I7
sg5
I6
sba(iGenerate
Edge
p1918
(dp1919
g4
I6
sg5
I8
sba(iGenerate
Edge
p1920
(dp1921
g4
I8
sg5
I9
sba(iGenerate
Edge
p1922
(dp1923
g4
I9
sg5
I14
sba(iGenerate
Edge
p1924
(dp1925
g4
I14
sg5
I10
sba(iGenerate
Edge
p1926
(dp1927
g4
I10
sg5
I15
sba(iGenerate
Edge
p1928
(dp1929
g4
I15
sg5
I11
sba(iGenerate
Edge
p1930
(dp1931
g4
I11
sg5
I16
sba(iGenerate
Edge
p1932
(dp1933
g4
I16
sg5
I12
sba(iGenerate
Edge
p1934
(dp1935
g4
I12
sg5
I17
sba(iGenerate
Edge
p1936
(dp1937
g4
I17
sg5
I13
sba(iGenerate
Edge
p1938
(dp1939
g4
I13
sg5
I18
sba(iGenerate
Edge
p1940
(dp1941
g4
I18
sg5
I0
sbaa(lp1942
(iGenerate
Edge
p1943
(dp1944
g4
I0
sg5
I2
sba(iGenerate
Edge
p1945
(dp1946
g4
I2
sg5
g8
(g12
S'\x04\x00\x00\x00'
p1947
tp1948
Rp1949
sba(iGenerate
Edge
p1950
(dp1951
g4
g1949
sg5
I1
sba(iGenerate
Edge
p1952
(dp1953
g4
I1
sg5
I3
sba(iGenerate
Edge
p1954
(dp1955
g4
I3
sg5
I5
sba(iGenerate
Edge
p1956
(dp1957
g4
I5
sg5
I7
sba(iGenerate
Edge
p1958
(dp1959
g4
I7
sg5
I6
sba(iGenerate
Edge
p1960
(dp1961
g4
I6
sg5
I8
sba(iGenerate
Edge
p1962
(dp1963
g4
I8
sg5
I9
sba(iGenerate
Edge
p1964
(dp1965
g4
I9
sg5
I14
sba(iGenerate
Edge
p1966
(dp1967
g4
I14
sg5
I10
sba(iGenerate
Edge
p1968
(dp1969
g4
I10
sg5
I15
sba(iGenerate
Edge
p1970
(dp1971
g4
I15
sg5
I11
sba(iGenerate
Edge
p1972
(dp1973
g4
I11
sg5
I16
sba(iGenerate
Edge
p1974
(dp1975
g4
I16
sg5
I12
sba(iGenerate
Edge
p1976
(dp1977
g4
I12
sg5
I17
sba(iGenerate
Edge
p1978
(dp1979
g4
I17
sg5
I13
sba(iGenerate
Edge
p1980
(dp1981
g4
I13
sg5
I18
sba(iGenerate
Edge
p1982
(dp1983
g4
I18
sg5
I0
sbaa(lp1984
(iGenerate
Edge
p1985
(dp1986
g4
I0
sg5
I2
sba(iGenerate
Edge
p1987
(dp1988
g4
I2
sg5
g8
(g12
S'\x04\x00\x00\x00'
p1989
tp1990
Rp1991
sba(iGenerate
Edge
p1992
(dp1993
g4
g1991
sg5
I1
sba(iGenerate
Edge
p1994
(dp1995
g4
I1
sg5
I3
sba(iGenerate
Edge
p1996
(dp1997
g4
I3
sg5
I5
sba(iGenerate
Edge
p1998
(dp1999
g4
I5
sg5
I7
sba(iGenerate
Edge
p2000
(dp2001
g4
I7
sg5
I6
sba(iGenerate
Edge
p2002
(dp2003
g4
I6
sg5
I8
sba(iGenerate
Edge
p2004
(dp2005
g4
I8
sg5
I9
sba(iGenerate
Edge
p2006
(dp2007
g4
I9
sg5
I14
sba(iGenerate
Edge
p2008
(dp2009
g4
I14
sg5
I10
sba(iGenerate
Edge
p2010
(dp2011
g4
I10
sg5
I15
sba(iGenerate
Edge
p2012
(dp2013
g4
I15
sg5
I11
sba(iGenerate
Edge
p2014
(dp2015
g4
I11
sg5
I16
sba(iGenerate
Edge
p2016
(dp2017
g4
I16
sg5
I12
sba(iGenerate
Edge
p2018
(dp2019
g4
I12
sg5
I17
sba(iGenerate
Edge
p2020
(dp2021
g4
I17
sg5
I13
sba(iGenerate
Edge
p2022
(dp2023
g4
I13
sg5
I18
sba(iGenerate
Edge
p2024
(dp2025
g4
I18
sg5
I0
sbaa(lp2026
(iGenerate
Edge
p2027
(dp2028
g4
I0
sg5
I2
sba(iGenerate
Edge
p2029
(dp2030
g4
I2
sg5
g8
(g12
S'\x04\x00\x00\x00'
p2031
tp2032
Rp2033
sba(iGenerate
Edge
p2034
(dp2035
g4
g2033
sg5
I1
sba(iGenerate
Edge
p2036
(dp2037
g4
I1
sg5
I3
sba(iGenerate
Edge
p2038
(dp2039
g4
I3
sg5
I5
sba(iGenerate
Edge
p2040
(dp2041
g4
I5
sg5
I7
sba(iGenerate
Edge
p2042
(dp2043
g4
I7
sg5
I6
sba(iGenerate
Edge
p2044
(dp2045
g4
I6
sg5
I8
sba(iGenerate
Edge
p2046
(dp2047
g4
I8
sg5
I9
sba(iGenerate
Edge
p2048
(dp2049
g4
I9
sg5
I14
sba(iGenerate
Edge
p2050
(dp2051
g4
I14
sg5
I10
sba(iGenerate
Edge
p2052
(dp2053
g4
I10
sg5
I15
sba(iGenerate
Edge
p2054
(dp2055
g4
I15
sg5
I11
sba(iGenerate
Edge
p2056
(dp2057
g4
I11
sg5
I16
sba(iGenerate
Edge
p2058
(dp2059
g4
I16
sg5
I12
sba(iGenerate
Edge
p2060
(dp2061
g4
I12
sg5
I17
sba(iGenerate
Edge
p2062
(dp2063
g4
I17
sg5
I13
sba(iGenerate
Edge
p2064
(dp2065
g4
I13
sg5
I18
sba(iGenerate
Edge
p2066
(dp2067
g4
I18
sg5
I0
sbaa(lp2068
(iGenerate
Edge
p2069
(dp2070
g4
I0
sg5
I2
sba(iGenerate
Edge
p2071
(dp2072
g4
I2
sg5
g8
(g12
S'\x04\x00\x00\x00'
p2073
tp2074
Rp2075
sba(iGenerate
Edge
p2076
(dp2077
g4
g2075
sg5
I1
sba(iGenerate
Edge
p2078
(dp2079
g4
I1
sg5
I3
sba(iGenerate
Edge
p2080
(dp2081
g4
I3
sg5
I5
sba(iGenerate
Edge
p2082
(dp2083
g4
I5
sg5
I7
sba(iGenerate
Edge
p2084
(dp2085
g4
I7
sg5
I6
sba(iGenerate
Edge
p2086
(dp2087
g4
I6
sg5
I8
sba(iGenerate
Edge
p2088
(dp2089
g4
I8
sg5
I9
sba(iGenerate
Edge
p2090
(dp2091
g4
I9
sg5
I14
sba(iGenerate
Edge
p2092
(dp2093
g4
I14
sg5
I10
sba(iGenerate
Edge
p2094
(dp2095
g4
I10
sg5
I15
sba(iGenerate
Edge
p2096
(dp2097
g4
I15
sg5
I11
sba(iGenerate
Edge
p2098
(dp2099
g4
I11
sg5
I16
sba(iGenerate
Edge
p2100
(dp2101
g4
I16
sg5
I12
sba(iGenerate
Edge
p2102
(dp2103
g4
I12
sg5
I17
sba(iGenerate
Edge
p2104
(dp2105
g4
I17
sg5
I13
sba(iGenerate
Edge
p2106
(dp2107
g4
I13
sg5
I18
sba(iGenerate
Edge
p2108
(dp2109
g4
I18
sg5
I0
sbaa.