(lp0
(lp1
(iGenerate
Edge
p2
(dp3
S'a'
p4
I0
sS'b'
p5
I2
sba(iGenerate
Edge
p6
(dp7
g4
I2
sg5
cnumpy.core.multiarray
scalar
p8
(cnumpy
dtype
p9
(S'i4'
p10
I0
I1
tp11
Rp12
(I3
S'<'
p13
NNNI-1
I-1
I0
tp14
bS'\x05\x00\x00\x00'
p15
tp16
Rp17
sba(iGenerate
Edge
p18
(dp19
g4
g17
sg5
I1
sba(iGenerate
Edge
p20
(dp21
g4
I1
sg5
I4
sba(iGenerate
Edge
p22
(dp23
g4
I4
sg5
I3
sba(iGenerate
Edge
p24
(dp25
g4
I3
sg5
I0
sbaa(lp26
(iGenerate
Edge
p27
(dp28
g4
I0
sg5
I2
sba(iGenerate
Edge
p29
(dp30
g4
I2
sg5
g8
(g12
S'\x05\x00\x00\x00'
p31
tp32
Rp33
sba(iGenerate
Edge
p34
(dp35
g4
g33
sg5
I1
sba(iGenerate
Edge
p36
(dp37
g4
I1
sg5
I4
sba(iGenerate
Edge
p38
(dp39
g4
I4
sg5
I3
sba(iGenerate
Edge
p40
(dp41
g4
I3
sg5
I0
sbaa(lp42
(iGenerate
Edge
p43
(dp44
g4
I0
sg5
I2
sba(iGenerate
Edge
p45
(dp46
g4
I2
sg5
g8
(g12
S'\x05\x00\x00\x00'
p47
tp48
Rp49
sba(iGenerate
Edge
p50
(dp51
g4
g49
sg5
I1
sba(iGenerate
Edge
p52
(dp53
g4
I1
sg5
I4
sba(iGenerate
Edge
p54
(dp55
g4
I4
sg5
I3
sba(iGenerate
Edge
p56
(dp57
g4
I3
sg5
I0
sbaa(lp58
(iGenerate
Edge
p59
(dp60
g4
I0
sg5
I2
sba(iGenerate
Edge
p61
(dp62
g4
I2
sg5
g8
(g12
S'\x05\x00\x00\x00'
p63
tp64
Rp65
sba(iGenerate
Edge
p66
(dp67
g4
g65
sg5
I1
sba(iGenerate
Edge
p68
(dp69
g4
I1
sg5
I4
sba(iGenerate
Edge
p70
(dp71
g4
I4
sg5
I3
sba(iGenerate
Edge
p72
(dp73
g4
I3
sg5
I0
sbaa(lp74
(iGenerate
Edge
p75
(dp76
g4
I0
sg5
I2
sba(iGenerate
Edge
p77
(dp78
g4
I2
sg5
g8
(g12
S'\x05\x00\x00\x00'
p79
tp80
Rp81
sba(iGenerate
Edge
p82
(dp83
g4
g81
sg5
I1
sba(iGenerate
Edge
p84
(dp85
g4
I1
sg5
I4
sba(iGenerate
Edge
p86
(dp87
g4
I4
sg5
I3
sba(iGenerate
Edge
p88
(dp89
g4
I3
sg5
I0
sbaa(lp90
(iGenerate
Edge
p91
(dp92
g4
I0
sg5
I2
sba(iGenerate
Edge
p93
(dp94
g4
I2
sg5
g8
(g12
S'\x05\x00\x00\x00'
p95
tp96
Rp97
sba(iGenerate
Edge
p98
(dp99
g4
g97
sg5
I1
sba(iGenerate
Edge
p100
(dp101
g4
I1
sg5
I4
sba(iGenerate
Edge
p102
(dp103
g4
I4
sg5
I3
sba(iGenerate
Edge
p104
(dp105
g4
I3
sg5
I0
sbaa(lp106
(iGenerate
Edge
p107
(dp108
g4
I0
sg5
I2
sba(iGenerate
Edge
p109
(dp110
g4
I2
sg5
g8
(g12
S'\x05\x00\x00\x00'
p111
tp112
Rp113
sba(iGenerate
Edge
p114
(dp115
g4
g113
sg5
I1
sba(iGenerate
Edge
p116
(dp117
g4
I1
sg5
I4
sba(iGenerate
Edge
p118
(dp119
g4
I4
sg5
I3
sba(iGenerate
Edge
p120
(dp121
g4
I3
sg5
I0
sbaa(lp122
(iGenerate
Edge
p123
(dp124
g4
I0
sg5
I2
sba(iGenerate
Edge
p125
(dp126
g4
I2
sg5
g8
(g12
S'\x05\x00\x00\x00'
p127
tp128
Rp129
sba(iGenerate
Edge
p130
(dp131
g4
g129
sg5
I1
sba(iGenerate
Edge
p132
(dp133
g4
I1
sg5
I4
sba(iGenerate
Edge
p134
(dp135
g4
I4
sg5
I3
sba(iGenerate
Edge
p136
(dp137
g4
I3
sg5
I0
sbaa(lp138
(iGenerate
Edge
p139
(dp140
g4
I0
sg5
I2
sba(iGenerate
Edge
p141
(dp142
g4
I2
sg5
g8
(g12
S'\x05\x00\x00\x00'
p143
tp144
Rp145
sba(iGenerate
Edge
p146
(dp147
g4
g145
sg5
I1
sba(iGenerate
Edge
p148
(dp149
g4
I1
sg5
I4
sba(iGenerate
Edge
p150
(dp151
g4
I4
sg5
I3
sba(iGenerate
Edge
p152
(dp153
g4
I3
sg5
I0
sbaa(lp154
(iGenerate
Edge
p155
(dp156
g4
I0
sg5
I2
sba(iGenerate
Edge
p157
(dp158
g4
I2
sg5
g8
(g12
S'\x05\x00\x00\x00'
p159
tp160
Rp161
sba(iGenerate
Edge
p162
(dp163
g4
g161
sg5
I1
sba(iGenerate
Edge
p164
(dp165
g4
I1
sg5
I4
sba(iGenerate
Edge
p166
(dp167
g4
I4
sg5
I3
sba(iGenerate
Edge
p168
(dp169
g4
I3
sg5
I0
sbaa(lp170
(iGenerate
Edge
p171
(dp172
g4
I0
sg5
I2
sba(iGenerate
Edge
p173
(dp174
g4
I2
sg5
g8
(g12
S'\x05\x00\x00\x00'
p175
tp176
Rp177
sba(iGenerate
Edge
p178
(dp179
g4
g177
sg5
I1
sba(iGenerate
Edge
p180
(dp181
g4
I1
sg5
I4
sba(iGenerate
Edge
p182
(dp183
g4
I4
sg5
I3
sba(iGenerate
Edge
p184
(dp185
g4
I3
sg5
I0
sbaa(lp186
(iGenerate
Edge
p187
(dp188
g4
I0
sg5
I2
sba(iGenerate
Edge
p189
(dp190
g4
I2
sg5
g8
(g12
S'\x05\x00\x00\x00'
p191
tp192
Rp193
sba(iGenerate
Edge
p194
(dp195
g4
g193
sg5
I1
sba(iGenerate
Edge
p196
(dp197
g4
I1
sg5
I4
sba(iGenerate
Edge
p198
(dp199
g4
I4
sg5
I3
sba(iGenerate
Edge
p200
(dp201
g4
I3
sg5
I0
sbaa(lp202
(iGenerate
Edge
p203
(dp204
g4
I0
sg5
I2
sba(iGenerate
Edge
p205
(dp206
g4
I2
sg5
g8
(g12
S'\x05\x00\x00\x00'
p207
tp208
Rp209
sba(iGenerate
Edge
p210
(dp211
g4
g209
sg5
I1
sba(iGenerate
Edge
p212
(dp213
g4
I1
sg5
I4
sba(iGenerate
Edge
p214
(dp215
g4
I4
sg5
I3
sba(iGenerate
Edge
p216
(dp217
g4
I3
sg5
I0
sbaa(lp218
(iGenerate
Edge
p219
(dp220
g4
I0
sg5
I2
sba(iGenerate
Edge
p221
(dp222
g4
I2
sg5
g8
(g12
S'\x05\x00\x00\x00'
p223
tp224
Rp225
sba(iGenerate
Edge
p226
(dp227
g4
g225
sg5
I1
sba(iGenerate
Edge
p228
(dp229
g4
I1
sg5
I4
sba(iGenerate
Edge
p230
(dp231
g4
I4
sg5
I3
sba(iGenerate
Edge
p232
(dp233
g4
I3
sg5
I0
sbaa(lp234
(iGenerate
Edge
p235
(dp236
g4
I0
sg5
I2
sba(iGenerate
Edge
p237
(dp238
g4
I2
sg5
g8
(g12
S'\x05\x00\x00\x00'
p239
tp240
Rp241
sba(iGenerate
Edge
p242
(dp243
g4
g241
sg5
I1
sba(iGenerate
Edge
p244
(dp245
g4
I1
sg5
I4
sba(iGenerate
Edge
p246
(dp247
g4
I4
sg5
I3
sba(iGenerate
Edge
p248
(dp249
g4
I3
sg5
I0
sbaa(lp250
(iGenerate
Edge
p251
(dp252
g4
I0
sg5
I2
sba(iGenerate
Edge
p253
(dp254
g4
I2
sg5
g8
(g12
S'\x05\x00\x00\x00'
p255
tp256
Rp257
sba(iGenerate
Edge
p258
(dp259
g4
g257
sg5
I1
sba(iGenerate
Edge
p260
(dp261
g4
I1
sg5
I4
sba(iGenerate
Edge
p262
(dp263
g4
I4
sg5
I3
sba(iGenerate
Edge
p264
(dp265
g4
I3
sg5
I0
sbaa(lp266
(iGenerate
Edge
p267
(dp268
g4
I0
sg5
I2
sba(iGenerate
Edge
p269
(dp270
g4
I2
sg5
g8
(g12
S'\x05\x00\x00\x00'
p271
tp272
Rp273
sba(iGenerate
Edge
p274
(dp275
g4
g273
sg5
I1
sba(iGenerate
Edge
p276
(dp277
g4
I1
sg5
I4
sba(iGenerate
Edge
p278
(dp279
g4
I4
sg5
I3
sba(iGenerate
Edge
p280
(dp281
g4
I3
sg5
I0
sbaa(lp282
(iGenerate
Edge
p283
(dp284
g4
I0
sg5
I2
sba(iGenerate
Edge
p285
(dp286
g4
I2
sg5
g8
(g12
S'\x05\x00\x00\x00'
p287
tp288
Rp289
sba(iGenerate
Edge
p290
(dp291
g4
g289
sg5
I1
sba(iGenerate
Edge
p292
(dp293
g4
I1
sg5
I4
sba(iGenerate
Edge
p294
(dp295
g4
I4
sg5
I3
sba(iGenerate
Edge
p296
(dp297
g4
I3
sg5
I0
sbaa(lp298
(iGenerate
Edge
p299
(dp300
g4
I0
sg5
I2
sba(iGenerate
Edge
p301
(dp302
g4
I2
sg5
g8
(g12
S'\x05\x00\x00\x00'
p303
tp304
Rp305
sba(iGenerate
Edge
p306
(dp307
g4
g305
sg5
I1
sba(iGenerate
Edge
p308
(dp309
g4
I1
sg5
I4
sba(iGenerate
Edge
p310
(dp311
g4
I4
sg5
I3
sba(iGenerate
Edge
p312
(dp313
g4
I3
sg5
I0
sbaa(lp314
(iGenerate
Edge
p315
(dp316
g4
I0
sg5
I2
sba(iGenerate
Edge
p317
(dp318
g4
I2
sg5
g8
(g12
S'\x05\x00\x00\x00'
p319
tp320
Rp321
sba(iGenerate
Edge
p322
(dp323
g4
g321
sg5
I1
sba(iGenerate
Edge
p324
(dp325
g4
I1
sg5
I4
sba(iGenerate
Edge
p326
(dp327
g4
I4
sg5
I3
sba(iGenerate
Edge
p328
(dp329
g4
I3
sg5
I0
sbaa(lp330
(iGenerate
Edge
p331
(dp332
g4
I0
sg5
I2
sba(iGenerate
Edge
p333
(dp334
g4
I2
sg5
g8
(g12
S'\x05\x00\x00\x00'
p335
tp336
Rp337
sba(iGenerate
Edge
p338
(dp339
g4
g337
sg5
I1
sba(iGenerate
Edge
p340
(dp341
g4
I1
sg5
I4
sba(iGenerate
Edge
p342
(dp343
g4
I4
sg5
I3
sba(iGenerate
Edge
p344
(dp345
g4
I3
sg5
I0
sbaa(lp346
(iGenerate
Edge
p347
(dp348
g4
I0
sg5
I2
sba(iGenerate
Edge
p349
(dp350
g4
I2
sg5
g8
(g12
S'\x05\x00\x00\x00'
p351
tp352
Rp353
sba(iGenerate
Edge
p354
(dp355
g4
g353
sg5
I1
sba(iGenerate
Edge
p356
(dp357
g4
I1
sg5
I4
sba(iGenerate
Edge
p358
(dp359
g4
I4
sg5
I3
sba(iGenerate
Edge
p360
(dp361
g4
I3
sg5
I0
sbaa(lp362
(iGenerate
Edge
p363
(dp364
g4
I0
sg5
I2
sba(iGenerate
Edge
p365
(dp366
g4
I2
sg5
g8
(g12
S'\x05\x00\x00\x00'
p367
tp368
Rp369
sba(iGenerate
Edge
p370
(dp371
g4
g369
sg5
I1
sba(iGenerate
Edge
p372
(dp373
g4
I1
sg5
I4
sba(iGenerate
Edge
p374
(dp375
g4
I4
sg5
I3
sba(iGenerate
Edge
p376
(dp377
g4
I3
sg5
I0
sbaa(lp378
(iGenerate
Edge
p379
(dp380
g4
I0
sg5
I2
sba(iGenerate
Edge
p381
(dp382
g4
I2
sg5
g8
(g12
S'\x05\x00\x00\x00'
p383
tp384
Rp385
sba(iGenerate
Edge
p386
(dp387
g4
g385
sg5
I1
sba(iGenerate
Edge
p388
(dp389
g4
I1
sg5
I4
sba(iGenerate
Edge
p390
(dp391
g4
I4
sg5
I3
sba(iGenerate
Edge
p392
(dp393
g4
I3
sg5
I0
sbaa(lp394
(iGenerate
Edge
p395
(dp396
g4
I0
sg5
I2
sba(iGenerate
Edge
p397
(dp398
g4
I2
sg5
g8
(g12
S'\x05\x00\x00\x00'
p399
tp400
Rp401
sba(iGenerate
Edge
p402
(dp403
g4
g401
sg5
I1
sba(iGenerate
Edge
p404
(dp405
g4
I1
sg5
I4
sba(iGenerate
Edge
p406
(dp407
g4
I4
sg5
I3
sba(iGenerate
Edge
p408
(dp409
g4
I3
sg5
I0
sbaa(lp410
(iGenerate
Edge
p411
(dp412
g4
I0
sg5
I2
sba(iGenerate
Edge
p413
(dp414
g4
I2
sg5
g8
(g12
S'\x05\x00\x00\x00'
p415
tp416
Rp417
sba(iGenerate
Edge
p418
(dp419
g4
g417
sg5
I1
sba(iGenerate
Edge
p420
(dp421
g4
I1
sg5
I4
sba(iGenerate
Edge
p422
(dp423
g4
I4
sg5
I3
sba(iGenerate
Edge
p424
(dp425
g4
I3
sg5
I0
sbaa(lp426
(iGenerate
Edge
p427
(dp428
g4
I0
sg5
I2
sba(iGenerate
Edge
p429
(dp430
g4
I2
sg5
g8
(g12
S'\x05\x00\x00\x00'
p431
tp432
Rp433
sba(iGenerate
Edge
p434
(dp435
g4
g433
sg5
I1
sba(iGenerate
Edge
p436
(dp437
g4
I1
sg5
I4
sba(iGenerate
Edge
p438
(dp439
g4
I4
sg5
I3
sba(iGenerate
Edge
p440
(dp441
g4
I3
sg5
I0
sbaa(lp442
(iGenerate
Edge
p443
(dp444
g4
I0
sg5
I2
sba(iGenerate
Edge
p445
(dp446
g4
I2
sg5
g8
(g12
S'\x05\x00\x00\x00'
p447
tp448
Rp449
sba(iGenerate
Edge
p450
(dp451
g4
g449
sg5
I1
sba(iGenerate
Edge
p452
(dp453
g4
I1
sg5
I4
sba(iGenerate
Edge
p454
(dp455
g4
I4
sg5
I3
sba(iGenerate
Edge
p456
(dp457
g4
I3
sg5
I0
sbaa(lp458
(iGenerate
Edge
p459
(dp460
g4
I0
sg5
I2
sba(iGenerate
Edge
p461
(dp462
g4
I2
sg5
g8
(g12
S'\x05\x00\x00\x00'
p463
tp464
Rp465
sba(iGenerate
Edge
p466
(dp467
g4
g465
sg5
I1
sba(iGenerate
Edge
p468
(dp469
g4
I1
sg5
I4
sba(iGenerate
Edge
p470
(dp471
g4
I4
sg5
I3
sba(iGenerate
Edge
p472
(dp473
g4
I3
sg5
I0
sbaa(lp474
(iGenerate
Edge
p475
(dp476
g4
I0
sg5
I2
sba(iGenerate
Edge
p477
(dp478
g4
I2
sg5
g8
(g12
S'\x05\x00\x00\x00'
p479
tp480
Rp481
sba(iGenerate
Edge
p482
(dp483
g4
g481
sg5
I1
sba(iGenerate
Edge
p484
(dp485
g4
I1
sg5
I4
sba(iGenerate
Edge
p486
(dp487
g4
I4
sg5
I3
sba(iGenerate
Edge
p488
(dp489
g4
I3
sg5
I0
sbaa(lp490
(iGenerate
Edge
p491
(dp492
g4
I0
sg5
I2
sba(iGenerate
Edge
p493
(dp494
g4
I2
sg5
g8
(g12
S'\x05\x00\x00\x00'
p495
tp496
Rp497
sba(iGenerate
Edge
p498
(dp499
g4
g497
sg5
I1
sba(iGenerate
Edge
p500
(dp501
g4
I1
sg5
I4
sba(iGenerate
Edge
p502
(dp503
g4
I4
sg5
I3
sba(iGenerate
Edge
p504
(dp505
g4
I3
sg5
I0
sbaa(lp506
(iGenerate
Edge
p507
(dp508
g4
I0
sg5
I2
sba(iGenerate
Edge
p509
(dp510
g4
I2
sg5
g8
(g12
S'\x05\x00\x00\x00'
p511
tp512
Rp513
sba(iGenerate
Edge
p514
(dp515
g4
g513
sg5
I1
sba(iGenerate
Edge
p516
(dp517
g4
I1
sg5
I4
sba(iGenerate
Edge
p518
(dp519
g4
I4
sg5
I3
sba(iGenerate
Edge
p520
(dp521
g4
I3
sg5
I0
sbaa(lp522
(iGenerate
Edge
p523
(dp524
g4
I0
sg5
I2
sba(iGenerate
Edge
p525
(dp526
g4
I2
sg5
g8
(g12
S'\x05\x00\x00\x00'
p527
tp528
Rp529
sba(iGenerate
Edge
p530
(dp531
g4
g529
sg5
I1
sba(iGenerate
Edge
p532
(dp533
g4
I1
sg5
I4
sba(iGenerate
Edge
p534
(dp535
g4
I4
sg5
I3
sba(iGenerate
Edge
p536
(dp537
g4
I3
sg5
I0
sbaa(lp538
(iGenerate
Edge
p539
(dp540
g4
I0
sg5
I2
sba(iGenerate
Edge
p541
(dp542
g4
I2
sg5
g8
(g12
S'\x05\x00\x00\x00'
p543
tp544
Rp545
sba(iGenerate
Edge
p546
(dp547
g4
g545
sg5
I1
sba(iGenerate
Edge
p548
(dp549
g4
I1
sg5
I4
sba(iGenerate
Edge
p550
(dp551
g4
I4
sg5
I3
sba(iGenerate
Edge
p552
(dp553
g4
I3
sg5
I0
sbaa(lp554
(iGenerate
Edge
p555
(dp556
g4
I0
sg5
I2
sba(iGenerate
Edge
p557
(dp558
g4
I2
sg5
g8
(g12
S'\x05\x00\x00\x00'
p559
tp560
Rp561
sba(iGenerate
Edge
p562
(dp563
g4
g561
sg5
I1
sba(iGenerate
Edge
p564
(dp565
g4
I1
sg5
I4
sba(iGenerate
Edge
p566
(dp567
g4
I4
sg5
I3
sba(iGenerate
Edge
p568
(dp569
g4
I3
sg5
I0
sbaa(lp570
(iGenerate
Edge
p571
(dp572
g4
I0
sg5
I2
sba(iGenerate
Edge
p573
(dp574
g4
I2
sg5
g8
(g12
S'\x05\x00\x00\x00'
p575
tp576
Rp577
sba(iGenerate
Edge
p578
(dp579
g4
g577
sg5
I1
sba(iGenerate
Edge
p580
(dp581
g4
I1
sg5
I4
sba(iGenerate
Edge
p582
(dp583
g4
I4
sg5
I3
sba(iGenerate
Edge
p584
(dp585
g4
I3
sg5
I0
sbaa(lp586
(iGenerate
Edge
p587
(dp588
g4
I0
sg5
I2
sba(iGenerate
Edge
p589
(dp590
g4
I2
sg5
g8
(g12
S'\x05\x00\x00\x00'
p591
tp592
Rp593
sba(iGenerate
Edge
p594
(dp595
g4
g593
sg5
I1
sba(iGenerate
Edge
p596
(dp597
g4
I1
sg5
I4
sba(iGenerate
Edge
p598
(dp599
g4
I4
sg5
I3
sba(iGenerate
Edge
p600
(dp601
g4
I3
sg5
I0
sbaa(lp602
(iGenerate
Edge
p603
(dp604
g4
I0
sg5
I2
sba(iGenerate
Edge
p605
(dp606
g4
I2
sg5
g8
(g12
S'\x05\x00\x00\x00'
p607
tp608
Rp609
sba(iGenerate
Edge
p610
(dp611
g4
g609
sg5
I1
sba(iGenerate
Edge
p612
(dp613
g4
I1
sg5
I4
sba(iGenerate
Edge
p614
(dp615
g4
I4
sg5
I3
sba(iGenerate
Edge
p616
(dp617
g4
I3
sg5
I0
sbaa(lp618
(iGenerate
Edge
p619
(dp620
g4
I0
sg5
I2
sba(iGenerate
Edge
p621
(dp622
g4
I2
sg5
g8
(g12
S'\x05\x00\x00\x00'
p623
tp624
Rp625
sba(iGenerate
Edge
p626
(dp627
g4
g625
sg5
I1
sba(iGenerate
Edge
p628
(dp629
g4
I1
sg5
I4
sba(iGenerate
Edge
p630
(dp631
g4
I4
sg5
I3
sba(iGenerate
Edge
p632
(dp633
g4
I3
sg5
I0
sbaa(lp634
(iGenerate
Edge
p635
(dp636
g4
I0
sg5
I2
sba(iGenerate
Edge
p637
(dp638
g4
I2
sg5
g8
(g12
S'\x05\x00\x00\x00'
p639
tp640
Rp641
sba(iGenerate
Edge
p642
(dp643
g4
g641
sg5
I1
sba(iGenerate
Edge
p644
(dp645
g4
I1
sg5
I4
sba(iGenerate
Edge
p646
(dp647
g4
I4
sg5
I3
sba(iGenerate
Edge
p648
(dp649
g4
I3
sg5
I0
sbaa(lp650
(iGenerate
Edge
p651
(dp652
g4
I0
sg5
I2
sba(iGenerate
Edge
p653
(dp654
g4
I2
sg5
g8
(g12
S'\x05\x00\x00\x00'
p655
tp656
Rp657
sba(iGenerate
Edge
p658
(dp659
g4
g657
sg5
I1
sba(iGenerate
Edge
p660
(dp661
g4
I1
sg5
I4
sba(iGenerate
Edge
p662
(dp663
g4
I4
sg5
I3
sba(iGenerate
Edge
p664
(dp665
g4
I3
sg5
I0
sbaa(lp666
(iGenerate
Edge
p667
(dp668
g4
I0
sg5
I2
sba(iGenerate
Edge
p669
(dp670
g4
I2
sg5
g8
(g12
S'\x05\x00\x00\x00'
p671
tp672
Rp673
sba(iGenerate
Edge
p674
(dp675
g4
g673
sg5
I1
sba(iGenerate
Edge
p676
(dp677
g4
I1
sg5
I4
sba(iGenerate
Edge
p678
(dp679
g4
I4
sg5
I3
sba(iGenerate
Edge
p680
(dp681
g4
I3
sg5
I0
sbaa(lp682
(iGenerate
Edge
p683
(dp684
g4
I0
sg5
I2
sba(iGenerate
Edge
p685
(dp686
g4
I2
sg5
g8
(g12
S'\x05\x00\x00\x00'
p687
tp688
Rp689
sba(iGenerate
Edge
p690
(dp691
g4
g689
sg5
I1
sba(iGenerate
Edge
p692
(dp693
g4
I1
sg5
I4
sba(iGenerate
Edge
p694
(dp695
g4
I4
sg5
I3
sba(iGenerate
Edge
p696
(dp697
g4
I3
sg5
I0
sbaa(lp698
(iGenerate
Edge
p699
(dp700
g4
I0
sg5
I2
sba(iGenerate
Edge
p701
(dp702
g4
I2
sg5
g8
(g12
S'\x05\x00\x00\x00'
p703
tp704
Rp705
sba(iGenerate
Edge
p706
(dp707
g4
g705
sg5
I1
sba(iGenerate
Edge
p708
(dp709
g4
I1
sg5
I4
sba(iGenerate
Edge
p710
(dp711
g4
I4
sg5
I3
sba(iGenerate
Edge
p712
(dp713
g4
I3
sg5
I0
sbaa(lp714
(iGenerate
Edge
p715
(dp716
g4
I0
sg5
I2
sba(iGenerate
Edge
p717
(dp718
g4
I2
sg5
g8
(g12
S'\x05\x00\x00\x00'
p719
tp720
Rp721
sba(iGenerate
Edge
p722
(dp723
g4
g721
sg5
I1
sba(iGenerate
Edge
p724
(dp725
g4
I1
sg5
I4
sba(iGenerate
Edge
p726
(dp727
g4
I4
sg5
I3
sba(iGenerate
Edge
p728
(dp729
g4
I3
sg5
I0
sbaa(lp730
(iGenerate
Edge
p731
(dp732
g4
I0
sg5
I2
sba(iGenerate
Edge
p733
(dp734
g4
I2
sg5
g8
(g12
S'\x05\x00\x00\x00'
p735
tp736
Rp737
sba(iGenerate
Edge
p738
(dp739
g4
g737
sg5
I1
sba(iGenerate
Edge
p740
(dp741
g4
I1
sg5
I4
sba(iGenerate
Edge
p742
(dp743
g4
I4
sg5
I3
sba(iGenerate
Edge
p744
(dp745
g4
I3
sg5
I0
sbaa(lp746
(iGenerate
Edge
p747
(dp748
g4
I0
sg5
I2
sba(iGenerate
Edge
p749
(dp750
g4
I2
sg5
g8
(g12
S'\x05\x00\x00\x00'
p751
tp752
Rp753
sba(iGenerate
Edge
p754
(dp755
g4
g753
sg5
I1
sba(iGenerate
Edge
p756
(dp757
g4
I1
sg5
I4
sba(iGenerate
Edge
p758
(dp759
g4
I4
sg5
I3
sba(iGenerate
Edge
p760
(dp761
g4
I3
sg5
I0
sbaa(lp762
(iGenerate
Edge
p763
(dp764
g4
I0
sg5
I2
sba(iGenerate
Edge
p765
(dp766
g4
I2
sg5
g8
(g12
S'\x05\x00\x00\x00'
p767
tp768
Rp769
sba(iGenerate
Edge
p770
(dp771
g4
g769
sg5
I1
sba(iGenerate
Edge
p772
(dp773
g4
I1
sg5
I4
sba(iGenerate
Edge
p774
(dp775
g4
I4
sg5
I3
sba(iGenerate
Edge
p776
(dp777
g4
I3
sg5
I0
sbaa(lp778
(iGenerate
Edge
p779
(dp780
g4
I0
sg5
I2
sba(iGenerate
Edge
p781
(dp782
g4
I2
sg5
g8
(g12
S'\x05\x00\x00\x00'
p783
tp784
Rp785
sba(iGenerate
Edge
p786
(dp787
g4
g785
sg5
I1
sba(iGenerate
Edge
p788
(dp789
g4
I1
sg5
I4
sba(iGenerate
Edge
p790
(dp791
g4
I4
sg5
I3
sba(iGenerate
Edge
p792
(dp793
g4
I3
sg5
I0
sbaa(lp794
(iGenerate
Edge
p795
(dp796
g4
I0
sg5
I2
sba(iGenerate
Edge
p797
(dp798
g4
I2
sg5
g8
(g12
S'\x05\x00\x00\x00'
p799
tp800
Rp801
sba(iGenerate
Edge
p802
(dp803
g4
g801
sg5
I1
sba(iGenerate
Edge
p804
(dp805
g4
I1
sg5
I4
sba(iGenerate
Edge
p806
(dp807
g4
I4
sg5
I3
sba(iGenerate
Edge
p808
(dp809
g4
I3
sg5
I0
sbaa.