(lp0
(lp1
(iGenerate
Edge
p2
(dp3
S'a'
p4
I0
sS'b'
p5
cnumpy.core.multiarray
scalar
p6
(cnumpy
dtype
p7
(S'i4'
p8
I0
I1
tp9
Rp10
(I3
S'<'
p11
NNNI-1
I-1
I0
tp12
bS'\x01\x00\x00\x00'
p13
tp14
Rp15
sba(iGenerate
Edge
p16
(dp17
g4
g15
sg5
I2
sba(iGenerate
Edge
p18
(dp19
g4
I2
sg5
I4
sba(iGenerate
Edge
p20
(dp21
g4
I4
sg5
I3
sba(iGenerate
Edge
p22
(dp23
g4
I3
sg5
I6
sba(iGenerate
Edge
p24
(dp25
g4
I6
sg5
I5
sba(iGenerate
Edge
p26
(dp27
g4
I5
sg5
I12
sba(iGenerate
Edge
p28
(dp29
g4
I12
sg5
I7
sba(iGenerate
Edge
p30
(dp31
g4
I7
sg5
I13
sba(iGenerate
Edge
p32
(dp33
g4
I13
sg5
I8
sba(iGenerate
Edge
p34
(dp35
g4
I8
sg5
I14
sba(iGenerate
Edge
p36
(dp37
g4
I14
sg5
I9
sba(iGenerate
Edge
p38
(dp39
g4
I9
sg5
I10
sba(iGenerate
Edge
p40
(dp41
g4
I10
sg5
I11
sba(iGenerate
Edge
p42
(dp43
g4
I11
sg5
I15
sba(iGenerate
Edge
p44
(dp45
g4
I15
sg5
I0
sbaa(lp46
(iGenerate
Edge
p47
(dp48
g4
I0
sg5
g6
(g10
S'\x01\x00\x00\x00'
p49
tp50
Rp51
sba(iGenerate
Edge
p52
(dp53
g4
g51
sg5
I2
sba(iGenerate
Edge
p54
(dp55
g4
I2
sg5
I4
sba(iGenerate
Edge
p56
(dp57
g4
I4
sg5
I3
sba(iGenerate
Edge
p58
(dp59
g4
I3
sg5
I6
sba(iGenerate
Edge
p60
(dp61
g4
I6
sg5
I5
sba(iGenerate
Edge
p62
(dp63
g4
I5
sg5
I12
sba(iGenerate
Edge
p64
(dp65
g4
I12
sg5
I7
sba(iGenerate
Edge
p66
(dp67
g4
I7
sg5
I13
sba(iGenerate
Edge
p68
(dp69
g4
I13
sg5
I8
sba(iGenerate
Edge
p70
(dp71
g4
I8
sg5
I14
sba(iGenerate
Edge
p72
(dp73
g4
I14
sg5
I9
sba(iGenerate
Edge
p74
(dp75
g4
I9
sg5
I10
sba(iGenerate
Edge
p76
(dp77
g4
I10
sg5
I11
sba(iGenerate
Edge
p78
(dp79
g4
I11
sg5
I15
sba(iGenerate
Edge
p80
(dp81
g4
I15
sg5
I0
sbaa(lp82
(iGenerate
Edge
p83
(dp84
g4
I0
sg5
g6
(g10
S'\x01\x00\x00\x00'
p85
tp86
Rp87
sba(iGenerate
Edge
p88
(dp89
g4
g87
sg5
I2
sba(iGenerate
Edge
p90
(dp91
g4
I2
sg5
I4
sba(iGenerate
Edge
p92
(dp93
g4
I4
sg5
I3
sba(iGenerate
Edge
p94
(dp95
g4
I3
sg5
I6
sba(iGenerate
Edge
p96
(dp97
g4
I6
sg5
I5
sba(iGenerate
Edge
p98
(dp99
g4
I5
sg5
I12
sba(iGenerate
Edge
p100
(dp101
g4
I12
sg5
I7
sba(iGenerate
Edge
p102
(dp103
g4
I7
sg5
I13
sba(iGenerate
Edge
p104
(dp105
g4
I13
sg5
I8
sba(iGenerate
Edge
p106
(dp107
g4
I8
sg5
I14
sba(iGenerate
Edge
p108
(dp109
g4
I14
sg5
I9
sba(iGenerate
Edge
p110
(dp111
g4
I9
sg5
I10
sba(iGenerate
Edge
p112
(dp113
g4
I10
sg5
I11
sba(iGenerate
Edge
p114
(dp115
g4
I11
sg5
I15
sba(iGenerate
Edge
p116
(dp117
g4
I15
sg5
I0
sbaa(lp118
(iGenerate
Edge
p119
(dp120
g4
I0
sg5
g6
(g10
S'\x01\x00\x00\x00'
p121
tp122
Rp123
sba(iGenerate
Edge
p124
(dp125
g4
g123
sg5
I2
sba(iGenerate
Edge
p126
(dp127
g4
I2
sg5
I4
sba(iGenerate
Edge
p128
(dp129
g4
I4
sg5
I3
sba(iGenerate
Edge
p130
(dp131
g4
I3
sg5
I6
sba(iGenerate
Edge
p132
(dp133
g4
I6
sg5
I5
sba(iGenerate
Edge
p134
(dp135
g4
I5
sg5
I12
sba(iGenerate
Edge
p136
(dp137
g4
I12
sg5
I7
sba(iGenerate
Edge
p138
(dp139
g4
I7
sg5
I13
sba(iGenerate
Edge
p140
(dp141
g4
I13
sg5
I8
sba(iGenerate
Edge
p142
(dp143
g4
I8
sg5
I14
sba(iGenerate
Edge
p144
(dp145
g4
I14
sg5
I9
sba(iGenerate
Edge
p146
(dp147
g4
I9
sg5
I10
sba(iGenerate
Edge
p148
(dp149
g4
I10
sg5
I11
sba(iGenerate
Edge
p150
(dp151
g4
I11
sg5
I15
sba(iGenerate
Edge
p152
(dp153
g4
I15
sg5
I0
sbaa(lp154
(iGenerate
Edge
p155
(dp156
g4
I0
sg5
g6
(g10
S'\x01\x00\x00\x00'
p157
tp158
Rp159
sba(iGenerate
Edge
p160
(dp161
g4
g159
sg5
I2
sba(iGenerate
Edge
p162
(dp163
g4
I2
sg5
I4
sba(iGenerate
Edge
p164
(dp165
g4
I4
sg5
I3
sba(iGenerate
Edge
p166
(dp167
g4
I3
sg5
I6
sba(iGenerate
Edge
p168
(dp169
g4
I6
sg5
I5
sba(iGenerate
Edge
p170
(dp171
g4
I5
sg5
I12
sba(iGenerate
Edge
p172
(dp173
g4
I12
sg5
I7
sba(iGenerate
Edge
p174
(dp175
g4
I7
sg5
I13
sba(iGenerate
Edge
p176
(dp177
g4
I13
sg5
I8
sba(iGenerate
Edge
p178
(dp179
g4
I8
sg5
I14
sba(iGenerate
Edge
p180
(dp181
g4
I14
sg5
I9
sba(iGenerate
Edge
p182
(dp183
g4
I9
sg5
I10
sba(iGenerate
Edge
p184
(dp185
g4
I10
sg5
I11
sba(iGenerate
Edge
p186
(dp187
g4
I11
sg5
I15
sba(iGenerate
Edge
p188
(dp189
g4
I15
sg5
I0
sbaa(lp190
(iGenerate
Edge
p191
(dp192
g4
I0
sg5
g6
(g10
S'\x01\x00\x00\x00'
p193
tp194
Rp195
sba(iGenerate
Edge
p196
(dp197
g4
g195
sg5
I2
sba(iGenerate
Edge
p198
(dp199
g4
I2
sg5
I4
sba(iGenerate
Edge
p200
(dp201
g4
I4
sg5
I3
sba(iGenerate
Edge
p202
(dp203
g4
I3
sg5
I6
sba(iGenerate
Edge
p204
(dp205
g4
I6
sg5
I5
sba(iGenerate
Edge
p206
(dp207
g4
I5
sg5
I12
sba(iGenerate
Edge
p208
(dp209
g4
I12
sg5
I7
sba(iGenerate
Edge
p210
(dp211
g4
I7
sg5
I13
sba(iGenerate
Edge
p212
(dp213
g4
I13
sg5
I8
sba(iGenerate
Edge
p214
(dp215
g4
I8
sg5
I14
sba(iGenerate
Edge
p216
(dp217
g4
I14
sg5
I9
sba(iGenerate
Edge
p218
(dp219
g4
I9
sg5
I10
sba(iGenerate
Edge
p220
(dp221
g4
I10
sg5
I11
sba(iGenerate
Edge
p222
(dp223
g4
I11
sg5
I15
sba(iGenerate
Edge
p224
(dp225
g4
I15
sg5
I0
sbaa(lp226
(iGenerate
Edge
p227
(dp228
g4
I0
sg5
g6
(g10
S'\x01\x00\x00\x00'
p229
tp230
Rp231
sba(iGenerate
Edge
p232
(dp233
g4
g231
sg5
I2
sba(iGenerate
Edge
p234
(dp235
g4
I2
sg5
I4
sba(iGenerate
Edge
p236
(dp237
g4
I4
sg5
I3
sba(iGenerate
Edge
p238
(dp239
g4
I3
sg5
I6
sba(iGenerate
Edge
p240
(dp241
g4
I6
sg5
I5
sba(iGenerate
Edge
p242
(dp243
g4
I5
sg5
I12
sba(iGenerate
Edge
p244
(dp245
g4
I12
sg5
I7
sba(iGenerate
Edge
p246
(dp247
g4
I7
sg5
I13
sba(iGenerate
Edge
p248
(dp249
g4
I13
sg5
I8
sba(iGenerate
Edge
p250
(dp251
g4
I8
sg5
I14
sba(iGenerate
Edge
p252
(dp253
g4
I14
sg5
I9
sba(iGenerate
Edge
p254
(dp255
g4
I9
sg5
I10
sba(iGenerate
Edge
p256
(dp257
g4
I10
sg5
I11
sba(iGenerate
Edge
p258
(dp259
g4
I11
sg5
I15
sba(iGenerate
Edge
p260
(dp261
g4
I15
sg5
I0
sbaa(lp262
(iGenerate
Edge
p263
(dp264
g4
I0
sg5
g6
(g10
S'\x01\x00\x00\x00'
p265
tp266
Rp267
sba(iGenerate
Edge
p268
(dp269
g4
g267
sg5
I2
sba(iGenerate
Edge
p270
(dp271
g4
I2
sg5
I4
sba(iGenerate
Edge
p272
(dp273
g4
I4
sg5
I3
sba(iGenerate
Edge
p274
(dp275
g4
I3
sg5
I6
sba(iGenerate
Edge
p276
(dp277
g4
I6
sg5
I5
sba(iGenerate
Edge
p278
(dp279
g4
I5
sg5
I12
sba(iGenerate
Edge
p280
(dp281
g4
I12
sg5
I7
sba(iGenerate
Edge
p282
(dp283
g4
I7
sg5
I13
sba(iGenerate
Edge
p284
(dp285
g4
I13
sg5
I8
sba(iGenerate
Edge
p286
(dp287
g4
I8
sg5
I14
sba(iGenerate
Edge
p288
(dp289
g4
I14
sg5
I9
sba(iGenerate
Edge
p290
(dp291
g4
I9
sg5
I10
sba(iGenerate
Edge
p292
(dp293
g4
I10
sg5
I11
sba(iGenerate
Edge
p294
(dp295
g4
I11
sg5
I15
sba(iGenerate
Edge
p296
(dp297
g4
I15
sg5
I0
sbaa(lp298
(iGenerate
Edge
p299
(dp300
g4
I0
sg5
g6
(g10
S'\x01\x00\x00\x00'
p301
tp302
Rp303
sba(iGenerate
Edge
p304
(dp305
g4
g303
sg5
I2
sba(iGenerate
Edge
p306
(dp307
g4
I2
sg5
I4
sba(iGenerate
Edge
p308
(dp309
g4
I4
sg5
I3
sba(iGenerate
Edge
p310
(dp311
g4
I3
sg5
I6
sba(iGenerate
Edge
p312
(dp313
g4
I6
sg5
I5
sba(iGenerate
Edge
p314
(dp315
g4
I5
sg5
I12
sba(iGenerate
Edge
p316
(dp317
g4
I12
sg5
I7
sba(iGenerate
Edge
p318
(dp319
g4
I7
sg5
I13
sba(iGenerate
Edge
p320
(dp321
g4
I13
sg5
I8
sba(iGenerate
Edge
p322
(dp323
g4
I8
sg5
I14
sba(iGenerate
Edge
p324
(dp325
g4
I14
sg5
I9
sba(iGenerate
Edge
p326
(dp327
g4
I9
sg5
I10
sba(iGenerate
Edge
p328
(dp329
g4
I10
sg5
I11
sba(iGenerate
Edge
p330
(dp331
g4
I11
sg5
I15
sba(iGenerate
Edge
p332
(dp333
g4
I15
sg5
I0
sbaa(lp334
(iGenerate
Edge
p335
(dp336
g4
I0
sg5
g6
(g10
S'\x01\x00\x00\x00'
p337
tp338
Rp339
sba(iGenerate
Edge
p340
(dp341
g4
g339
sg5
I2
sba(iGenerate
Edge
p342
(dp343
g4
I2
sg5
I4
sba(iGenerate
Edge
p344
(dp345
g4
I4
sg5
I3
sba(iGenerate
Edge
p346
(dp347
g4
I3
sg5
I6
sba(iGenerate
Edge
p348
(dp349
g4
I6
sg5
I5
sba(iGenerate
Edge
p350
(dp351
g4
I5
sg5
I12
sba(iGenerate
Edge
p352
(dp353
g4
I12
sg5
I7
sba(iGenerate
Edge
p354
(dp355
g4
I7
sg5
I13
sba(iGenerate
Edge
p356
(dp357
g4
I13
sg5
I8
sba(iGenerate
Edge
p358
(dp359
g4
I8
sg5
I14
sba(iGenerate
Edge
p360
(dp361
g4
I14
sg5
I9
sba(iGenerate
Edge
p362
(dp363
g4
I9
sg5
I10
sba(iGenerate
Edge
p364
(dp365
g4
I10
sg5
I11
sba(iGenerate
Edge
p366
(dp367
g4
I11
sg5
I15
sba(iGenerate
Edge
p368
(dp369
g4
I15
sg5
I0
sbaa(lp370
(iGenerate
Edge
p371
(dp372
g4
I0
sg5
g6
(g10
S'\x01\x00\x00\x00'
p373
tp374
Rp375
sba(iGenerate
Edge
p376
(dp377
g4
g375
sg5
I2
sba(iGenerate
Edge
p378
(dp379
g4
I2
sg5
I4
sba(iGenerate
Edge
p380
(dp381
g4
I4
sg5
I3
sba(iGenerate
Edge
p382
(dp383
g4
I3
sg5
I6
sba(iGenerate
Edge
p384
(dp385
g4
I6
sg5
I5
sba(iGenerate
Edge
p386
(dp387
g4
I5
sg5
I12
sba(iGenerate
Edge
p388
(dp389
g4
I12
sg5
I7
sba(iGenerate
Edge
p390
(dp391
g4
I7
sg5
I13
sba(iGenerate
Edge
p392
(dp393
g4
I13
sg5
I8
sba(iGenerate
Edge
p394
(dp395
g4
I8
sg5
I14
sba(iGenerate
Edge
p396
(dp397
g4
I14
sg5
I9
sba(iGenerate
Edge
p398
(dp399
g4
I9
sg5
I10
sba(iGenerate
Edge
p400
(dp401
g4
I10
sg5
I11
sba(iGenerate
Edge
p402
(dp403
g4
I11
sg5
I15
sba(iGenerate
Edge
p404
(dp405
g4
I15
sg5
I0
sbaa(lp406
(iGenerate
Edge
p407
(dp408
g4
I0
sg5
g6
(g10
S'\x01\x00\x00\x00'
p409
tp410
Rp411
sba(iGenerate
Edge
p412
(dp413
g4
g411
sg5
I2
sba(iGenerate
Edge
p414
(dp415
g4
I2
sg5
I4
sba(iGenerate
Edge
p416
(dp417
g4
I4
sg5
I3
sba(iGenerate
Edge
p418
(dp419
g4
I3
sg5
I6
sba(iGenerate
Edge
p420
(dp421
g4
I6
sg5
I5
sba(iGenerate
Edge
p422
(dp423
g4
I5
sg5
I12
sba(iGenerate
Edge
p424
(dp425
g4
I12
sg5
I7
sba(iGenerate
Edge
p426
(dp427
g4
I7
sg5
I13
sba(iGenerate
Edge
p428
(dp429
g4
I13
sg5
I8
sba(iGenerate
Edge
p430
(dp431
g4
I8
sg5
I14
sba(iGenerate
Edge
p432
(dp433
g4
I14
sg5
I9
sba(iGenerate
Edge
p434
(dp435
g4
I9
sg5
I10
sba(iGenerate
Edge
p436
(dp437
g4
I10
sg5
I11
sba(iGenerate
Edge
p438
(dp439
g4
I11
sg5
I15
sba(iGenerate
Edge
p440
(dp441
g4
I15
sg5
I0
sbaa(lp442
(iGenerate
Edge
p443
(dp444
g4
I0
sg5
g6
(g10
S'\x01\x00\x00\x00'
p445
tp446
Rp447
sba(iGenerate
Edge
p448
(dp449
g4
g447
sg5
I2
sba(iGenerate
Edge
p450
(dp451
g4
I2
sg5
I4
sba(iGenerate
Edge
p452
(dp453
g4
I4
sg5
I3
sba(iGenerate
Edge
p454
(dp455
g4
I3
sg5
I6
sba(iGenerate
Edge
p456
(dp457
g4
I6
sg5
I5
sba(iGenerate
Edge
p458
(dp459
g4
I5
sg5
I12
sba(iGenerate
Edge
p460
(dp461
g4
I12
sg5
I7
sba(iGenerate
Edge
p462
(dp463
g4
I7
sg5
I13
sba(iGenerate
Edge
p464
(dp465
g4
I13
sg5
I8
sba(iGenerate
Edge
p466
(dp467
g4
I8
sg5
I14
sba(iGenerate
Edge
p468
(dp469
g4
I14
sg5
I9
sba(iGenerate
Edge
p470
(dp471
g4
I9
sg5
I10
sba(iGenerate
Edge
p472
(dp473
g4
I10
sg5
I11
sba(iGenerate
Edge
p474
(dp475
g4
I11
sg5
I15
sba(iGenerate
Edge
p476
(dp477
g4
I15
sg5
I0
sbaa(lp478
(iGenerate
Edge
p479
(dp480
g4
I0
sg5
g6
(g10
S'\x01\x00\x00\x00'
p481
tp482
Rp483
sba(iGenerate
Edge
p484
(dp485
g4
g483
sg5
I2
sba(iGenerate
Edge
p486
(dp487
g4
I2
sg5
I4
sba(iGenerate
Edge
p488
(dp489
g4
I4
sg5
I3
sba(iGenerate
Edge
p490
(dp491
g4
I3
sg5
I6
sba(iGenerate
Edge
p492
(dp493
g4
I6
sg5
I5
sba(iGenerate
Edge
p494
(dp495
g4
I5
sg5
I12
sba(iGenerate
Edge
p496
(dp497
g4
I12
sg5
I7
sba(iGenerate
Edge
p498
(dp499
g4
I7
sg5
I13
sba(iGenerate
Edge
p500
(dp501
g4
I13
sg5
I8
sba(iGenerate
Edge
p502
(dp503
g4
I8
sg5
I14
sba(iGenerate
Edge
p504
(dp505
g4
I14
sg5
I9
sba(iGenerate
Edge
p506
(dp507
g4
I9
sg5
I10
sba(iGenerate
Edge
p508
(dp509
g4
I10
sg5
I11
sba(iGenerate
Edge
p510
(dp511
g4
I11
sg5
I15
sba(iGenerate
Edge
p512
(dp513
g4
I15
sg5
I0
sbaa(lp514
(iGenerate
Edge
p515
(dp516
g4
I0
sg5
g6
(g10
S'\x01\x00\x00\x00'
p517
tp518
Rp519
sba(iGenerate
Edge
p520
(dp521
g4
g519
sg5
I2
sba(iGenerate
Edge
p522
(dp523
g4
I2
sg5
I4
sba(iGenerate
Edge
p524
(dp525
g4
I4
sg5
I3
sba(iGenerate
Edge
p526
(dp527
g4
I3
sg5
I6
sba(iGenerate
Edge
p528
(dp529
g4
I6
sg5
I5
sba(iGenerate
Edge
p530
(dp531
g4
I5
sg5
I12
sba(iGenerate
Edge
p532
(dp533
g4
I12
sg5
I7
sba(iGenerate
Edge
p534
(dp535
g4
I7
sg5
I13
sba(iGenerate
Edge
p536
(dp537
g4
I13
sg5
I8
sba(iGenerate
Edge
p538
(dp539
g4
I8
sg5
I14
sba(iGenerate
Edge
p540
(dp541
g4
I14
sg5
I9
sba(iGenerate
Edge
p542
(dp543
g4
I9
sg5
I10
sba(iGenerate
Edge
p544
(dp545
g4
I10
sg5
I11
sba(iGenerate
Edge
p546
(dp547
g4
I11
sg5
I15
sba(iGenerate
Edge
p548
(dp549
g4
I15
sg5
I0
sbaa(lp550
(iGenerate
Edge
p551
(dp552
g4
I0
sg5
g6
(g10
S'\x01\x00\x00\x00'
p553
tp554
Rp555
sba(iGenerate
Edge
p556
(dp557
g4
g555
sg5
I2
sba(iGenerate
Edge
p558
(dp559
g4
I2
sg5
I4
sba(iGenerate
Edge
p560
(dp561
g4
I4
sg5
I3
sba(iGenerate
Edge
p562
(dp563
g4
I3
sg5
I6
sba(iGenerate
Edge
p564
(dp565
g4
I6
sg5
I5
sba(iGenerate
Edge
p566
(dp567
g4
I5
sg5
I12
sba(iGenerate
Edge
p568
(dp569
g4
I12
sg5
I7
sba(iGenerate
Edge
p570
(dp571
g4
I7
sg5
I13
sba(iGenerate
Edge
p572
(dp573
g4
I13
sg5
I8
sba(iGenerate
Edge
p574
(dp575
g4
I8
sg5
I14
sba(iGenerate
Edge
p576
(dp577
g4
I14
sg5
I9
sba(iGenerate
Edge
p578
(dp579
g4
I9
sg5
I10
sba(iGenerate
Edge
p580
(dp581
g4
I10
sg5
I11
sba(iGenerate
Edge
p582
(dp583
g4
I11
sg5
I15
sba(iGenerate
Edge
p584
(dp585
g4
I15
sg5
I0
sbaa(lp586
(iGenerate
Edge
p587
(dp588
g4
I0
sg5
g6
(g10
S'\x01\x00\x00\x00'
p589
tp590
Rp591
sba(iGenerate
Edge
p592
(dp593
g4
g591
sg5
I2
sba(iGenerate
Edge
p594
(dp595
g4
I2
sg5
I4
sba(iGenerate
Edge
p596
(dp597
g4
I4
sg5
I3
sba(iGenerate
Edge
p598
(dp599
g4
I3
sg5
I6
sba(iGenerate
Edge
p600
(dp601
g4
I6
sg5
I5
sba(iGenerate
Edge
p602
(dp603
g4
I5
sg5
I12
sba(iGenerate
Edge
p604
(dp605
g4
I12
sg5
I7
sba(iGenerate
Edge
p606
(dp607
g4
I7
sg5
I13
sba(iGenerate
Edge
p608
(dp609
g4
I13
sg5
I8
sba(iGenerate
Edge
p610
(dp611
g4
I8
sg5
I14
sba(iGenerate
Edge
p612
(dp613
g4
I14
sg5
I9
sba(iGenerate
Edge
p614
(dp615
g4
I9
sg5
I10
sba(iGenerate
Edge
p616
(dp617
g4
I10
sg5
I11
sba(iGenerate
Edge
p618
(dp619
g4
I11
sg5
I15
sba(iGenerate
Edge
p620
(dp621
g4
I15
sg5
I0
sbaa(lp622
(iGenerate
Edge
p623
(dp624
g4
I0
sg5
g6
(g10
S'\x01\x00\x00\x00'
p625
tp626
Rp627
sba(iGenerate
Edge
p628
(dp629
g4
g627
sg5
I2
sba(iGenerate
Edge
p630
(dp631
g4
I2
sg5
I4
sba(iGenerate
Edge
p632
(dp633
g4
I4
sg5
I3
sba(iGenerate
Edge
p634
(dp635
g4
I3
sg5
I6
sba(iGenerate
Edge
p636
(dp637
g4
I6
sg5
I5
sba(iGenerate
Edge
p638
(dp639
g4
I5
sg5
I12
sba(iGenerate
Edge
p640
(dp641
g4
I12
sg5
I7
sba(iGenerate
Edge
p642
(dp643
g4
I7
sg5
I13
sba(iGenerate
Edge
p644
(dp645
g4
I13
sg5
I8
sba(iGenerate
Edge
p646
(dp647
g4
I8
sg5
I14
sba(iGenerate
Edge
p648
(dp649
g4
I14
sg5
I9
sba(iGenerate
Edge
p650
(dp651
g4
I9
sg5
I10
sba(iGenerate
Edge
p652
(dp653
g4
I10
sg5
I11
sba(iGenerate
Edge
p654
(dp655
g4
I11
sg5
I15
sba(iGenerate
Edge
p656
(dp657
g4
I15
sg5
I0
sbaa(lp658
(iGenerate
Edge
p659
(dp660
g4
I0
sg5
g6
(g10
S'\x01\x00\x00\x00'
p661
tp662
Rp663
sba(iGenerate
Edge
p664
(dp665
g4
g663
sg5
I2
sba(iGenerate
Edge
p666
(dp667
g4
I2
sg5
I4
sba(iGenerate
Edge
p668
(dp669
g4
I4
sg5
I3
sba(iGenerate
Edge
p670
(dp671
g4
I3
sg5
I6
sba(iGenerate
Edge
p672
(dp673
g4
I6
sg5
I5
sba(iGenerate
Edge
p674
(dp675
g4
I5
sg5
I12
sba(iGenerate
Edge
p676
(dp677
g4
I12
sg5
I7
sba(iGenerate
Edge
p678
(dp679
g4
I7
sg5
I13
sba(iGenerate
Edge
p680
(dp681
g4
I13
sg5
I8
sba(iGenerate
Edge
p682
(dp683
g4
I8
sg5
I14
sba(iGenerate
Edge
p684
(dp685
g4
I14
sg5
I9
sba(iGenerate
Edge
p686
(dp687
g4
I9
sg5
I10
sba(iGenerate
Edge
p688
(dp689
g4
I10
sg5
I11
sba(iGenerate
Edge
p690
(dp691
g4
I11
sg5
I15
sba(iGenerate
Edge
p692
(dp693
g4
I15
sg5
I0
sbaa(lp694
(iGenerate
Edge
p695
(dp696
g4
I0
sg5
g6
(g10
S'\x01\x00\x00\x00'
p697
tp698
Rp699
sba(iGenerate
Edge
p700
(dp701
g4
g699
sg5
I2
sba(iGenerate
Edge
p702
(dp703
g4
I2
sg5
I4
sba(iGenerate
Edge
p704
(dp705
g4
I4
sg5
I3
sba(iGenerate
Edge
p706
(dp707
g4
I3
sg5
I6
sba(iGenerate
Edge
p708
(dp709
g4
I6
sg5
I5
sba(iGenerate
Edge
p710
(dp711
g4
I5
sg5
I12
sba(iGenerate
Edge
p712
(dp713
g4
I12
sg5
I7
sba(iGenerate
Edge
p714
(dp715
g4
I7
sg5
I13
sba(iGenerate
Edge
p716
(dp717
g4
I13
sg5
I8
sba(iGenerate
Edge
p718
(dp719
g4
I8
sg5
I14
sba(iGenerate
Edge
p720
(dp721
g4
I14
sg5
I9
sba(iGenerate
Edge
p722
(dp723
g4
I9
sg5
I10
sba(iGenerate
Edge
p724
(dp725
g4
I10
sg5
I11
sba(iGenerate
Edge
p726
(dp727
g4
I11
sg5
I15
sba(iGenerate
Edge
p728
(dp729
g4
I15
sg5
I0
sbaa(lp730
(iGenerate
Edge
p731
(dp732
g4
I0
sg5
g6
(g10
S'\x01\x00\x00\x00'
p733
tp734
Rp735
sba(iGenerate
Edge
p736
(dp737
g4
g735
sg5
I2
sba(iGenerate
Edge
p738
(dp739
g4
I2
sg5
I4
sba(iGenerate
Edge
p740
(dp741
g4
I4
sg5
I3
sba(iGenerate
Edge
p742
(dp743
g4
I3
sg5
I6
sba(iGenerate
Edge
p744
(dp745
g4
I6
sg5
I5
sba(iGenerate
Edge
p746
(dp747
g4
I5
sg5
I12
sba(iGenerate
Edge
p748
(dp749
g4
I12
sg5
I7
sba(iGenerate
Edge
p750
(dp751
g4
I7
sg5
I13
sba(iGenerate
Edge
p752
(dp753
g4
I13
sg5
I8
sba(iGenerate
Edge
p754
(dp755
g4
I8
sg5
I14
sba(iGenerate
Edge
p756
(dp757
g4
I14
sg5
I9
sba(iGenerate
Edge
p758
(dp759
g4
I9
sg5
I10
sba(iGenerate
Edge
p760
(dp761
g4
I10
sg5
I11
sba(iGenerate
Edge
p762
(dp763
g4
I11
sg5
I15
sba(iGenerate
Edge
p764
(dp765
g4
I15
sg5
I0
sbaa(lp766
(iGenerate
Edge
p767
(dp768
g4
I0
sg5
g6
(g10
S'\x01\x00\x00\x00'
p769
tp770
Rp771
sba(iGenerate
Edge
p772
(dp773
g4
g771
sg5
I2
sba(iGenerate
Edge
p774
(dp775
g4
I2
sg5
I4
sba(iGenerate
Edge
p776
(dp777
g4
I4
sg5
I3
sba(iGenerate
Edge
p778
(dp779
g4
I3
sg5
I6
sba(iGenerate
Edge
p780
(dp781
g4
I6
sg5
I5
sba(iGenerate
Edge
p782
(dp783
g4
I5
sg5
I12
sba(iGenerate
Edge
p784
(dp785
g4
I12
sg5
I7
sba(iGenerate
Edge
p786
(dp787
g4
I7
sg5
I13
sba(iGenerate
Edge
p788
(dp789
g4
I13
sg5
I8
sba(iGenerate
Edge
p790
(dp791
g4
I8
sg5
I14
sba(iGenerate
Edge
p792
(dp793
g4
I14
sg5
I9
sba(iGenerate
Edge
p794
(dp795
g4
I9
sg5
I10
sba(iGenerate
Edge
p796
(dp797
g4
I10
sg5
I11
sba(iGenerate
Edge
p798
(dp799
g4
I11
sg5
I15
sba(iGenerate
Edge
p800
(dp801
g4
I15
sg5
I0
sbaa(lp802
(iGenerate
Edge
p803
(dp804
g4
I0
sg5
g6
(g10
S'\x01\x00\x00\x00'
p805
tp806
Rp807
sba(iGenerate
Edge
p808
(dp809
g4
g807
sg5
I2
sba(iGenerate
Edge
p810
(dp811
g4
I2
sg5
I4
sba(iGenerate
Edge
p812
(dp813
g4
I4
sg5
I3
sba(iGenerate
Edge
p814
(dp815
g4
I3
sg5
I6
sba(iGenerate
Edge
p816
(dp817
g4
I6
sg5
I5
sba(iGenerate
Edge
p818
(dp819
g4
I5
sg5
I12
sba(iGenerate
Edge
p820
(dp821
g4
I12
sg5
I7
sba(iGenerate
Edge
p822
(dp823
g4
I7
sg5
I13
sba(iGenerate
Edge
p824
(dp825
g4
I13
sg5
I8
sba(iGenerate
Edge
p826
(dp827
g4
I8
sg5
I14
sba(iGenerate
Edge
p828
(dp829
g4
I14
sg5
I9
sba(iGenerate
Edge
p830
(dp831
g4
I9
sg5
I10
sba(iGenerate
Edge
p832
(dp833
g4
I10
sg5
I11
sba(iGenerate
Edge
p834
(dp835
g4
I11
sg5
I15
sba(iGenerate
Edge
p836
(dp837
g4
I15
sg5
I0
sbaa(lp838
(iGenerate
Edge
p839
(dp840
g4
I0
sg5
g6
(g10
S'\x01\x00\x00\x00'
p841
tp842
Rp843
sba(iGenerate
Edge
p844
(dp845
g4
g843
sg5
I2
sba(iGenerate
Edge
p846
(dp847
g4
I2
sg5
I4
sba(iGenerate
Edge
p848
(dp849
g4
I4
sg5
I3
sba(iGenerate
Edge
p850
(dp851
g4
I3
sg5
I6
sba(iGenerate
Edge
p852
(dp853
g4
I6
sg5
I5
sba(iGenerate
Edge
p854
(dp855
g4
I5
sg5
I12
sba(iGenerate
Edge
p856
(dp857
g4
I12
sg5
I7
sba(iGenerate
Edge
p858
(dp859
g4
I7
sg5
I13
sba(iGenerate
Edge
p860
(dp861
g4
I13
sg5
I8
sba(iGenerate
Edge
p862
(dp863
g4
I8
sg5
I14
sba(iGenerate
Edge
p864
(dp865
g4
I14
sg5
I9
sba(iGenerate
Edge
p866
(dp867
g4
I9
sg5
I10
sba(iGenerate
Edge
p868
(dp869
g4
I10
sg5
I11
sba(iGenerate
Edge
p870
(dp871
g4
I11
sg5
I15
sba(iGenerate
Edge
p872
(dp873
g4
I15
sg5
I0
sbaa(lp874
(iGenerate
Edge
p875
(dp876
g4
I0
sg5
g6
(g10
S'\x01\x00\x00\x00'
p877
tp878
Rp879
sba(iGenerate
Edge
p880
(dp881
g4
g879
sg5
I2
sba(iGenerate
Edge
p882
(dp883
g4
I2
sg5
I4
sba(iGenerate
Edge
p884
(dp885
g4
I4
sg5
I3
sba(iGenerate
Edge
p886
(dp887
g4
I3
sg5
I6
sba(iGenerate
Edge
p888
(dp889
g4
I6
sg5
I5
sba(iGenerate
Edge
p890
(dp891
g4
I5
sg5
I12
sba(iGenerate
Edge
p892
(dp893
g4
I12
sg5
I7
sba(iGenerate
Edge
p894
(dp895
g4
I7
sg5
I13
sba(iGenerate
Edge
p896
(dp897
g4
I13
sg5
I8
sba(iGenerate
Edge
p898
(dp899
g4
I8
sg5
I14
sba(iGenerate
Edge
p900
(dp901
g4
I14
sg5
I9
sba(iGenerate
Edge
p902
(dp903
g4
I9
sg5
I10
sba(iGenerate
Edge
p904
(dp905
g4
I10
sg5
I11
sba(iGenerate
Edge
p906
(dp907
g4
I11
sg5
I15
sba(iGenerate
Edge
p908
(dp909
g4
I15
sg5
I0
sbaa(lp910
(iGenerate
Edge
p911
(dp912
g4
I0
sg5
g6
(g10
S'\x01\x00\x00\x00'
p913
tp914
Rp915
sba(iGenerate
Edge
p916
(dp917
g4
g915
sg5
I2
sba(iGenerate
Edge
p918
(dp919
g4
I2
sg5
I4
sba(iGenerate
Edge
p920
(dp921
g4
I4
sg5
I3
sba(iGenerate
Edge
p922
(dp923
g4
I3
sg5
I6
sba(iGenerate
Edge
p924
(dp925
g4
I6
sg5
I5
sba(iGenerate
Edge
p926
(dp927
g4
I5
sg5
I12
sba(iGenerate
Edge
p928
(dp929
g4
I12
sg5
I7
sba(iGenerate
Edge
p930
(dp931
g4
I7
sg5
I13
sba(iGenerate
Edge
p932
(dp933
g4
I13
sg5
I8
sba(iGenerate
Edge
p934
(dp935
g4
I8
sg5
I14
sba(iGenerate
Edge
p936
(dp937
g4
I14
sg5
I9
sba(iGenerate
Edge
p938
(dp939
g4
I9
sg5
I10
sba(iGenerate
Edge
p940
(dp941
g4
I10
sg5
I11
sba(iGenerate
Edge
p942
(dp943
g4
I11
sg5
I15
sba(iGenerate
Edge
p944
(dp945
g4
I15
sg5
I0
sbaa(lp946
(iGenerate
Edge
p947
(dp948
g4
I0
sg5
g6
(g10
S'\x01\x00\x00\x00'
p949
tp950
Rp951
sba(iGenerate
Edge
p952
(dp953
g4
g951
sg5
I2
sba(iGenerate
Edge
p954
(dp955
g4
I2
sg5
I4
sba(iGenerate
Edge
p956
(dp957
g4
I4
sg5
I3
sba(iGenerate
Edge
p958
(dp959
g4
I3
sg5
I6
sba(iGenerate
Edge
p960
(dp961
g4
I6
sg5
I5
sba(iGenerate
Edge
p962
(dp963
g4
I5
sg5
I12
sba(iGenerate
Edge
p964
(dp965
g4
I12
sg5
I7
sba(iGenerate
Edge
p966
(dp967
g4
I7
sg5
I13
sba(iGenerate
Edge
p968
(dp969
g4
I13
sg5
I8
sba(iGenerate
Edge
p970
(dp971
g4
I8
sg5
I14
sba(iGenerate
Edge
p972
(dp973
g4
I14
sg5
I9
sba(iGenerate
Edge
p974
(dp975
g4
I9
sg5
I10
sba(iGenerate
Edge
p976
(dp977
g4
I10
sg5
I11
sba(iGenerate
Edge
p978
(dp979
g4
I11
sg5
I15
sba(iGenerate
Edge
p980
(dp981
g4
I15
sg5
I0
sbaa(lp982
(iGenerate
Edge
p983
(dp984
g4
I0
sg5
g6
(g10
S'\x01\x00\x00\x00'
p985
tp986
Rp987
sba(iGenerate
Edge
p988
(dp989
g4
g987
sg5
I2
sba(iGenerate
Edge
p990
(dp991
g4
I2
sg5
I4
sba(iGenerate
Edge
p992
(dp993
g4
I4
sg5
I3
sba(iGenerate
Edge
p994
(dp995
g4
I3
sg5
I6
sba(iGenerate
Edge
p996
(dp997
g4
I6
sg5
I5
sba(iGenerate
Edge
p998
(dp999
g4
I5
sg5
I12
sba(iGenerate
Edge
p1000
(dp1001
g4
I12
sg5
I7
sba(iGenerate
Edge
p1002
(dp1003
g4
I7
sg5
I13
sba(iGenerate
Edge
p1004
(dp1005
g4
I13
sg5
I8
sba(iGenerate
Edge
p1006
(dp1007
g4
I8
sg5
I14
sba(iGenerate
Edge
p1008
(dp1009
g4
I14
sg5
I9
sba(iGenerate
Edge
p1010
(dp1011
g4
I9
sg5
I10
sba(iGenerate
Edge
p1012
(dp1013
g4
I10
sg5
I11
sba(iGenerate
Edge
p1014
(dp1015
g4
I11
sg5
I15
sba(iGenerate
Edge
p1016
(dp1017
g4
I15
sg5
I0
sbaa(lp1018
(iGenerate
Edge
p1019
(dp1020
g4
I0
sg5
g6
(g10
S'\x01\x00\x00\x00'
p1021
tp1022
Rp1023
sba(iGenerate
Edge
p1024
(dp1025
g4
g1023
sg5
I2
sba(iGenerate
Edge
p1026
(dp1027
g4
I2
sg5
I4
sba(iGenerate
Edge
p1028
(dp1029
g4
I4
sg5
I3
sba(iGenerate
Edge
p1030
(dp1031
g4
I3
sg5
I6
sba(iGenerate
Edge
p1032
(dp1033
g4
I6
sg5
I5
sba(iGenerate
Edge
p1034
(dp1035
g4
I5
sg5
I12
sba(iGenerate
Edge
p1036
(dp1037
g4
I12
sg5
I7
sba(iGenerate
Edge
p1038
(dp1039
g4
I7
sg5
I13
sba(iGenerate
Edge
p1040
(dp1041
g4
I13
sg5
I8
sba(iGenerate
Edge
p1042
(dp1043
g4
I8
sg5
I14
sba(iGenerate
Edge
p1044
(dp1045
g4
I14
sg5
I9
sba(iGenerate
Edge
p1046
(dp1047
g4
I9
sg5
I10
sba(iGenerate
Edge
p1048
(dp1049
g4
I10
sg5
I11
sba(iGenerate
Edge
p1050
(dp1051
g4
I11
sg5
I15
sba(iGenerate
Edge
p1052
(dp1053
g4
I15
sg5
I0
sbaa(lp1054
(iGenerate
Edge
p1055
(dp1056
g4
I0
sg5
g6
(g10
S'\x01\x00\x00\x00'
p1057
tp1058
Rp1059
sba(iGenerate
Edge
p1060
(dp1061
g4
g1059
sg5
I2
sba(iGenerate
Edge
p1062
(dp1063
g4
I2
sg5
I4
sba(iGenerate
Edge
p1064
(dp1065
g4
I4
sg5
I3
sba(iGenerate
Edge
p1066
(dp1067
g4
I3
sg5
I6
sba(iGenerate
Edge
p1068
(dp1069
g4
I6
sg5
I5
sba(iGenerate
Edge
p1070
(dp1071
g4
I5
sg5
I12
sba(iGenerate
Edge
p1072
(dp1073
g4
I12
sg5
I7
sba(iGenerate
Edge
p1074
(dp1075
g4
I7
sg5
I13
sba(iGenerate
Edge
p1076
(dp1077
g4
I13
sg5
I8
sba(iGenerate
Edge
p1078
(dp1079
g4
I8
sg5
I14
sba(iGenerate
Edge
p1080
(dp1081
g4
I14
sg5
I9
sba(iGenerate
Edge
p1082
(dp1083
g4
I9
sg5
I10
sba(iGenerate
Edge
p1084
(dp1085
g4
I10
sg5
I11
sba(iGenerate
Edge
p1086
(dp1087
g4
I11
sg5
I15
sba(iGenerate
Edge
p1088
(dp1089
g4
I15
sg5
I0
sbaa(lp1090
(iGenerate
Edge
p1091
(dp1092
g4
I0
sg5
g6
(g10
S'\x01\x00\x00\x00'
p1093
tp1094
Rp1095
sba(iGenerate
Edge
p1096
(dp1097
g4
g1095
sg5
I2
sba(iGenerate
Edge
p1098
(dp1099
g4
I2
sg5
I4
sba(iGenerate
Edge
p1100
(dp1101
g4
I4
sg5
I3
sba(iGenerate
Edge
p1102
(dp1103
g4
I3
sg5
I6
sba(iGenerate
Edge
p1104
(dp1105
g4
I6
sg5
I5
sba(iGenerate
Edge
p1106
(dp1107
g4
I5
sg5
I12
sba(iGenerate
Edge
p1108
(dp1109
g4
I12
sg5
I7
sba(iGenerate
Edge
p1110
(dp1111
g4
I7
sg5
I13
sba(iGenerate
Edge
p1112
(dp1113
g4
I13
sg5
I8
sba(iGenerate
Edge
p1114
(dp1115
g4
I8
sg5
I14
sba(iGenerate
Edge
p1116
(dp1117
g4
I14
sg5
I9
sba(iGenerate
Edge
p1118
(dp1119
g4
I9
sg5
I10
sba(iGenerate
Edge
p1120
(dp1121
g4
I10
sg5
I11
sba(iGenerate
Edge
p1122
(dp1123
g4
I11
sg5
I15
sba(iGenerate
Edge
p1124
(dp1125
g4
I15
sg5
I0
sbaa(lp1126
(iGenerate
Edge
p1127
(dp1128
g4
I0
sg5
g6
(g10
S'\x01\x00\x00\x00'
p1129
tp1130
Rp1131
sba(iGenerate
Edge
p1132
(dp1133
g4
g1131
sg5
I2
sba(iGenerate
Edge
p1134
(dp1135
g4
I2
sg5
I4
sba(iGenerate
Edge
p1136
(dp1137
g4
I4
sg5
I3
sba(iGenerate
Edge
p1138
(dp1139
g4
I3
sg5
I6
sba(iGenerate
Edge
p1140
(dp1141
g4
I6
sg5
I5
sba(iGenerate
Edge
p1142
(dp1143
g4
I5
sg5
I12
sba(iGenerate
Edge
p1144
(dp1145
g4
I12
sg5
I7
sba(iGenerate
Edge
p1146
(dp1147
g4
I7
sg5
I13
sba(iGenerate
Edge
p1148
(dp1149
g4
I13
sg5
I8
sba(iGenerate
Edge
p1150
(dp1151
g4
I8
sg5
I14
sba(iGenerate
Edge
p1152
(dp1153
g4
I14
sg5
I9
sba(iGenerate
Edge
p1154
(dp1155
g4
I9
sg5
I10
sba(iGenerate
Edge
p1156
(dp1157
g4
I10
sg5
I11
sba(iGenerate
Edge
p1158
(dp1159
g4
I11
sg5
I15
sba(iGenerate
Edge
p1160
(dp1161
g4
I15
sg5
I0
sbaa(lp1162
(iGenerate
Edge
p1163
(dp1164
g4
I0
sg5
g6
(g10
S'\x01\x00\x00\x00'
p1165
tp1166
Rp1167
sba(iGenerate
Edge
p1168
(dp1169
g4
g1167
sg5
I2
sba(iGenerate
Edge
p1170
(dp1171
g4
I2
sg5
I4
sba(iGenerate
Edge
p1172
(dp1173
g4
I4
sg5
I3
sba(iGenerate
Edge
p1174
(dp1175
g4
I3
sg5
I6
sba(iGenerate
Edge
p1176
(dp1177
g4
I6
sg5
I5
sba(iGenerate
Edge
p1178
(dp1179
g4
I5
sg5
I12
sba(iGenerate
Edge
p1180
(dp1181
g4
I12
sg5
I7
sba(iGenerate
Edge
p1182
(dp1183
g4
I7
sg5
I13
sba(iGenerate
Edge
p1184
(dp1185
g4
I13
sg5
I8
sba(iGenerate
Edge
p1186
(dp1187
g4
I8
sg5
I14
sba(iGenerate
Edge
p1188
(dp1189
g4
I14
sg5
I9
sba(iGenerate
Edge
p1190
(dp1191
g4
I9
sg5
I10
sba(iGenerate
Edge
p1192
(dp1193
g4
I10
sg5
I11
sba(iGenerate
Edge
p1194
(dp1195
g4
I11
sg5
I15
sba(iGenerate
Edge
p1196
(dp1197
g4
I15
sg5
I0
sbaa(lp1198
(iGenerate
Edge
p1199
(dp1200
g4
I0
sg5
g6
(g10
S'\x01\x00\x00\x00'
p1201
tp1202
Rp1203
sba(iGenerate
Edge
p1204
(dp1205
g4
g1203
sg5
I2
sba(iGenerate
Edge
p1206
(dp1207
g4
I2
sg5
I4
sba(iGenerate
Edge
p1208
(dp1209
g4
I4
sg5
I3
sba(iGenerate
Edge
p1210
(dp1211
g4
I3
sg5
I6
sba(iGenerate
Edge
p1212
(dp1213
g4
I6
sg5
I5
sba(iGenerate
Edge
p1214
(dp1215
g4
I5
sg5
I12
sba(iGenerate
Edge
p1216
(dp1217
g4
I12
sg5
I7
sba(iGenerate
Edge
p1218
(dp1219
g4
I7
sg5
I13
sba(iGenerate
Edge
p1220
(dp1221
g4
I13
sg5
I8
sba(iGenerate
Edge
p1222
(dp1223
g4
I8
sg5
I14
sba(iGenerate
Edge
p1224
(dp1225
g4
I14
sg5
I9
sba(iGenerate
Edge
p1226
(dp1227
g4
I9
sg5
I10
sba(iGenerate
Edge
p1228
(dp1229
g4
I10
sg5
I11
sba(iGenerate
Edge
p1230
(dp1231
g4
I11
sg5
I15
sba(iGenerate
Edge
p1232
(dp1233
g4
I15
sg5
I0
sbaa(lp1234
(iGenerate
Edge
p1235
(dp1236
g4
I0
sg5
g6
(g10
S'\x01\x00\x00\x00'
p1237
tp1238
Rp1239
sba(iGenerate
Edge
p1240
(dp1241
g4
g1239
sg5
I2
sba(iGenerate
Edge
p1242
(dp1243
g4
I2
sg5
I4
sba(iGenerate
Edge
p1244
(dp1245
g4
I4
sg5
I3
sba(iGenerate
Edge
p1246
(dp1247
g4
I3
sg5
I6
sba(iGenerate
Edge
p1248
(dp1249
g4
I6
sg5
I5
sba(iGenerate
Edge
p1250
(dp1251
g4
I5
sg5
I12
sba(iGenerate
Edge
p1252
(dp1253
g4
I12
sg5
I7
sba(iGenerate
Edge
p1254
(dp1255
g4
I7
sg5
I13
sba(iGenerate
Edge
p1256
(dp1257
g4
I13
sg5
I8
sba(iGenerate
Edge
p1258
(dp1259
g4
I8
sg5
I14
sba(iGenerate
Edge
p1260
(dp1261
g4
I14
sg5
I9
sba(iGenerate
Edge
p1262
(dp1263
g4
I9
sg5
I10
sba(iGenerate
Edge
p1264
(dp1265
g4
I10
sg5
I11
sba(iGenerate
Edge
p1266
(dp1267
g4
I11
sg5
I15
sba(iGenerate
Edge
p1268
(dp1269
g4
I15
sg5
I0
sbaa(lp1270
(iGenerate
Edge
p1271
(dp1272
g4
I0
sg5
g6
(g10
S'\x01\x00\x00\x00'
p1273
tp1274
Rp1275
sba(iGenerate
Edge
p1276
(dp1277
g4
g1275
sg5
I2
sba(iGenerate
Edge
p1278
(dp1279
g4
I2
sg5
I4
sba(iGenerate
Edge
p1280
(dp1281
g4
I4
sg5
I3
sba(iGenerate
Edge
p1282
(dp1283
g4
I3
sg5
I6
sba(iGenerate
Edge
p1284
(dp1285
g4
I6
sg5
I5
sba(iGenerate
Edge
p1286
(dp1287
g4
I5
sg5
I12
sba(iGenerate
Edge
p1288
(dp1289
g4
I12
sg5
I7
sba(iGenerate
Edge
p1290
(dp1291
g4
I7
sg5
I13
sba(iGenerate
Edge
p1292
(dp1293
g4
I13
sg5
I8
sba(iGenerate
Edge
p1294
(dp1295
g4
I8
sg5
I14
sba(iGenerate
Edge
p1296
(dp1297
g4
I14
sg5
I9
sba(iGenerate
Edge
p1298
(dp1299
g4
I9
sg5
I10
sba(iGenerate
Edge
p1300
(dp1301
g4
I10
sg5
I11
sba(iGenerate
Edge
p1302
(dp1303
g4
I11
sg5
I15
sba(iGenerate
Edge
p1304
(dp1305
g4
I15
sg5
I0
sbaa(lp1306
(iGenerate
Edge
p1307
(dp1308
g4
I0
sg5
g6
(g10
S'\x01\x00\x00\x00'
p1309
tp1310
Rp1311
sba(iGenerate
Edge
p1312
(dp1313
g4
g1311
sg5
I2
sba(iGenerate
Edge
p1314
(dp1315
g4
I2
sg5
I4
sba(iGenerate
Edge
p1316
(dp1317
g4
I4
sg5
I3
sba(iGenerate
Edge
p1318
(dp1319
g4
I3
sg5
I6
sba(iGenerate
Edge
p1320
(dp1321
g4
I6
sg5
I5
sba(iGenerate
Edge
p1322
(dp1323
g4
I5
sg5
I12
sba(iGenerate
Edge
p1324
(dp1325
g4
I12
sg5
I7
sba(iGenerate
Edge
p1326
(dp1327
g4
I7
sg5
I13
sba(iGenerate
Edge
p1328
(dp1329
g4
I13
sg5
I8
sba(iGenerate
Edge
p1330
(dp1331
g4
I8
sg5
I14
sba(iGenerate
Edge
p1332
(dp1333
g4
I14
sg5
I9
sba(iGenerate
Edge
p1334
(dp1335
g4
I9
sg5
I10
sba(iGenerate
Edge
p1336
(dp1337
g4
I10
sg5
I11
sba(iGenerate
Edge
p1338
(dp1339
g4
I11
sg5
I15
sba(iGenerate
Edge
p1340
(dp1341
g4
I15
sg5
I0
sbaa(lp1342
(iGenerate
Edge
p1343
(dp1344
g4
I0
sg5
g6
(g10
S'\x01\x00\x00\x00'
p1345
tp1346
Rp1347
sba(iGenerate
Edge
p1348
(dp1349
g4
g1347
sg5
I2
sba(iGenerate
Edge
p1350
(dp1351
g4
I2
sg5
I4
sba(iGenerate
Edge
p1352
(dp1353
g4
I4
sg5
I3
sba(iGenerate
Edge
p1354
(dp1355
g4
I3
sg5
I6
sba(iGenerate
Edge
p1356
(dp1357
g4
I6
sg5
I5
sba(iGenerate
Edge
p1358
(dp1359
g4
I5
sg5
I12
sba(iGenerate
Edge
p1360
(dp1361
g4
I12
sg5
I7
sba(iGenerate
Edge
p1362
(dp1363
g4
I7
sg5
I13
sba(iGenerate
Edge
p1364
(dp1365
g4
I13
sg5
I8
sba(iGenerate
Edge
p1366
(dp1367
g4
I8
sg5
I14
sba(iGenerate
Edge
p1368
(dp1369
g4
I14
sg5
I9
sba(iGenerate
Edge
p1370
(dp1371
g4
I9
sg5
I10
sba(iGenerate
Edge
p1372
(dp1373
g4
I10
sg5
I11
sba(iGenerate
Edge
p1374
(dp1375
g4
I11
sg5
I15
sba(iGenerate
Edge
p1376
(dp1377
g4
I15
sg5
I0
sbaa(lp1378
(iGenerate
Edge
p1379
(dp1380
g4
I0
sg5
g6
(g10
S'\x01\x00\x00\x00'
p1381
tp1382
Rp1383
sba(iGenerate
Edge
p1384
(dp1385
g4
g1383
sg5
I2
sba(iGenerate
Edge
p1386
(dp1387
g4
I2
sg5
I4
sba(iGenerate
Edge
p1388
(dp1389
g4
I4
sg5
I3
sba(iGenerate
Edge
p1390
(dp1391
g4
I3
sg5
I6
sba(iGenerate
Edge
p1392
(dp1393
g4
I6
sg5
I5
sba(iGenerate
Edge
p1394
(dp1395
g4
I5
sg5
I12
sba(iGenerate
Edge
p1396
(dp1397
g4
I12
sg5
I7
sba(iGenerate
Edge
p1398
(dp1399
g4
I7
sg5
I13
sba(iGenerate
Edge
p1400
(dp1401
g4
I13
sg5
I8
sba(iGenerate
Edge
p1402
(dp1403
g4
I8
sg5
I14
sba(iGenerate
Edge
p1404
(dp1405
g4
I14
sg5
I9
sba(iGenerate
Edge
p1406
(dp1407
g4
I9
sg5
I10
sba(iGenerate
Edge
p1408
(dp1409
g4
I10
sg5
I11
sba(iGenerate
Edge
p1410
(dp1411
g4
I11
sg5
I15
sba(iGenerate
Edge
p1412
(dp1413
g4
I15
sg5
I0
sbaa(lp1414
(iGenerate
Edge
p1415
(dp1416
g4
I0
sg5
g6
(g10
S'\x01\x00\x00\x00'
p1417
tp1418
Rp1419
sba(iGenerate
Edge
p1420
(dp1421
g4
g1419
sg5
I2
sba(iGenerate
Edge
p1422
(dp1423
g4
I2
sg5
I4
sba(iGenerate
Edge
p1424
(dp1425
g4
I4
sg5
I3
sba(iGenerate
Edge
p1426
(dp1427
g4
I3
sg5
I6
sba(iGenerate
Edge
p1428
(dp1429
g4
I6
sg5
I5
sba(iGenerate
Edge
p1430
(dp1431
g4
I5
sg5
I12
sba(iGenerate
Edge
p1432
(dp1433
g4
I12
sg5
I7
sba(iGenerate
Edge
p1434
(dp1435
g4
I7
sg5
I13
sba(iGenerate
Edge
p1436
(dp1437
g4
I13
sg5
I8
sba(iGenerate
Edge
p1438
(dp1439
g4
I8
sg5
I14
sba(iGenerate
Edge
p1440
(dp1441
g4
I14
sg5
I9
sba(iGenerate
Edge
p1442
(dp1443
g4
I9
sg5
I10
sba(iGenerate
Edge
p1444
(dp1445
g4
I10
sg5
I11
sba(iGenerate
Edge
p1446
(dp1447
g4
I11
sg5
I15
sba(iGenerate
Edge
p1448
(dp1449
g4
I15
sg5
I0
sbaa(lp1450
(iGenerate
Edge
p1451
(dp1452
g4
I0
sg5
g6
(g10
S'\x01\x00\x00\x00'
p1453
tp1454
Rp1455
sba(iGenerate
Edge
p1456
(dp1457
g4
g1455
sg5
I2
sba(iGenerate
Edge
p1458
(dp1459
g4
I2
sg5
I4
sba(iGenerate
Edge
p1460
(dp1461
g4
I4
sg5
I3
sba(iGenerate
Edge
p1462
(dp1463
g4
I3
sg5
I6
sba(iGenerate
Edge
p1464
(dp1465
g4
I6
sg5
I5
sba(iGenerate
Edge
p1466
(dp1467
g4
I5
sg5
I12
sba(iGenerate
Edge
p1468
(dp1469
g4
I12
sg5
I7
sba(iGenerate
Edge
p1470
(dp1471
g4
I7
sg5
I13
sba(iGenerate
Edge
p1472
(dp1473
g4
I13
sg5
I8
sba(iGenerate
Edge
p1474
(dp1475
g4
I8
sg5
I14
sba(iGenerate
Edge
p1476
(dp1477
g4
I14
sg5
I9
sba(iGenerate
Edge
p1478
(dp1479
g4
I9
sg5
I10
sba(iGenerate
Edge
p1480
(dp1481
g4
I10
sg5
I11
sba(iGenerate
Edge
p1482
(dp1483
g4
I11
sg5
I15
sba(iGenerate
Edge
p1484
(dp1485
g4
I15
sg5
I0
sbaa(lp1486
(iGenerate
Edge
p1487
(dp1488
g4
I0
sg5
g6
(g10
S'\x01\x00\x00\x00'
p1489
tp1490
Rp1491
sba(iGenerate
Edge
p1492
(dp1493
g4
g1491
sg5
I2
sba(iGenerate
Edge
p1494
(dp1495
g4
I2
sg5
I4
sba(iGenerate
Edge
p1496
(dp1497
g4
I4
sg5
I3
sba(iGenerate
Edge
p1498
(dp1499
g4
I3
sg5
I6
sba(iGenerate
Edge
p1500
(dp1501
g4
I6
sg5
I5
sba(iGenerate
Edge
p1502
(dp1503
g4
I5
sg5
I12
sba(iGenerate
Edge
p1504
(dp1505
g4
I12
sg5
I7
sba(iGenerate
Edge
p1506
(dp1507
g4
I7
sg5
I13
sba(iGenerate
Edge
p1508
(dp1509
g4
I13
sg5
I8
sba(iGenerate
Edge
p1510
(dp1511
g4
I8
sg5
I14
sba(iGenerate
Edge
p1512
(dp1513
g4
I14
sg5
I9
sba(iGenerate
Edge
p1514
(dp1515
g4
I9
sg5
I10
sba(iGenerate
Edge
p1516
(dp1517
g4
I10
sg5
I11
sba(iGenerate
Edge
p1518
(dp1519
g4
I11
sg5
I15
sba(iGenerate
Edge
p1520
(dp1521
g4
I15
sg5
I0
sbaa(lp1522
(iGenerate
Edge
p1523
(dp1524
g4
I0
sg5
g6
(g10
S'\x01\x00\x00\x00'
p1525
tp1526
Rp1527
sba(iGenerate
Edge
p1528
(dp1529
g4
g1527
sg5
I2
sba(iGenerate
Edge
p1530
(dp1531
g4
I2
sg5
I4
sba(iGenerate
Edge
p1532
(dp1533
g4
I4
sg5
I3
sba(iGenerate
Edge
p1534
(dp1535
g4
I3
sg5
I6
sba(iGenerate
Edge
p1536
(dp1537
g4
I6
sg5
I5
sba(iGenerate
Edge
p1538
(dp1539
g4
I5
sg5
I12
sba(iGenerate
Edge
p1540
(dp1541
g4
I12
sg5
I7
sba(iGenerate
Edge
p1542
(dp1543
g4
I7
sg5
I13
sba(iGenerate
Edge
p1544
(dp1545
g4
I13
sg5
I8
sba(iGenerate
Edge
p1546
(dp1547
g4
I8
sg5
I14
sba(iGenerate
Edge
p1548
(dp1549
g4
I14
sg5
I9
sba(iGenerate
Edge
p1550
(dp1551
g4
I9
sg5
I10
sba(iGenerate
Edge
p1552
(dp1553
g4
I10
sg5
I11
sba(iGenerate
Edge
p1554
(dp1555
g4
I11
sg5
I15
sba(iGenerate
Edge
p1556
(dp1557
g4
I15
sg5
I0
sbaa(lp1558
(iGenerate
Edge
p1559
(dp1560
g4
I0
sg5
g6
(g10
S'\x01\x00\x00\x00'
p1561
tp1562
Rp1563
sba(iGenerate
Edge
p1564
(dp1565
g4
g1563
sg5
I2
sba(iGenerate
Edge
p1566
(dp1567
g4
I2
sg5
I4
sba(iGenerate
Edge
p1568
(dp1569
g4
I4
sg5
I3
sba(iGenerate
Edge
p1570
(dp1571
g4
I3
sg5
I6
sba(iGenerate
Edge
p1572
(dp1573
g4
I6
sg5
I5
sba(iGenerate
Edge
p1574
(dp1575
g4
I5
sg5
I12
sba(iGenerate
Edge
p1576
(dp1577
g4
I12
sg5
I7
sba(iGenerate
Edge
p1578
(dp1579
g4
I7
sg5
I13
sba(iGenerate
Edge
p1580
(dp1581
g4
I13
sg5
I8
sba(iGenerate
Edge
p1582
(dp1583
g4
I8
sg5
I14
sba(iGenerate
Edge
p1584
(dp1585
g4
I14
sg5
I9
sba(iGenerate
Edge
p1586
(dp1587
g4
I9
sg5
I10
sba(iGenerate
Edge
p1588
(dp1589
g4
I10
sg5
I11
sba(iGenerate
Edge
p1590
(dp1591
g4
I11
sg5
I15
sba(iGenerate
Edge
p1592
(dp1593
g4
I15
sg5
I0
sbaa(lp1594
(iGenerate
Edge
p1595
(dp1596
g4
I0
sg5
g6
(g10
S'\x01\x00\x00\x00'
p1597
tp1598
Rp1599
sba(iGenerate
Edge
p1600
(dp1601
g4
g1599
sg5
I2
sba(iGenerate
Edge
p1602
(dp1603
g4
I2
sg5
I4
sba(iGenerate
Edge
p1604
(dp1605
g4
I4
sg5
I3
sba(iGenerate
Edge
p1606
(dp1607
g4
I3
sg5
I6
sba(iGenerate
Edge
p1608
(dp1609
g4
I6
sg5
I5
sba(iGenerate
Edge
p1610
(dp1611
g4
I5
sg5
I12
sba(iGenerate
Edge
p1612
(dp1613
g4
I12
sg5
I7
sba(iGenerate
Edge
p1614
(dp1615
g4
I7
sg5
I13
sba(iGenerate
Edge
p1616
(dp1617
g4
I13
sg5
I8
sba(iGenerate
Edge
p1618
(dp1619
g4
I8
sg5
I14
sba(iGenerate
Edge
p1620
(dp1621
g4
I14
sg5
I9
sba(iGenerate
Edge
p1622
(dp1623
g4
I9
sg5
I10
sba(iGenerate
Edge
p1624
(dp1625
g4
I10
sg5
I11
sba(iGenerate
Edge
p1626
(dp1627
g4
I11
sg5
I15
sba(iGenerate
Edge
p1628
(dp1629
g4
I15
sg5
I0
sbaa(lp1630
(iGenerate
Edge
p1631
(dp1632
g4
I0
sg5
g6
(g10
S'\x01\x00\x00\x00'
p1633
tp1634
Rp1635
sba(iGenerate
Edge
p1636
(dp1637
g4
g1635
sg5
I2
sba(iGenerate
Edge
p1638
(dp1639
g4
I2
sg5
I4
sba(iGenerate
Edge
p1640
(dp1641
g4
I4
sg5
I3
sba(iGenerate
Edge
p1642
(dp1643
g4
I3
sg5
I6
sba(iGenerate
Edge
p1644
(dp1645
g4
I6
sg5
I5
sba(iGenerate
Edge
p1646
(dp1647
g4
I5
sg5
I12
sba(iGenerate
Edge
p1648
(dp1649
g4
I12
sg5
I7
sba(iGenerate
Edge
p1650
(dp1651
g4
I7
sg5
I13
sba(iGenerate
Edge
p1652
(dp1653
g4
I13
sg5
I8
sba(iGenerate
Edge
p1654
(dp1655
g4
I8
sg5
I14
sba(iGenerate
Edge
p1656
(dp1657
g4
I14
sg5
I9
sba(iGenerate
Edge
p1658
(dp1659
g4
I9
sg5
I10
sba(iGenerate
Edge
p1660
(dp1661
g4
I10
sg5
I11
sba(iGenerate
Edge
p1662
(dp1663
g4
I11
sg5
I15
sba(iGenerate
Edge
p1664
(dp1665
g4
I15
sg5
I0
sbaa(lp1666
(iGenerate
Edge
p1667
(dp1668
g4
I0
sg5
g6
(g10
S'\x01\x00\x00\x00'
p1669
tp1670
Rp1671
sba(iGenerate
Edge
p1672
(dp1673
g4
g1671
sg5
I2
sba(iGenerate
Edge
p1674
(dp1675
g4
I2
sg5
I4
sba(iGenerate
Edge
p1676
(dp1677
g4
I4
sg5
I3
sba(iGenerate
Edge
p1678
(dp1679
g4
I3
sg5
I6
sba(iGenerate
Edge
p1680
(dp1681
g4
I6
sg5
I5
sba(iGenerate
Edge
p1682
(dp1683
g4
I5
sg5
I12
sba(iGenerate
Edge
p1684
(dp1685
g4
I12
sg5
I7
sba(iGenerate
Edge
p1686
(dp1687
g4
I7
sg5
I13
sba(iGenerate
Edge
p1688
(dp1689
g4
I13
sg5
I8
sba(iGenerate
Edge
p1690
(dp1691
g4
I8
sg5
I14
sba(iGenerate
Edge
p1692
(dp1693
g4
I14
sg5
I9
sba(iGenerate
Edge
p1694
(dp1695
g4
I9
sg5
I10
sba(iGenerate
Edge
p1696
(dp1697
g4
I10
sg5
I11
sba(iGenerate
Edge
p1698
(dp1699
g4
I11
sg5
I15
sba(iGenerate
Edge
p1700
(dp1701
g4
I15
sg5
I0
sbaa(lp1702
(iGenerate
Edge
p1703
(dp1704
g4
I0
sg5
g6
(g10
S'\x01\x00\x00\x00'
p1705
tp1706
Rp1707
sba(iGenerate
Edge
p1708
(dp1709
g4
g1707
sg5
I2
sba(iGenerate
Edge
p1710
(dp1711
g4
I2
sg5
I4
sba(iGenerate
Edge
p1712
(dp1713
g4
I4
sg5
I3
sba(iGenerate
Edge
p1714
(dp1715
g4
I3
sg5
I6
sba(iGenerate
Edge
p1716
(dp1717
g4
I6
sg5
I5
sba(iGenerate
Edge
p1718
(dp1719
g4
I5
sg5
I12
sba(iGenerate
Edge
p1720
(dp1721
g4
I12
sg5
I7
sba(iGenerate
Edge
p1722
(dp1723
g4
I7
sg5
I13
sba(iGenerate
Edge
p1724
(dp1725
g4
I13
sg5
I8
sba(iGenerate
Edge
p1726
(dp1727
g4
I8
sg5
I14
sba(iGenerate
Edge
p1728
(dp1729
g4
I14
sg5
I9
sba(iGenerate
Edge
p1730
(dp1731
g4
I9
sg5
I10
sba(iGenerate
Edge
p1732
(dp1733
g4
I10
sg5
I11
sba(iGenerate
Edge
p1734
(dp1735
g4
I11
sg5
I15
sba(iGenerate
Edge
p1736
(dp1737
g4
I15
sg5
I0
sbaa(lp1738
(iGenerate
Edge
p1739
(dp1740
g4
I0
sg5
g6
(g10
S'\x01\x00\x00\x00'
p1741
tp1742
Rp1743
sba(iGenerate
Edge
p1744
(dp1745
g4
g1743
sg5
I2
sba(iGenerate
Edge
p1746
(dp1747
g4
I2
sg5
I4
sba(iGenerate
Edge
p1748
(dp1749
g4
I4
sg5
I3
sba(iGenerate
Edge
p1750
(dp1751
g4
I3
sg5
I6
sba(iGenerate
Edge
p1752
(dp1753
g4
I6
sg5
I5
sba(iGenerate
Edge
p1754
(dp1755
g4
I5
sg5
I12
sba(iGenerate
Edge
p1756
(dp1757
g4
I12
sg5
I7
sba(iGenerate
Edge
p1758
(dp1759
g4
I7
sg5
I13
sba(iGenerate
Edge
p1760
(dp1761
g4
I13
sg5
I8
sba(iGenerate
Edge
p1762
(dp1763
g4
I8
sg5
I14
sba(iGenerate
Edge
p1764
(dp1765
g4
I14
sg5
I9
sba(iGenerate
Edge
p1766
(dp1767
g4
I9
sg5
I10
sba(iGenerate
Edge
p1768
(dp1769
g4
I10
sg5
I11
sba(iGenerate
Edge
p1770
(dp1771
g4
I11
sg5
I15
sba(iGenerate
Edge
p1772
(dp1773
g4
I15
sg5
I0
sbaa(lp1774
(iGenerate
Edge
p1775
(dp1776
g4
I0
sg5
g6
(g10
S'\x01\x00\x00\x00'
p1777
tp1778
Rp1779
sba(iGenerate
Edge
p1780
(dp1781
g4
g1779
sg5
I2
sba(iGenerate
Edge
p1782
(dp1783
g4
I2
sg5
I4
sba(iGenerate
Edge
p1784
(dp1785
g4
I4
sg5
I3
sba(iGenerate
Edge
p1786
(dp1787
g4
I3
sg5
I6
sba(iGenerate
Edge
p1788
(dp1789
g4
I6
sg5
I5
sba(iGenerate
Edge
p1790
(dp1791
g4
I5
sg5
I12
sba(iGenerate
Edge
p1792
(dp1793
g4
I12
sg5
I7
sba(iGenerate
Edge
p1794
(dp1795
g4
I7
sg5
I13
sba(iGenerate
Edge
p1796
(dp1797
g4
I13
sg5
I8
sba(iGenerate
Edge
p1798
(dp1799
g4
I8
sg5
I14
sba(iGenerate
Edge
p1800
(dp1801
g4
I14
sg5
I9
sba(iGenerate
Edge
p1802
(dp1803
g4
I9
sg5
I10
sba(iGenerate
Edge
p1804
(dp1805
g4
I10
sg5
I11
sba(iGenerate
Edge
p1806
(dp1807
g4
I11
sg5
I15
sba(iGenerate
Edge
p1808
(dp1809
g4
I15
sg5
I0
sbaa.