(lp0
(lp1
(iGenerate
Edge
p2
(dp3
S'a'
p4
I0
sS'b'
p5
I2
sba(iGenerate
Edge
p6
(dp7
g4
I2
sg5
cnumpy.core.multiarray
scalar
p8
(cnumpy
dtype
p9
(S'i4'
p10
I0
I1
tp11
Rp12
(I3
S'<'
p13
NNNI-1
I-1
I0
tp14
bS'\x04\x00\x00\x00'
p15
tp16
Rp17
sba(iGenerate
Edge
p18
(dp19
g4
g17
sg5
I1
sba(iGenerate
Edge
p20
(dp21
g4
I1
sg5
I3
sba(iGenerate
Edge
p22
(dp23
g4
I3
sg5
I5
sba(iGenerate
Edge
p24
(dp25
g4
I5
sg5
I6
sba(iGenerate
Edge
p26
(dp27
g4
I6
sg5
I0
sbaa(lp28
(iGenerate
Edge
p29
(dp30
g4
I0
sg5
I2
sba(iGenerate
Edge
p31
(dp32
g4
I2
sg5
g8
(g12
S'\x04\x00\x00\x00'
p33
tp34
Rp35
sba(iGenerate
Edge
p36
(dp37
g4
g35
sg5
I1
sba(iGenerate
Edge
p38
(dp39
g4
I1
sg5
I3
sba(iGenerate
Edge
p40
(dp41
g4
I3
sg5
I5
sba(iGenerate
Edge
p42
(dp43
g4
I5
sg5
I6
sba(iGenerate
Edge
p44
(dp45
g4
I6
sg5
I0
sbaa(lp46
(iGenerate
Edge
p47
(dp48
g4
I0
sg5
I2
sba(iGenerate
Edge
p49
(dp50
g4
I2
sg5
g8
(g12
S'\x04\x00\x00\x00'
p51
tp52
Rp53
sba(iGenerate
Edge
p54
(dp55
g4
g53
sg5
I1
sba(iGenerate
Edge
p56
(dp57
g4
I1
sg5
I3
sba(iGenerate
Edge
p58
(dp59
g4
I3
sg5
I5
sba(iGenerate
Edge
p60
(dp61
g4
I5
sg5
I6
sba(iGenerate
Edge
p62
(dp63
g4
I6
sg5
I0
sbaa(lp64
(iGenerate
Edge
p65
(dp66
g4
I0
sg5
I2
sba(iGenerate
Edge
p67
(dp68
g4
I2
sg5
g8
(g12
S'\x04\x00\x00\x00'
p69
tp70
Rp71
sba(iGenerate
Edge
p72
(dp73
g4
g71
sg5
I1
sba(iGenerate
Edge
p74
(dp75
g4
I1
sg5
I3
sba(iGenerate
Edge
p76
(dp77
g4
I3
sg5
I5
sba(iGenerate
Edge
p78
(dp79
g4
I5
sg5
I6
sba(iGenerate
Edge
p80
(dp81
g4
I6
sg5
I0
sbaa(lp82
(iGenerate
Edge
p83
(dp84
g4
I0
sg5
I2
sba(iGenerate
Edge
p85
(dp86
g4
I2
sg5
g8
(g12
S'\x04\x00\x00\x00'
p87
tp88
Rp89
sba(iGenerate
Edge
p90
(dp91
g4
g89
sg5
I1
sba(iGenerate
Edge
p92
(dp93
g4
I1
sg5
I3
sba(iGenerate
Edge
p94
(dp95
g4
I3
sg5
I5
sba(iGenerate
Edge
p96
(dp97
g4
I5
sg5
I6
sba(iGenerate
Edge
p98
(dp99
g4
I6
sg5
I0
sbaa(lp100
(iGenerate
Edge
p101
(dp102
g4
I0
sg5
I2
sba(iGenerate
Edge
p103
(dp104
g4
I2
sg5
g8
(g12
S'\x04\x00\x00\x00'
p105
tp106
Rp107
sba(iGenerate
Edge
p108
(dp109
g4
g107
sg5
I1
sba(iGenerate
Edge
p110
(dp111
g4
I1
sg5
I3
sba(iGenerate
Edge
p112
(dp113
g4
I3
sg5
I5
sba(iGenerate
Edge
p114
(dp115
g4
I5
sg5
I6
sba(iGenerate
Edge
p116
(dp117
g4
I6
sg5
I0
sbaa(lp118
(iGenerate
Edge
p119
(dp120
g4
I0
sg5
I2
sba(iGenerate
Edge
p121
(dp122
g4
I2
sg5
g8
(g12
S'\x04\x00\x00\x00'
p123
tp124
Rp125
sba(iGenerate
Edge
p126
(dp127
g4
g125
sg5
I1
sba(iGenerate
Edge
p128
(dp129
g4
I1
sg5
I3
sba(iGenerate
Edge
p130
(dp131
g4
I3
sg5
I5
sba(iGenerate
Edge
p132
(dp133
g4
I5
sg5
I6
sba(iGenerate
Edge
p134
(dp135
g4
I6
sg5
I0
sbaa(lp136
(iGenerate
Edge
p137
(dp138
g4
I0
sg5
I2
sba(iGenerate
Edge
p139
(dp140
g4
I2
sg5
g8
(g12
S'\x04\x00\x00\x00'
p141
tp142
Rp143
sba(iGenerate
Edge
p144
(dp145
g4
g143
sg5
I1
sba(iGenerate
Edge
p146
(dp147
g4
I1
sg5
I3
sba(iGenerate
Edge
p148
(dp149
g4
I3
sg5
I5
sba(iGenerate
Edge
p150
(dp151
g4
I5
sg5
I6
sba(iGenerate
Edge
p152
(dp153
g4
I6
sg5
I0
sbaa(lp154
(iGenerate
Edge
p155
(dp156
g4
I0
sg5
I2
sba(iGenerate
Edge
p157
(dp158
g4
I2
sg5
g8
(g12
S'\x04\x00\x00\x00'
p159
tp160
Rp161
sba(iGenerate
Edge
p162
(dp163
g4
g161
sg5
I1
sba(iGenerate
Edge
p164
(dp165
g4
I1
sg5
I3
sba(iGenerate
Edge
p166
(dp167
g4
I3
sg5
I5
sba(iGenerate
Edge
p168
(dp169
g4
I5
sg5
I6
sba(iGenerate
Edge
p170
(dp171
g4
I6
sg5
I0
sbaa(lp172
(iGenerate
Edge
p173
(dp174
g4
I0
sg5
I2
sba(iGenerate
Edge
p175
(dp176
g4
I2
sg5
g8
(g12
S'\x04\x00\x00\x00'
p177
tp178
Rp179
sba(iGenerate
Edge
p180
(dp181
g4
g179
sg5
I1
sba(iGenerate
Edge
p182
(dp183
g4
I1
sg5
I3
sba(iGenerate
Edge
p184
(dp185
g4
I3
sg5
I5
sba(iGenerate
Edge
p186
(dp187
g4
I5
sg5
I6
sba(iGenerate
Edge
p188
(dp189
g4
I6
sg5
I0
sbaa(lp190
(iGenerate
Edge
p191
(dp192
g4
I0
sg5
I2
sba(iGenerate
Edge
p193
(dp194
g4
I2
sg5
g8
(g12
S'\x04\x00\x00\x00'
p195
tp196
Rp197
sba(iGenerate
Edge
p198
(dp199
g4
g197
sg5
I1
sba(iGenerate
Edge
p200
(dp201
g4
I1
sg5
I3
sba(iGenerate
Edge
p202
(dp203
g4
I3
sg5
I5
sba(iGenerate
Edge
p204
(dp205
g4
I5
sg5
I6
sba(iGenerate
Edge
p206
(dp207
g4
I6
sg5
I0
sbaa(lp208
(iGenerate
Edge
p209
(dp210
g4
I0
sg5
I2
sba(iGenerate
Edge
p211
(dp212
g4
I2
sg5
g8
(g12
S'\x04\x00\x00\x00'
p213
tp214
Rp215
sba(iGenerate
Edge
p216
(dp217
g4
g215
sg5
I1
sba(iGenerate
Edge
p218
(dp219
g4
I1
sg5
I3
sba(iGenerate
Edge
p220
(dp221
g4
I3
sg5
I5
sba(iGenerate
Edge
p222
(dp223
g4
I5
sg5
I6
sba(iGenerate
Edge
p224
(dp225
g4
I6
sg5
I0
sbaa(lp226
(iGenerate
Edge
p227
(dp228
g4
I0
sg5
I2
sba(iGenerate
Edge
p229
(dp230
g4
I2
sg5
g8
(g12
S'\x04\x00\x00\x00'
p231
tp232
Rp233
sba(iGenerate
Edge
p234
(dp235
g4
g233
sg5
I1
sba(iGenerate
Edge
p236
(dp237
g4
I1
sg5
I3
sba(iGenerate
Edge
p238
(dp239
g4
I3
sg5
I5
sba(iGenerate
Edge
p240
(dp241
g4
I5
sg5
I6
sba(iGenerate
Edge
p242
(dp243
g4
I6
sg5
I0
sbaa(lp244
(iGenerate
Edge
p245
(dp246
g4
I0
sg5
I2
sba(iGenerate
Edge
p247
(dp248
g4
I2
sg5
g8
(g12
S'\x04\x00\x00\x00'
p249
tp250
Rp251
sba(iGenerate
Edge
p252
(dp253
g4
g251
sg5
I1
sba(iGenerate
Edge
p254
(dp255
g4
I1
sg5
I3
sba(iGenerate
Edge
p256
(dp257
g4
I3
sg5
I5
sba(iGenerate
Edge
p258
(dp259
g4
I5
sg5
I6
sba(iGenerate
Edge
p260
(dp261
g4
I6
sg5
I0
sbaa(lp262
(iGenerate
Edge
p263
(dp264
g4
I0
sg5
I2
sba(iGenerate
Edge
p265
(dp266
g4
I2
sg5
g8
(g12
S'\x04\x00\x00\x00'
p267
tp268
Rp269
sba(iGenerate
Edge
p270
(dp271
g4
g269
sg5
I1
sba(iGenerate
Edge
p272
(dp273
g4
I1
sg5
I3
sba(iGenerate
Edge
p274
(dp275
g4
I3
sg5
I5
sba(iGenerate
Edge
p276
(dp277
g4
I5
sg5
I6
sba(iGenerate
Edge
p278
(dp279
g4
I6
sg5
I0
sbaa(lp280
(iGenerate
Edge
p281
(dp282
g4
I0
sg5
I2
sba(iGenerate
Edge
p283
(dp284
g4
I2
sg5
g8
(g12
S'\x04\x00\x00\x00'
p285
tp286
Rp287
sba(iGenerate
Edge
p288
(dp289
g4
g287
sg5
I1
sba(iGenerate
Edge
p290
(dp291
g4
I1
sg5
I3
sba(iGenerate
Edge
p292
(dp293
g4
I3
sg5
I5
sba(iGenerate
Edge
p294
(dp295
g4
I5
sg5
I6
sba(iGenerate
Edge
p296
(dp297
g4
I6
sg5
I0
sbaa(lp298
(iGenerate
Edge
p299
(dp300
g4
I0
sg5
I2
sba(iGenerate
Edge
p301
(dp302
g4
I2
sg5
g8
(g12
S'\x04\x00\x00\x00'
p303
tp304
Rp305
sba(iGenerate
Edge
p306
(dp307
g4
g305
sg5
I1
sba(iGenerate
Edge
p308
(dp309
g4
I1
sg5
I3
sba(iGenerate
Edge
p310
(dp311
g4
I3
sg5
I5
sba(iGenerate
Edge
p312
(dp313
g4
I5
sg5
I6
sba(iGenerate
Edge
p314
(dp315
g4
I6
sg5
I0
sbaa(lp316
(iGenerate
Edge
p317
(dp318
g4
I0
sg5
I2
sba(iGenerate
Edge
p319
(dp320
g4
I2
sg5
g8
(g12
S'\x04\x00\x00\x00'
p321
tp322
Rp323
sba(iGenerate
Edge
p324
(dp325
g4
g323
sg5
I1
sba(iGenerate
Edge
p326
(dp327
g4
I1
sg5
I3
sba(iGenerate
Edge
p328
(dp329
g4
I3
sg5
I5
sba(iGenerate
Edge
p330
(dp331
g4
I5
sg5
I6
sba(iGenerate
Edge
p332
(dp333
g4
I6
sg5
I0
sbaa(lp334
(iGenerate
Edge
p335
(dp336
g4
I0
sg5
I2
sba(iGenerate
Edge
p337
(dp338
g4
I2
sg5
g8
(g12
S'\x04\x00\x00\x00'
p339
tp340
Rp341
sba(iGenerate
Edge
p342
(dp343
g4
g341
sg5
I1
sba(iGenerate
Edge
p344
(dp345
g4
I1
sg5
I3
sba(iGenerate
Edge
p346
(dp347
g4
I3
sg5
I5
sba(iGenerate
Edge
p348
(dp349
g4
I5
sg5
I6
sba(iGenerate
Edge
p350
(dp351
g4
I6
sg5
I0
sbaa(lp352
(iGenerate
Edge
p353
(dp354
g4
I0
sg5
I2
sba(iGenerate
Edge
p355
(dp356
g4
I2
sg5
g8
(g12
S'\x04\x00\x00\x00'
p357
tp358
Rp359
sba(iGenerate
Edge
p360
(dp361
g4
g359
sg5
I1
sba(iGenerate
Edge
p362
(dp363
g4
I1
sg5
I3
sba(iGenerate
Edge
p364
(dp365
g4
I3
sg5
I5
sba(iGenerate
Edge
p366
(dp367
g4
I5
sg5
I6
sba(iGenerate
Edge
p368
(dp369
g4
I6
sg5
I0
sbaa(lp370
(iGenerate
Edge
p371
(dp372
g4
I0
sg5
I2
sba(iGenerate
Edge
p373
(dp374
g4
I2
sg5
g8
(g12
S'\x04\x00\x00\x00'
p375
tp376
Rp377
sba(iGenerate
Edge
p378
(dp379
g4
g377
sg5
I1
sba(iGenerate
Edge
p380
(dp381
g4
I1
sg5
I3
sba(iGenerate
Edge
p382
(dp383
g4
I3
sg5
I5
sba(iGenerate
Edge
p384
(dp385
g4
I5
sg5
I6
sba(iGenerate
Edge
p386
(dp387
g4
I6
sg5
I0
sbaa(lp388
(iGenerate
Edge
p389
(dp390
g4
I0
sg5
I2
sba(iGenerate
Edge
p391
(dp392
g4
I2
sg5
g8
(g12
S'\x04\x00\x00\x00'
p393
tp394
Rp395
sba(iGenerate
Edge
p396
(dp397
g4
g395
sg5
I1
sba(iGenerate
Edge
p398
(dp399
g4
I1
sg5
I3
sba(iGenerate
Edge
p400
(dp401
g4
I3
sg5
I5
sba(iGenerate
Edge
p402
(dp403
g4
I5
sg5
I6
sba(iGenerate
Edge
p404
(dp405
g4
I6
sg5
I0
sbaa(lp406
(iGenerate
Edge
p407
(dp408
g4
I0
sg5
I2
sba(iGenerate
Edge
p409
(dp410
g4
I2
sg5
g8
(g12
S'\x04\x00\x00\x00'
p411
tp412
Rp413
sba(iGenerate
Edge
p414
(dp415
g4
g413
sg5
I1
sba(iGenerate
Edge
p416
(dp417
g4
I1
sg5
I3
sba(iGenerate
Edge
p418
(dp419
g4
I3
sg5
I5
sba(iGenerate
Edge
p420
(dp421
g4
I5
sg5
I6
sba(iGenerate
Edge
p422
(dp423
g4
I6
sg5
I0
sbaa(lp424
(iGenerate
Edge
p425
(dp426
g4
I0
sg5
I2
sba(iGenerate
Edge
p427
(dp428
g4
I2
sg5
g8
(g12
S'\x04\x00\x00\x00'
p429
tp430
Rp431
sba(iGenerate
Edge
p432
(dp433
g4
g431
sg5
I1
sba(iGenerate
Edge
p434
(dp435
g4
I1
sg5
I3
sba(iGenerate
Edge
p436
(dp437
g4
I3
sg5
I5
sba(iGenerate
Edge
p438
(dp439
g4
I5
sg5
I6
sba(iGenerate
Edge
p440
(dp441
g4
I6
sg5
I0
sbaa(lp442
(iGenerate
Edge
p443
(dp444
g4
I0
sg5
I2
sba(iGenerate
Edge
p445
(dp446
g4
I2
sg5
g8
(g12
S'\x04\x00\x00\x00'
p447
tp448
Rp449
sba(iGenerate
Edge
p450
(dp451
g4
g449
sg5
I1
sba(iGenerate
Edge
p452
(dp453
g4
I1
sg5
I3
sba(iGenerate
Edge
p454
(dp455
g4
I3
sg5
I5
sba(iGenerate
Edge
p456
(dp457
g4
I5
sg5
I6
sba(iGenerate
Edge
p458
(dp459
g4
I6
sg5
I0
sbaa(lp460
(iGenerate
Edge
p461
(dp462
g4
I0
sg5
I2
sba(iGenerate
Edge
p463
(dp464
g4
I2
sg5
g8
(g12
S'\x04\x00\x00\x00'
p465
tp466
Rp467
sba(iGenerate
Edge
p468
(dp469
g4
g467
sg5
I1
sba(iGenerate
Edge
p470
(dp471
g4
I1
sg5
I3
sba(iGenerate
Edge
p472
(dp473
g4
I3
sg5
I5
sba(iGenerate
Edge
p474
(dp475
g4
I5
sg5
I6
sba(iGenerate
Edge
p476
(dp477
g4
I6
sg5
I0
sbaa(lp478
(iGenerate
Edge
p479
(dp480
g4
I0
sg5
I2
sba(iGenerate
Edge
p481
(dp482
g4
I2
sg5
g8
(g12
S'\x04\x00\x00\x00'
p483
tp484
Rp485
sba(iGenerate
Edge
p486
(dp487
g4
g485
sg5
I1
sba(iGenerate
Edge
p488
(dp489
g4
I1
sg5
I3
sba(iGenerate
Edge
p490
(dp491
g4
I3
sg5
I5
sba(iGenerate
Edge
p492
(dp493
g4
I5
sg5
I6
sba(iGenerate
Edge
p494
(dp495
g4
I6
sg5
I0
sbaa(lp496
(iGenerate
Edge
p497
(dp498
g4
I0
sg5
I2
sba(iGenerate
Edge
p499
(dp500
g4
I2
sg5
g8
(g12
S'\x04\x00\x00\x00'
p501
tp502
Rp503
sba(iGenerate
Edge
p504
(dp505
g4
g503
sg5
I1
sba(iGenerate
Edge
p506
(dp507
g4
I1
sg5
I3
sba(iGenerate
Edge
p508
(dp509
g4
I3
sg5
I5
sba(iGenerate
Edge
p510
(dp511
g4
I5
sg5
I6
sba(iGenerate
Edge
p512
(dp513
g4
I6
sg5
I0
sbaa(lp514
(iGenerate
Edge
p515
(dp516
g4
I0
sg5
I2
sba(iGenerate
Edge
p517
(dp518
g4
I2
sg5
g8
(g12
S'\x04\x00\x00\x00'
p519
tp520
Rp521
sba(iGenerate
Edge
p522
(dp523
g4
g521
sg5
I1
sba(iGenerate
Edge
p524
(dp525
g4
I1
sg5
I3
sba(iGenerate
Edge
p526
(dp527
g4
I3
sg5
I5
sba(iGenerate
Edge
p528
(dp529
g4
I5
sg5
I6
sba(iGenerate
Edge
p530
(dp531
g4
I6
sg5
I0
sbaa(lp532
(iGenerate
Edge
p533
(dp534
g4
I0
sg5
I2
sba(iGenerate
Edge
p535
(dp536
g4
I2
sg5
g8
(g12
S'\x04\x00\x00\x00'
p537
tp538
Rp539
sba(iGenerate
Edge
p540
(dp541
g4
g539
sg5
I1
sba(iGenerate
Edge
p542
(dp543
g4
I1
sg5
I3
sba(iGenerate
Edge
p544
(dp545
g4
I3
sg5
I5
sba(iGenerate
Edge
p546
(dp547
g4
I5
sg5
I6
sba(iGenerate
Edge
p548
(dp549
g4
I6
sg5
I0
sbaa(lp550
(iGenerate
Edge
p551
(dp552
g4
I0
sg5
I2
sba(iGenerate
Edge
p553
(dp554
g4
I2
sg5
g8
(g12
S'\x04\x00\x00\x00'
p555
tp556
Rp557
sba(iGenerate
Edge
p558
(dp559
g4
g557
sg5
I1
sba(iGenerate
Edge
p560
(dp561
g4
I1
sg5
I3
sba(iGenerate
Edge
p562
(dp563
g4
I3
sg5
I5
sba(iGenerate
Edge
p564
(dp565
g4
I5
sg5
I6
sba(iGenerate
Edge
p566
(dp567
g4
I6
sg5
I0
sbaa(lp568
(iGenerate
Edge
p569
(dp570
g4
I0
sg5
I2
sba(iGenerate
Edge
p571
(dp572
g4
I2
sg5
g8
(g12
S'\x04\x00\x00\x00'
p573
tp574
Rp575
sba(iGenerate
Edge
p576
(dp577
g4
g575
sg5
I1
sba(iGenerate
Edge
p578
(dp579
g4
I1
sg5
I3
sba(iGenerate
Edge
p580
(dp581
g4
I3
sg5
I5
sba(iGenerate
Edge
p582
(dp583
g4
I5
sg5
I6
sba(iGenerate
Edge
p584
(dp585
g4
I6
sg5
I0
sbaa(lp586
(iGenerate
Edge
p587
(dp588
g4
I0
sg5
I2
sba(iGenerate
Edge
p589
(dp590
g4
I2
sg5
g8
(g12
S'\x04\x00\x00\x00'
p591
tp592
Rp593
sba(iGenerate
Edge
p594
(dp595
g4
g593
sg5
I1
sba(iGenerate
Edge
p596
(dp597
g4
I1
sg5
I3
sba(iGenerate
Edge
p598
(dp599
g4
I3
sg5
I5
sba(iGenerate
Edge
p600
(dp601
g4
I5
sg5
I6
sba(iGenerate
Edge
p602
(dp603
g4
I6
sg5
I0
sbaa(lp604
(iGenerate
Edge
p605
(dp606
g4
I0
sg5
I2
sba(iGenerate
Edge
p607
(dp608
g4
I2
sg5
g8
(g12
S'\x04\x00\x00\x00'
p609
tp610
Rp611
sba(iGenerate
Edge
p612
(dp613
g4
g611
sg5
I1
sba(iGenerate
Edge
p614
(dp615
g4
I1
sg5
I3
sba(iGenerate
Edge
p616
(dp617
g4
I3
sg5
I5
sba(iGenerate
Edge
p618
(dp619
g4
I5
sg5
I6
sba(iGenerate
Edge
p620
(dp621
g4
I6
sg5
I0
sbaa(lp622
(iGenerate
Edge
p623
(dp624
g4
I0
sg5
I2
sba(iGenerate
Edge
p625
(dp626
g4
I2
sg5
g8
(g12
S'\x04\x00\x00\x00'
p627
tp628
Rp629
sba(iGenerate
Edge
p630
(dp631
g4
g629
sg5
I1
sba(iGenerate
Edge
p632
(dp633
g4
I1
sg5
I3
sba(iGenerate
Edge
p634
(dp635
g4
I3
sg5
I5
sba(iGenerate
Edge
p636
(dp637
g4
I5
sg5
I6
sba(iGenerate
Edge
p638
(dp639
g4
I6
sg5
I0
sbaa(lp640
(iGenerate
Edge
p641
(dp642
g4
I0
sg5
I2
sba(iGenerate
Edge
p643
(dp644
g4
I2
sg5
g8
(g12
S'\x04\x00\x00\x00'
p645
tp646
Rp647
sba(iGenerate
Edge
p648
(dp649
g4
g647
sg5
I1
sba(iGenerate
Edge
p650
(dp651
g4
I1
sg5
I3
sba(iGenerate
Edge
p652
(dp653
g4
I3
sg5
I5
sba(iGenerate
Edge
p654
(dp655
g4
I5
sg5
I6
sba(iGenerate
Edge
p656
(dp657
g4
I6
sg5
I0
sbaa(lp658
(iGenerate
Edge
p659
(dp660
g4
I0
sg5
I2
sba(iGenerate
Edge
p661
(dp662
g4
I2
sg5
g8
(g12
S'\x04\x00\x00\x00'
p663
tp664
Rp665
sba(iGenerate
Edge
p666
(dp667
g4
g665
sg5
I1
sba(iGenerate
Edge
p668
(dp669
g4
I1
sg5
I3
sba(iGenerate
Edge
p670
(dp671
g4
I3
sg5
I5
sba(iGenerate
Edge
p672
(dp673
g4
I5
sg5
I6
sba(iGenerate
Edge
p674
(dp675
g4
I6
sg5
I0
sbaa(lp676
(iGenerate
Edge
p677
(dp678
g4
I0
sg5
I2
sba(iGenerate
Edge
p679
(dp680
g4
I2
sg5
g8
(g12
S'\x04\x00\x00\x00'
p681
tp682
Rp683
sba(iGenerate
Edge
p684
(dp685
g4
g683
sg5
I1
sba(iGenerate
Edge
p686
(dp687
g4
I1
sg5
I3
sba(iGenerate
Edge
p688
(dp689
g4
I3
sg5
I5
sba(iGenerate
Edge
p690
(dp691
g4
I5
sg5
I6
sba(iGenerate
Edge
p692
(dp693
g4
I6
sg5
I0
sbaa(lp694
(iGenerate
Edge
p695
(dp696
g4
I0
sg5
I2
sba(iGenerate
Edge
p697
(dp698
g4
I2
sg5
g8
(g12
S'\x04\x00\x00\x00'
p699
tp700
Rp701
sba(iGenerate
Edge
p702
(dp703
g4
g701
sg5
I1
sba(iGenerate
Edge
p704
(dp705
g4
I1
sg5
I3
sba(iGenerate
Edge
p706
(dp707
g4
I3
sg5
I5
sba(iGenerate
Edge
p708
(dp709
g4
I5
sg5
I6
sba(iGenerate
Edge
p710
(dp711
g4
I6
sg5
I0
sbaa(lp712
(iGenerate
Edge
p713
(dp714
g4
I0
sg5
I2
sba(iGenerate
Edge
p715
(dp716
g4
I2
sg5
g8
(g12
S'\x04\x00\x00\x00'
p717
tp718
Rp719
sba(iGenerate
Edge
p720
(dp721
g4
g719
sg5
I1
sba(iGenerate
Edge
p722
(dp723
g4
I1
sg5
I3
sba(iGenerate
Edge
p724
(dp725
g4
I3
sg5
I5
sba(iGenerate
Edge
p726
(dp727
g4
I5
sg5
I6
sba(iGenerate
Edge
p728
(dp729
g4
I6
sg5
I0
sbaa(lp730
(iGenerate
Edge
p731
(dp732
g4
I0
sg5
I2
sba(iGenerate
Edge
p733
(dp734
g4
I2
sg5
g8
(g12
S'\x04\x00\x00\x00'
p735
tp736
Rp737
sba(iGenerate
Edge
p738
(dp739
g4
g737
sg5
I1
sba(iGenerate
Edge
p740
(dp741
g4
I1
sg5
I3
sba(iGenerate
Edge
p742
(dp743
g4
I3
sg5
I5
sba(iGenerate
Edge
p744
(dp745
g4
I5
sg5
I6
sba(iGenerate
Edge
p746
(dp747
g4
I6
sg5
I0
sbaa(lp748
(iGenerate
Edge
p749
(dp750
g4
I0
sg5
I2
sba(iGenerate
Edge
p751
(dp752
g4
I2
sg5
g8
(g12
S'\x04\x00\x00\x00'
p753
tp754
Rp755
sba(iGenerate
Edge
p756
(dp757
g4
g755
sg5
I1
sba(iGenerate
Edge
p758
(dp759
g4
I1
sg5
I3
sba(iGenerate
Edge
p760
(dp761
g4
I3
sg5
I5
sba(iGenerate
Edge
p762
(dp763
g4
I5
sg5
I6
sba(iGenerate
Edge
p764
(dp765
g4
I6
sg5
I0
sbaa(lp766
(iGenerate
Edge
p767
(dp768
g4
I0
sg5
I2
sba(iGenerate
Edge
p769
(dp770
g4
I2
sg5
g8
(g12
S'\x04\x00\x00\x00'
p771
tp772
Rp773
sba(iGenerate
Edge
p774
(dp775
g4
g773
sg5
I1
sba(iGenerate
Edge
p776
(dp777
g4
I1
sg5
I3
sba(iGenerate
Edge
p778
(dp779
g4
I3
sg5
I5
sba(iGenerate
Edge
p780
(dp781
g4
I5
sg5
I6
sba(iGenerate
Edge
p782
(dp783
g4
I6
sg5
I0
sbaa(lp784
(iGenerate
Edge
p785
(dp786
g4
I0
sg5
I2
sba(iGenerate
Edge
p787
(dp788
g4
I2
sg5
g8
(g12
S'\x04\x00\x00\x00'
p789
tp790
Rp791
sba(iGenerate
Edge
p792
(dp793
g4
g791
sg5
I1
sba(iGenerate
Edge
p794
(dp795
g4
I1
sg5
I3
sba(iGenerate
Edge
p796
(dp797
g4
I3
sg5
I5
sba(iGenerate
Edge
p798
(dp799
g4
I5
sg5
I6
sba(iGenerate
Edge
p800
(dp801
g4
I6
sg5
I0
sbaa(lp802
(iGenerate
Edge
p803
(dp804
g4
I0
sg5
I2
sba(iGenerate
Edge
p805
(dp806
g4
I2
sg5
g8
(g12
S'\x04\x00\x00\x00'
p807
tp808
Rp809
sba(iGenerate
Edge
p810
(dp811
g4
g809
sg5
I1
sba(iGenerate
Edge
p812
(dp813
g4
I1
sg5
I3
sba(iGenerate
Edge
p814
(dp815
g4
I3
sg5
I5
sba(iGenerate
Edge
p816
(dp817
g4
I5
sg5
I6
sba(iGenerate
Edge
p818
(dp819
g4
I6
sg5
I0
sbaa(lp820
(iGenerate
Edge
p821
(dp822
g4
I0
sg5
I2
sba(iGenerate
Edge
p823
(dp824
g4
I2
sg5
g8
(g12
S'\x04\x00\x00\x00'
p825
tp826
Rp827
sba(iGenerate
Edge
p828
(dp829
g4
g827
sg5
I1
sba(iGenerate
Edge
p830
(dp831
g4
I1
sg5
I3
sba(iGenerate
Edge
p832
(dp833
g4
I3
sg5
I5
sba(iGenerate
Edge
p834
(dp835
g4
I5
sg5
I6
sba(iGenerate
Edge
p836
(dp837
g4
I6
sg5
I0
sbaa(lp838
(iGenerate
Edge
p839
(dp840
g4
I0
sg5
I2
sba(iGenerate
Edge
p841
(dp842
g4
I2
sg5
g8
(g12
S'\x04\x00\x00\x00'
p843
tp844
Rp845
sba(iGenerate
Edge
p846
(dp847
g4
g845
sg5
I1
sba(iGenerate
Edge
p848
(dp849
g4
I1
sg5
I3
sba(iGenerate
Edge
p850
(dp851
g4
I3
sg5
I5
sba(iGenerate
Edge
p852
(dp853
g4
I5
sg5
I6
sba(iGenerate
Edge
p854
(dp855
g4
I6
sg5
I0
sbaa(lp856
(iGenerate
Edge
p857
(dp858
g4
I0
sg5
I2
sba(iGenerate
Edge
p859
(dp860
g4
I2
sg5
g8
(g12
S'\x04\x00\x00\x00'
p861
tp862
Rp863
sba(iGenerate
Edge
p864
(dp865
g4
g863
sg5
I1
sba(iGenerate
Edge
p866
(dp867
g4
I1
sg5
I3
sba(iGenerate
Edge
p868
(dp869
g4
I3
sg5
I5
sba(iGenerate
Edge
p870
(dp871
g4
I5
sg5
I6
sba(iGenerate
Edge
p872
(dp873
g4
I6
sg5
I0
sbaa(lp874
(iGenerate
Edge
p875
(dp876
g4
I0
sg5
I2
sba(iGenerate
Edge
p877
(dp878
g4
I2
sg5
g8
(g12
S'\x04\x00\x00\x00'
p879
tp880
Rp881
sba(iGenerate
Edge
p882
(dp883
g4
g881
sg5
I1
sba(iGenerate
Edge
p884
(dp885
g4
I1
sg5
I3
sba(iGenerate
Edge
p886
(dp887
g4
I3
sg5
I5
sba(iGenerate
Edge
p888
(dp889
g4
I5
sg5
I6
sba(iGenerate
Edge
p890
(dp891
g4
I6
sg5
I0
sbaa(lp892
(iGenerate
Edge
p893
(dp894
g4
I0
sg5
I2
sba(iGenerate
Edge
p895
(dp896
g4
I2
sg5
g8
(g12
S'\x04\x00\x00\x00'
p897
tp898
Rp899
sba(iGenerate
Edge
p900
(dp901
g4
g899
sg5
I1
sba(iGenerate
Edge
p902
(dp903
g4
I1
sg5
I3
sba(iGenerate
Edge
p904
(dp905
g4
I3
sg5
I5
sba(iGenerate
Edge
p906
(dp907
g4
I5
sg5
I6
sba(iGenerate
Edge
p908
(dp909
g4
I6
sg5
I0
sbaa.