(lp0
(lp1
(iGenerate
Edge
p2
(dp3
S'a'
p4
I0
sS'b'
p5
I3
sba(iGenerate
Edge
p6
(dp7
g4
I3
sg5
cnumpy.core.multiarray
scalar
p8
(cnumpy
dtype
p9
(S'i4'
p10
I0
I1
tp11
Rp12
(I3
S'<'
p13
NNNI-1
I-1
I0
tp14
bS'\x04\x00\x00\x00'
p15
tp16
Rp17
sba(iGenerate
Edge
p18
(dp19
g4
g17
sg5
I1
sba(iGenerate
Edge
p20
(dp21
g4
I1
sg5
I5
sba(iGenerate
Edge
p22
(dp23
g4
I5
sg5
I2
sba(iGenerate
Edge
p24
(dp25
g4
I2
sg5
I6
sba(iGenerate
Edge
p26
(dp27
g4
I6
sg5
I7
sba(iGenerate
Edge
p28
(dp29
g4
I7
sg5
I8
sba(iGenerate
Edge
p30
(dp31
g4
I8
sg5
I9
sba(iGenerate
Edge
p32
(dp33
g4
I9
sg5
I11
sba(iGenerate
Edge
p34
(dp35
g4
I11
sg5
I10
sba(iGenerate
Edge
p36
(dp37
g4
I10
sg5
I12
sba(iGenerate
Edge
p38
(dp39
g4
I12
sg5
I0
sbaa(lp40
(iGenerate
Edge
p41
(dp42
g4
I0
sg5
I3
sba(iGenerate
Edge
p43
(dp44
g4
I3
sg5
g8
(g12
S'\x04\x00\x00\x00'
p45
tp46
Rp47
sba(iGenerate
Edge
p48
(dp49
g4
g47
sg5
I1
sba(iGenerate
Edge
p50
(dp51
g4
I1
sg5
I5
sba(iGenerate
Edge
p52
(dp53
g4
I5
sg5
I2
sba(iGenerate
Edge
p54
(dp55
g4
I2
sg5
I6
sba(iGenerate
Edge
p56
(dp57
g4
I6
sg5
I7
sba(iGenerate
Edge
p58
(dp59
g4
I7
sg5
I8
sba(iGenerate
Edge
p60
(dp61
g4
I8
sg5
I9
sba(iGenerate
Edge
p62
(dp63
g4
I9
sg5
I11
sba(iGenerate
Edge
p64
(dp65
g4
I11
sg5
I10
sba(iGenerate
Edge
p66
(dp67
g4
I10
sg5
I12
sba(iGenerate
Edge
p68
(dp69
g4
I12
sg5
I0
sbaa(lp70
(iGenerate
Edge
p71
(dp72
g4
I0
sg5
I3
sba(iGenerate
Edge
p73
(dp74
g4
I3
sg5
g8
(g12
S'\x04\x00\x00\x00'
p75
tp76
Rp77
sba(iGenerate
Edge
p78
(dp79
g4
g77
sg5
I1
sba(iGenerate
Edge
p80
(dp81
g4
I1
sg5
I5
sba(iGenerate
Edge
p82
(dp83
g4
I5
sg5
I2
sba(iGenerate
Edge
p84
(dp85
g4
I2
sg5
I6
sba(iGenerate
Edge
p86
(dp87
g4
I6
sg5
I7
sba(iGenerate
Edge
p88
(dp89
g4
I7
sg5
I8
sba(iGenerate
Edge
p90
(dp91
g4
I8
sg5
I9
sba(iGenerate
Edge
p92
(dp93
g4
I9
sg5
I11
sba(iGenerate
Edge
p94
(dp95
g4
I11
sg5
I10
sba(iGenerate
Edge
p96
(dp97
g4
I10
sg5
I12
sba(iGenerate
Edge
p98
(dp99
g4
I12
sg5
I0
sbaa(lp100
(iGenerate
Edge
p101
(dp102
g4
I0
sg5
I3
sba(iGenerate
Edge
p103
(dp104
g4
I3
sg5
g8
(g12
S'\x04\x00\x00\x00'
p105
tp106
Rp107
sba(iGenerate
Edge
p108
(dp109
g4
g107
sg5
I1
sba(iGenerate
Edge
p110
(dp111
g4
I1
sg5
I5
sba(iGenerate
Edge
p112
(dp113
g4
I5
sg5
I2
sba(iGenerate
Edge
p114
(dp115
g4
I2
sg5
I6
sba(iGenerate
Edge
p116
(dp117
g4
I6
sg5
I7
sba(iGenerate
Edge
p118
(dp119
g4
I7
sg5
I8
sba(iGenerate
Edge
p120
(dp121
g4
I8
sg5
I9
sba(iGenerate
Edge
p122
(dp123
g4
I9
sg5
I11
sba(iGenerate
Edge
p124
(dp125
g4
I11
sg5
I10
sba(iGenerate
Edge
p126
(dp127
g4
I10
sg5
I12
sba(iGenerate
Edge
p128
(dp129
g4
I12
sg5
I0
sbaa(lp130
(iGenerate
Edge
p131
(dp132
g4
I0
sg5
I3
sba(iGenerate
Edge
p133
(dp134
g4
I3
sg5
g8
(g12
S'\x04\x00\x00\x00'
p135
tp136
Rp137
sba(iGenerate
Edge
p138
(dp139
g4
g137
sg5
I1
sba(iGenerate
Edge
p140
(dp141
g4
I1
sg5
I5
sba(iGenerate
Edge
p142
(dp143
g4
I5
sg5
I2
sba(iGenerate
Edge
p144
(dp145
g4
I2
sg5
I6
sba(iGenerate
Edge
p146
(dp147
g4
I6
sg5
I7
sba(iGenerate
Edge
p148
(dp149
g4
I7
sg5
I8
sba(iGenerate
Edge
p150
(dp151
g4
I8
sg5
I9
sba(iGenerate
Edge
p152
(dp153
g4
I9
sg5
I11
sba(iGenerate
Edge
p154
(dp155
g4
I11
sg5
I10
sba(iGenerate
Edge
p156
(dp157
g4
I10
sg5
I12
sba(iGenerate
Edge
p158
(dp159
g4
I12
sg5
I0
sbaa(lp160
(iGenerate
Edge
p161
(dp162
g4
I0
sg5
I3
sba(iGenerate
Edge
p163
(dp164
g4
I3
sg5
g8
(g12
S'\x04\x00\x00\x00'
p165
tp166
Rp167
sba(iGenerate
Edge
p168
(dp169
g4
g167
sg5
I1
sba(iGenerate
Edge
p170
(dp171
g4
I1
sg5
I5
sba(iGenerate
Edge
p172
(dp173
g4
I5
sg5
I2
sba(iGenerate
Edge
p174
(dp175
g4
I2
sg5
I6
sba(iGenerate
Edge
p176
(dp177
g4
I6
sg5
I7
sba(iGenerate
Edge
p178
(dp179
g4
I7
sg5
I8
sba(iGenerate
Edge
p180
(dp181
g4
I8
sg5
I9
sba(iGenerate
Edge
p182
(dp183
g4
I9
sg5
I11
sba(iGenerate
Edge
p184
(dp185
g4
I11
sg5
I10
sba(iGenerate
Edge
p186
(dp187
g4
I10
sg5
I12
sba(iGenerate
Edge
p188
(dp189
g4
I12
sg5
I0
sbaa(lp190
(iGenerate
Edge
p191
(dp192
g4
I0
sg5
I3
sba(iGenerate
Edge
p193
(dp194
g4
I3
sg5
g8
(g12
S'\x04\x00\x00\x00'
p195
tp196
Rp197
sba(iGenerate
Edge
p198
(dp199
g4
g197
sg5
I1
sba(iGenerate
Edge
p200
(dp201
g4
I1
sg5
I5
sba(iGenerate
Edge
p202
(dp203
g4
I5
sg5
I2
sba(iGenerate
Edge
p204
(dp205
g4
I2
sg5
I6
sba(iGenerate
Edge
p206
(dp207
g4
I6
sg5
I7
sba(iGenerate
Edge
p208
(dp209
g4
I7
sg5
I8
sba(iGenerate
Edge
p210
(dp211
g4
I8
sg5
I9
sba(iGenerate
Edge
p212
(dp213
g4
I9
sg5
I11
sba(iGenerate
Edge
p214
(dp215
g4
I11
sg5
I10
sba(iGenerate
Edge
p216
(dp217
g4
I10
sg5
I12
sba(iGenerate
Edge
p218
(dp219
g4
I12
sg5
I0
sbaa(lp220
(iGenerate
Edge
p221
(dp222
g4
I0
sg5
I3
sba(iGenerate
Edge
p223
(dp224
g4
I3
sg5
g8
(g12
S'\x04\x00\x00\x00'
p225
tp226
Rp227
sba(iGenerate
Edge
p228
(dp229
g4
g227
sg5
I1
sba(iGenerate
Edge
p230
(dp231
g4
I1
sg5
I5
sba(iGenerate
Edge
p232
(dp233
g4
I5
sg5
I2
sba(iGenerate
Edge
p234
(dp235
g4
I2
sg5
I6
sba(iGenerate
Edge
p236
(dp237
g4
I6
sg5
I7
sba(iGenerate
Edge
p238
(dp239
g4
I7
sg5
I8
sba(iGenerate
Edge
p240
(dp241
g4
I8
sg5
I9
sba(iGenerate
Edge
p242
(dp243
g4
I9
sg5
I11
sba(iGenerate
Edge
p244
(dp245
g4
I11
sg5
I10
sba(iGenerate
Edge
p246
(dp247
g4
I10
sg5
I12
sba(iGenerate
Edge
p248
(dp249
g4
I12
sg5
I0
sbaa(lp250
(iGenerate
Edge
p251
(dp252
g4
I0
sg5
I3
sba(iGenerate
Edge
p253
(dp254
g4
I3
sg5
g8
(g12
S'\x04\x00\x00\x00'
p255
tp256
Rp257
sba(iGenerate
Edge
p258
(dp259
g4
g257
sg5
I1
sba(iGenerate
Edge
p260
(dp261
g4
I1
sg5
I5
sba(iGenerate
Edge
p262
(dp263
g4
I5
sg5
I2
sba(iGenerate
Edge
p264
(dp265
g4
I2
sg5
I6
sba(iGenerate
Edge
p266
(dp267
g4
I6
sg5
I7
sba(iGenerate
Edge
p268
(dp269
g4
I7
sg5
I8
sba(iGenerate
Edge
p270
(dp271
g4
I8
sg5
I9
sba(iGenerate
Edge
p272
(dp273
g4
I9
sg5
I11
sba(iGenerate
Edge
p274
(dp275
g4
I11
sg5
I10
sba(iGenerate
Edge
p276
(dp277
g4
I10
sg5
I12
sba(iGenerate
Edge
p278
(dp279
g4
I12
sg5
I0
sbaa(lp280
(iGenerate
Edge
p281
(dp282
g4
I0
sg5
I3
sba(iGenerate
Edge
p283
(dp284
g4
I3
sg5
g8
(g12
S'\x04\x00\x00\x00'
p285
tp286
Rp287
sba(iGenerate
Edge
p288
(dp289
g4
g287
sg5
I1
sba(iGenerate
Edge
p290
(dp291
g4
I1
sg5
I5
sba(iGenerate
Edge
p292
(dp293
g4
I5
sg5
I2
sba(iGenerate
Edge
p294
(dp295
g4
I2
sg5
I6
sba(iGenerate
Edge
p296
(dp297
g4
I6
sg5
I7
sba(iGenerate
Edge
p298
(dp299
g4
I7
sg5
I8
sba(iGenerate
Edge
p300
(dp301
g4
I8
sg5
I9
sba(iGenerate
Edge
p302
(dp303
g4
I9
sg5
I11
sba(iGenerate
Edge
p304
(dp305
g4
I11
sg5
I10
sba(iGenerate
Edge
p306
(dp307
g4
I10
sg5
I12
sba(iGenerate
Edge
p308
(dp309
g4
I12
sg5
I0
sbaa(lp310
(iGenerate
Edge
p311
(dp312
g4
I0
sg5
I3
sba(iGenerate
Edge
p313
(dp314
g4
I3
sg5
g8
(g12
S'\x04\x00\x00\x00'
p315
tp316
Rp317
sba(iGenerate
Edge
p318
(dp319
g4
g317
sg5
I1
sba(iGenerate
Edge
p320
(dp321
g4
I1
sg5
I5
sba(iGenerate
Edge
p322
(dp323
g4
I5
sg5
I2
sba(iGenerate
Edge
p324
(dp325
g4
I2
sg5
I6
sba(iGenerate
Edge
p326
(dp327
g4
I6
sg5
I7
sba(iGenerate
Edge
p328
(dp329
g4
I7
sg5
I8
sba(iGenerate
Edge
p330
(dp331
g4
I8
sg5
I9
sba(iGenerate
Edge
p332
(dp333
g4
I9
sg5
I11
sba(iGenerate
Edge
p334
(dp335
g4
I11
sg5
I10
sba(iGenerate
Edge
p336
(dp337
g4
I10
sg5
I12
sba(iGenerate
Edge
p338
(dp339
g4
I12
sg5
I0
sbaa(lp340
(iGenerate
Edge
p341
(dp342
g4
I0
sg5
I3
sba(iGenerate
Edge
p343
(dp344
g4
I3
sg5
g8
(g12
S'\x04\x00\x00\x00'
p345
tp346
Rp347
sba(iGenerate
Edge
p348
(dp349
g4
g347
sg5
I1
sba(iGenerate
Edge
p350
(dp351
g4
I1
sg5
I5
sba(iGenerate
Edge
p352
(dp353
g4
I5
sg5
I2
sba(iGenerate
Edge
p354
(dp355
g4
I2
sg5
I6
sba(iGenerate
Edge
p356
(dp357
g4
I6
sg5
I7
sba(iGenerate
Edge
p358
(dp359
g4
I7
sg5
I8
sba(iGenerate
Edge
p360
(dp361
g4
I8
sg5
I9
sba(iGenerate
Edge
p362
(dp363
g4
I9
sg5
I11
sba(iGenerate
Edge
p364
(dp365
g4
I11
sg5
I10
sba(iGenerate
Edge
p366
(dp367
g4
I10
sg5
I12
sba(iGenerate
Edge
p368
(dp369
g4
I12
sg5
I0
sbaa(lp370
(iGenerate
Edge
p371
(dp372
g4
I0
sg5
I3
sba(iGenerate
Edge
p373
(dp374
g4
I3
sg5
g8
(g12
S'\x04\x00\x00\x00'
p375
tp376
Rp377
sba(iGenerate
Edge
p378
(dp379
g4
g377
sg5
I1
sba(iGenerate
Edge
p380
(dp381
g4
I1
sg5
I5
sba(iGenerate
Edge
p382
(dp383
g4
I5
sg5
I2
sba(iGenerate
Edge
p384
(dp385
g4
I2
sg5
I6
sba(iGenerate
Edge
p386
(dp387
g4
I6
sg5
I7
sba(iGenerate
Edge
p388
(dp389
g4
I7
sg5
I8
sba(iGenerate
Edge
p390
(dp391
g4
I8
sg5
I9
sba(iGenerate
Edge
p392
(dp393
g4
I9
sg5
I11
sba(iGenerate
Edge
p394
(dp395
g4
I11
sg5
I10
sba(iGenerate
Edge
p396
(dp397
g4
I10
sg5
I12
sba(iGenerate
Edge
p398
(dp399
g4
I12
sg5
I0
sbaa(lp400
(iGenerate
Edge
p401
(dp402
g4
I0
sg5
I3
sba(iGenerate
Edge
p403
(dp404
g4
I3
sg5
g8
(g12
S'\x04\x00\x00\x00'
p405
tp406
Rp407
sba(iGenerate
Edge
p408
(dp409
g4
g407
sg5
I1
sba(iGenerate
Edge
p410
(dp411
g4
I1
sg5
I5
sba(iGenerate
Edge
p412
(dp413
g4
I5
sg5
I2
sba(iGenerate
Edge
p414
(dp415
g4
I2
sg5
I6
sba(iGenerate
Edge
p416
(dp417
g4
I6
sg5
I7
sba(iGenerate
Edge
p418
(dp419
g4
I7
sg5
I8
sba(iGenerate
Edge
p420
(dp421
g4
I8
sg5
I9
sba(iGenerate
Edge
p422
(dp423
g4
I9
sg5
I11
sba(iGenerate
Edge
p424
(dp425
g4
I11
sg5
I10
sba(iGenerate
Edge
p426
(dp427
g4
I10
sg5
I12
sba(iGenerate
Edge
p428
(dp429
g4
I12
sg5
I0
sbaa(lp430
(iGenerate
Edge
p431
(dp432
g4
I0
sg5
I3
sba(iGenerate
Edge
p433
(dp434
g4
I3
sg5
g8
(g12
S'\x04\x00\x00\x00'
p435
tp436
Rp437
sba(iGenerate
Edge
p438
(dp439
g4
g437
sg5
I1
sba(iGenerate
Edge
p440
(dp441
g4
I1
sg5
I5
sba(iGenerate
Edge
p442
(dp443
g4
I5
sg5
I2
sba(iGenerate
Edge
p444
(dp445
g4
I2
sg5
I6
sba(iGenerate
Edge
p446
(dp447
g4
I6
sg5
I7
sba(iGenerate
Edge
p448
(dp449
g4
I7
sg5
I8
sba(iGenerate
Edge
p450
(dp451
g4
I8
sg5
I9
sba(iGenerate
Edge
p452
(dp453
g4
I9
sg5
I11
sba(iGenerate
Edge
p454
(dp455
g4
I11
sg5
I10
sba(iGenerate
Edge
p456
(dp457
g4
I10
sg5
I12
sba(iGenerate
Edge
p458
(dp459
g4
I12
sg5
I0
sbaa(lp460
(iGenerate
Edge
p461
(dp462
g4
I0
sg5
I3
sba(iGenerate
Edge
p463
(dp464
g4
I3
sg5
g8
(g12
S'\x04\x00\x00\x00'
p465
tp466
Rp467
sba(iGenerate
Edge
p468
(dp469
g4
g467
sg5
I1
sba(iGenerate
Edge
p470
(dp471
g4
I1
sg5
I5
sba(iGenerate
Edge
p472
(dp473
g4
I5
sg5
I2
sba(iGenerate
Edge
p474
(dp475
g4
I2
sg5
I6
sba(iGenerate
Edge
p476
(dp477
g4
I6
sg5
I7
sba(iGenerate
Edge
p478
(dp479
g4
I7
sg5
I8
sba(iGenerate
Edge
p480
(dp481
g4
I8
sg5
I9
sba(iGenerate
Edge
p482
(dp483
g4
I9
sg5
I11
sba(iGenerate
Edge
p484
(dp485
g4
I11
sg5
I10
sba(iGenerate
Edge
p486
(dp487
g4
I10
sg5
I12
sba(iGenerate
Edge
p488
(dp489
g4
I12
sg5
I0
sbaa(lp490
(iGenerate
Edge
p491
(dp492
g4
I0
sg5
I3
sba(iGenerate
Edge
p493
(dp494
g4
I3
sg5
g8
(g12
S'\x04\x00\x00\x00'
p495
tp496
Rp497
sba(iGenerate
Edge
p498
(dp499
g4
g497
sg5
I1
sba(iGenerate
Edge
p500
(dp501
g4
I1
sg5
I5
sba(iGenerate
Edge
p502
(dp503
g4
I5
sg5
I2
sba(iGenerate
Edge
p504
(dp505
g4
I2
sg5
I6
sba(iGenerate
Edge
p506
(dp507
g4
I6
sg5
I7
sba(iGenerate
Edge
p508
(dp509
g4
I7
sg5
I8
sba(iGenerate
Edge
p510
(dp511
g4
I8
sg5
I9
sba(iGenerate
Edge
p512
(dp513
g4
I9
sg5
I11
sba(iGenerate
Edge
p514
(dp515
g4
I11
sg5
I10
sba(iGenerate
Edge
p516
(dp517
g4
I10
sg5
I12
sba(iGenerate
Edge
p518
(dp519
g4
I12
sg5
I0
sbaa(lp520
(iGenerate
Edge
p521
(dp522
g4
I0
sg5
I3
sba(iGenerate
Edge
p523
(dp524
g4
I3
sg5
g8
(g12
S'\x04\x00\x00\x00'
p525
tp526
Rp527
sba(iGenerate
Edge
p528
(dp529
g4
g527
sg5
I1
sba(iGenerate
Edge
p530
(dp531
g4
I1
sg5
I5
sba(iGenerate
Edge
p532
(dp533
g4
I5
sg5
I2
sba(iGenerate
Edge
p534
(dp535
g4
I2
sg5
I6
sba(iGenerate
Edge
p536
(dp537
g4
I6
sg5
I7
sba(iGenerate
Edge
p538
(dp539
g4
I7
sg5
I8
sba(iGenerate
Edge
p540
(dp541
g4
I8
sg5
I9
sba(iGenerate
Edge
p542
(dp543
g4
I9
sg5
I11
sba(iGenerate
Edge
p544
(dp545
g4
I11
sg5
I10
sba(iGenerate
Edge
p546
(dp547
g4
I10
sg5
I12
sba(iGenerate
Edge
p548
(dp549
g4
I12
sg5
I0
sbaa(lp550
(iGenerate
Edge
p551
(dp552
g4
I0
sg5
I3
sba(iGenerate
Edge
p553
(dp554
g4
I3
sg5
g8
(g12
S'\x04\x00\x00\x00'
p555
tp556
Rp557
sba(iGenerate
Edge
p558
(dp559
g4
g557
sg5
I1
sba(iGenerate
Edge
p560
(dp561
g4
I1
sg5
I5
sba(iGenerate
Edge
p562
(dp563
g4
I5
sg5
I2
sba(iGenerate
Edge
p564
(dp565
g4
I2
sg5
I6
sba(iGenerate
Edge
p566
(dp567
g4
I6
sg5
I7
sba(iGenerate
Edge
p568
(dp569
g4
I7
sg5
I8
sba(iGenerate
Edge
p570
(dp571
g4
I8
sg5
I9
sba(iGenerate
Edge
p572
(dp573
g4
I9
sg5
I11
sba(iGenerate
Edge
p574
(dp575
g4
I11
sg5
I10
sba(iGenerate
Edge
p576
(dp577
g4
I10
sg5
I12
sba(iGenerate
Edge
p578
(dp579
g4
I12
sg5
I0
sbaa(lp580
(iGenerate
Edge
p581
(dp582
g4
I0
sg5
I3
sba(iGenerate
Edge
p583
(dp584
g4
I3
sg5
g8
(g12
S'\x04\x00\x00\x00'
p585
tp586
Rp587
sba(iGenerate
Edge
p588
(dp589
g4
g587
sg5
I1
sba(iGenerate
Edge
p590
(dp591
g4
I1
sg5
I5
sba(iGenerate
Edge
p592
(dp593
g4
I5
sg5
I2
sba(iGenerate
Edge
p594
(dp595
g4
I2
sg5
I6
sba(iGenerate
Edge
p596
(dp597
g4
I6
sg5
I7
sba(iGenerate
Edge
p598
(dp599
g4
I7
sg5
I8
sba(iGenerate
Edge
p600
(dp601
g4
I8
sg5
I9
sba(iGenerate
Edge
p602
(dp603
g4
I9
sg5
I11
sba(iGenerate
Edge
p604
(dp605
g4
I11
sg5
I10
sba(iGenerate
Edge
p606
(dp607
g4
I10
sg5
I12
sba(iGenerate
Edge
p608
(dp609
g4
I12
sg5
I0
sbaa(lp610
(iGenerate
Edge
p611
(dp612
g4
I0
sg5
I3
sba(iGenerate
Edge
p613
(dp614
g4
I3
sg5
g8
(g12
S'\x04\x00\x00\x00'
p615
tp616
Rp617
sba(iGenerate
Edge
p618
(dp619
g4
g617
sg5
I1
sba(iGenerate
Edge
p620
(dp621
g4
I1
sg5
I5
sba(iGenerate
Edge
p622
(dp623
g4
I5
sg5
I2
sba(iGenerate
Edge
p624
(dp625
g4
I2
sg5
I6
sba(iGenerate
Edge
p626
(dp627
g4
I6
sg5
I7
sba(iGenerate
Edge
p628
(dp629
g4
I7
sg5
I8
sba(iGenerate
Edge
p630
(dp631
g4
I8
sg5
I9
sba(iGenerate
Edge
p632
(dp633
g4
I9
sg5
I11
sba(iGenerate
Edge
p634
(dp635
g4
I11
sg5
I10
sba(iGenerate
Edge
p636
(dp637
g4
I10
sg5
I12
sba(iGenerate
Edge
p638
(dp639
g4
I12
sg5
I0
sbaa(lp640
(iGenerate
Edge
p641
(dp642
g4
I0
sg5
I3
sba(iGenerate
Edge
p643
(dp644
g4
I3
sg5
g8
(g12
S'\x04\x00\x00\x00'
p645
tp646
Rp647
sba(iGenerate
Edge
p648
(dp649
g4
g647
sg5
I1
sba(iGenerate
Edge
p650
(dp651
g4
I1
sg5
I5
sba(iGenerate
Edge
p652
(dp653
g4
I5
sg5
I2
sba(iGenerate
Edge
p654
(dp655
g4
I2
sg5
I6
sba(iGenerate
Edge
p656
(dp657
g4
I6
sg5
I7
sba(iGenerate
Edge
p658
(dp659
g4
I7
sg5
I8
sba(iGenerate
Edge
p660
(dp661
g4
I8
sg5
I9
sba(iGenerate
Edge
p662
(dp663
g4
I9
sg5
I11
sba(iGenerate
Edge
p664
(dp665
g4
I11
sg5
I10
sba(iGenerate
Edge
p666
(dp667
g4
I10
sg5
I12
sba(iGenerate
Edge
p668
(dp669
g4
I12
sg5
I0
sbaa(lp670
(iGenerate
Edge
p671
(dp672
g4
I0
sg5
I3
sba(iGenerate
Edge
p673
(dp674
g4
I3
sg5
g8
(g12
S'\x04\x00\x00\x00'
p675
tp676
Rp677
sba(iGenerate
Edge
p678
(dp679
g4
g677
sg5
I1
sba(iGenerate
Edge
p680
(dp681
g4
I1
sg5
I5
sba(iGenerate
Edge
p682
(dp683
g4
I5
sg5
I2
sba(iGenerate
Edge
p684
(dp685
g4
I2
sg5
I6
sba(iGenerate
Edge
p686
(dp687
g4
I6
sg5
I7
sba(iGenerate
Edge
p688
(dp689
g4
I7
sg5
I8
sba(iGenerate
Edge
p690
(dp691
g4
I8
sg5
I9
sba(iGenerate
Edge
p692
(dp693
g4
I9
sg5
I11
sba(iGenerate
Edge
p694
(dp695
g4
I11
sg5
I10
sba(iGenerate
Edge
p696
(dp697
g4
I10
sg5
I12
sba(iGenerate
Edge
p698
(dp699
g4
I12
sg5
I0
sbaa(lp700
(iGenerate
Edge
p701
(dp702
g4
I0
sg5
I3
sba(iGenerate
Edge
p703
(dp704
g4
I3
sg5
g8
(g12
S'\x04\x00\x00\x00'
p705
tp706
Rp707
sba(iGenerate
Edge
p708
(dp709
g4
g707
sg5
I1
sba(iGenerate
Edge
p710
(dp711
g4
I1
sg5
I5
sba(iGenerate
Edge
p712
(dp713
g4
I5
sg5
I2
sba(iGenerate
Edge
p714
(dp715
g4
I2
sg5
I6
sba(iGenerate
Edge
p716
(dp717
g4
I6
sg5
I7
sba(iGenerate
Edge
p718
(dp719
g4
I7
sg5
I8
sba(iGenerate
Edge
p720
(dp721
g4
I8
sg5
I9
sba(iGenerate
Edge
p722
(dp723
g4
I9
sg5
I11
sba(iGenerate
Edge
p724
(dp725
g4
I11
sg5
I10
sba(iGenerate
Edge
p726
(dp727
g4
I10
sg5
I12
sba(iGenerate
Edge
p728
(dp729
g4
I12
sg5
I0
sbaa(lp730
(iGenerate
Edge
p731
(dp732
g4
I0
sg5
I3
sba(iGenerate
Edge
p733
(dp734
g4
I3
sg5
g8
(g12
S'\x04\x00\x00\x00'
p735
tp736
Rp737
sba(iGenerate
Edge
p738
(dp739
g4
g737
sg5
I1
sba(iGenerate
Edge
p740
(dp741
g4
I1
sg5
I5
sba(iGenerate
Edge
p742
(dp743
g4
I5
sg5
I2
sba(iGenerate
Edge
p744
(dp745
g4
I2
sg5
I6
sba(iGenerate
Edge
p746
(dp747
g4
I6
sg5
I7
sba(iGenerate
Edge
p748
(dp749
g4
I7
sg5
I8
sba(iGenerate
Edge
p750
(dp751
g4
I8
sg5
I9
sba(iGenerate
Edge
p752
(dp753
g4
I9
sg5
I11
sba(iGenerate
Edge
p754
(dp755
g4
I11
sg5
I10
sba(iGenerate
Edge
p756
(dp757
g4
I10
sg5
I12
sba(iGenerate
Edge
p758
(dp759
g4
I12
sg5
I0
sbaa(lp760
(iGenerate
Edge
p761
(dp762
g4
I0
sg5
I3
sba(iGenerate
Edge
p763
(dp764
g4
I3
sg5
g8
(g12
S'\x04\x00\x00\x00'
p765
tp766
Rp767
sba(iGenerate
Edge
p768
(dp769
g4
g767
sg5
I1
sba(iGenerate
Edge
p770
(dp771
g4
I1
sg5
I5
sba(iGenerate
Edge
p772
(dp773
g4
I5
sg5
I2
sba(iGenerate
Edge
p774
(dp775
g4
I2
sg5
I6
sba(iGenerate
Edge
p776
(dp777
g4
I6
sg5
I7
sba(iGenerate
Edge
p778
(dp779
g4
I7
sg5
I8
sba(iGenerate
Edge
p780
(dp781
g4
I8
sg5
I9
sba(iGenerate
Edge
p782
(dp783
g4
I9
sg5
I11
sba(iGenerate
Edge
p784
(dp785
g4
I11
sg5
I10
sba(iGenerate
Edge
p786
(dp787
g4
I10
sg5
I12
sba(iGenerate
Edge
p788
(dp789
g4
I12
sg5
I0
sbaa(lp790
(iGenerate
Edge
p791
(dp792
g4
I0
sg5
I3
sba(iGenerate
Edge
p793
(dp794
g4
I3
sg5
g8
(g12
S'\x04\x00\x00\x00'
p795
tp796
Rp797
sba(iGenerate
Edge
p798
(dp799
g4
g797
sg5
I1
sba(iGenerate
Edge
p800
(dp801
g4
I1
sg5
I5
sba(iGenerate
Edge
p802
(dp803
g4
I5
sg5
I2
sba(iGenerate
Edge
p804
(dp805
g4
I2
sg5
I6
sba(iGenerate
Edge
p806
(dp807
g4
I6
sg5
I7
sba(iGenerate
Edge
p808
(dp809
g4
I7
sg5
I8
sba(iGenerate
Edge
p810
(dp811
g4
I8
sg5
I9
sba(iGenerate
Edge
p812
(dp813
g4
I9
sg5
I11
sba(iGenerate
Edge
p814
(dp815
g4
I11
sg5
I10
sba(iGenerate
Edge
p816
(dp817
g4
I10
sg5
I12
sba(iGenerate
Edge
p818
(dp819
g4
I12
sg5
I0
sbaa(lp820
(iGenerate
Edge
p821
(dp822
g4
I0
sg5
I3
sba(iGenerate
Edge
p823
(dp824
g4
I3
sg5
g8
(g12
S'\x04\x00\x00\x00'
p825
tp826
Rp827
sba(iGenerate
Edge
p828
(dp829
g4
g827
sg5
I1
sba(iGenerate
Edge
p830
(dp831
g4
I1
sg5
I5
sba(iGenerate
Edge
p832
(dp833
g4
I5
sg5
I2
sba(iGenerate
Edge
p834
(dp835
g4
I2
sg5
I6
sba(iGenerate
Edge
p836
(dp837
g4
I6
sg5
I7
sba(iGenerate
Edge
p838
(dp839
g4
I7
sg5
I8
sba(iGenerate
Edge
p840
(dp841
g4
I8
sg5
I9
sba(iGenerate
Edge
p842
(dp843
g4
I9
sg5
I11
sba(iGenerate
Edge
p844
(dp845
g4
I11
sg5
I10
sba(iGenerate
Edge
p846
(dp847
g4
I10
sg5
I12
sba(iGenerate
Edge
p848
(dp849
g4
I12
sg5
I0
sbaa(lp850
(iGenerate
Edge
p851
(dp852
g4
I0
sg5
I3
sba(iGenerate
Edge
p853
(dp854
g4
I3
sg5
g8
(g12
S'\x04\x00\x00\x00'
p855
tp856
Rp857
sba(iGenerate
Edge
p858
(dp859
g4
g857
sg5
I1
sba(iGenerate
Edge
p860
(dp861
g4
I1
sg5
I5
sba(iGenerate
Edge
p862
(dp863
g4
I5
sg5
I2
sba(iGenerate
Edge
p864
(dp865
g4
I2
sg5
I6
sba(iGenerate
Edge
p866
(dp867
g4
I6
sg5
I7
sba(iGenerate
Edge
p868
(dp869
g4
I7
sg5
I8
sba(iGenerate
Edge
p870
(dp871
g4
I8
sg5
I9
sba(iGenerate
Edge
p872
(dp873
g4
I9
sg5
I11
sba(iGenerate
Edge
p874
(dp875
g4
I11
sg5
I10
sba(iGenerate
Edge
p876
(dp877
g4
I10
sg5
I12
sba(iGenerate
Edge
p878
(dp879
g4
I12
sg5
I0
sbaa(lp880
(iGenerate
Edge
p881
(dp882
g4
I0
sg5
I3
sba(iGenerate
Edge
p883
(dp884
g4
I3
sg5
g8
(g12
S'\x04\x00\x00\x00'
p885
tp886
Rp887
sba(iGenerate
Edge
p888
(dp889
g4
g887
sg5
I1
sba(iGenerate
Edge
p890
(dp891
g4
I1
sg5
I5
sba(iGenerate
Edge
p892
(dp893
g4
I5
sg5
I2
sba(iGenerate
Edge
p894
(dp895
g4
I2
sg5
I6
sba(iGenerate
Edge
p896
(dp897
g4
I6
sg5
I7
sba(iGenerate
Edge
p898
(dp899
g4
I7
sg5
I8
sba(iGenerate
Edge
p900
(dp901
g4
I8
sg5
I9
sba(iGenerate
Edge
p902
(dp903
g4
I9
sg5
I11
sba(iGenerate
Edge
p904
(dp905
g4
I11
sg5
I10
sba(iGenerate
Edge
p906
(dp907
g4
I10
sg5
I12
sba(iGenerate
Edge
p908
(dp909
g4
I12
sg5
I0
sbaa(lp910
(iGenerate
Edge
p911
(dp912
g4
I0
sg5
I3
sba(iGenerate
Edge
p913
(dp914
g4
I3
sg5
g8
(g12
S'\x04\x00\x00\x00'
p915
tp916
Rp917
sba(iGenerate
Edge
p918
(dp919
g4
g917
sg5
I1
sba(iGenerate
Edge
p920
(dp921
g4
I1
sg5
I5
sba(iGenerate
Edge
p922
(dp923
g4
I5
sg5
I2
sba(iGenerate
Edge
p924
(dp925
g4
I2
sg5
I6
sba(iGenerate
Edge
p926
(dp927
g4
I6
sg5
I7
sba(iGenerate
Edge
p928
(dp929
g4
I7
sg5
I8
sba(iGenerate
Edge
p930
(dp931
g4
I8
sg5
I9
sba(iGenerate
Edge
p932
(dp933
g4
I9
sg5
I11
sba(iGenerate
Edge
p934
(dp935
g4
I11
sg5
I10
sba(iGenerate
Edge
p936
(dp937
g4
I10
sg5
I12
sba(iGenerate
Edge
p938
(dp939
g4
I12
sg5
I0
sbaa(lp940
(iGenerate
Edge
p941
(dp942
g4
I0
sg5
I3
sba(iGenerate
Edge
p943
(dp944
g4
I3
sg5
g8
(g12
S'\x04\x00\x00\x00'
p945
tp946
Rp947
sba(iGenerate
Edge
p948
(dp949
g4
g947
sg5
I1
sba(iGenerate
Edge
p950
(dp951
g4
I1
sg5
I5
sba(iGenerate
Edge
p952
(dp953
g4
I5
sg5
I2
sba(iGenerate
Edge
p954
(dp955
g4
I2
sg5
I6
sba(iGenerate
Edge
p956
(dp957
g4
I6
sg5
I7
sba(iGenerate
Edge
p958
(dp959
g4
I7
sg5
I8
sba(iGenerate
Edge
p960
(dp961
g4
I8
sg5
I9
sba(iGenerate
Edge
p962
(dp963
g4
I9
sg5
I11
sba(iGenerate
Edge
p964
(dp965
g4
I11
sg5
I10
sba(iGenerate
Edge
p966
(dp967
g4
I10
sg5
I12
sba(iGenerate
Edge
p968
(dp969
g4
I12
sg5
I0
sbaa(lp970
(iGenerate
Edge
p971
(dp972
g4
I0
sg5
I3
sba(iGenerate
Edge
p973
(dp974
g4
I3
sg5
g8
(g12
S'\x04\x00\x00\x00'
p975
tp976
Rp977
sba(iGenerate
Edge
p978
(dp979
g4
g977
sg5
I1
sba(iGenerate
Edge
p980
(dp981
g4
I1
sg5
I5
sba(iGenerate
Edge
p982
(dp983
g4
I5
sg5
I2
sba(iGenerate
Edge
p984
(dp985
g4
I2
sg5
I6
sba(iGenerate
Edge
p986
(dp987
g4
I6
sg5
I7
sba(iGenerate
Edge
p988
(dp989
g4
I7
sg5
I8
sba(iGenerate
Edge
p990
(dp991
g4
I8
sg5
I9
sba(iGenerate
Edge
p992
(dp993
g4
I9
sg5
I11
sba(iGenerate
Edge
p994
(dp995
g4
I11
sg5
I10
sba(iGenerate
Edge
p996
(dp997
g4
I10
sg5
I12
sba(iGenerate
Edge
p998
(dp999
g4
I12
sg5
I0
sbaa(lp1000
(iGenerate
Edge
p1001
(dp1002
g4
I0
sg5
I3
sba(iGenerate
Edge
p1003
(dp1004
g4
I3
sg5
g8
(g12
S'\x04\x00\x00\x00'
p1005
tp1006
Rp1007
sba(iGenerate
Edge
p1008
(dp1009
g4
g1007
sg5
I1
sba(iGenerate
Edge
p1010
(dp1011
g4
I1
sg5
I5
sba(iGenerate
Edge
p1012
(dp1013
g4
I5
sg5
I2
sba(iGenerate
Edge
p1014
(dp1015
g4
I2
sg5
I6
sba(iGenerate
Edge
p1016
(dp1017
g4
I6
sg5
I7
sba(iGenerate
Edge
p1018
(dp1019
g4
I7
sg5
I8
sba(iGenerate
Edge
p1020
(dp1021
g4
I8
sg5
I9
sba(iGenerate
Edge
p1022
(dp1023
g4
I9
sg5
I11
sba(iGenerate
Edge
p1024
(dp1025
g4
I11
sg5
I10
sba(iGenerate
Edge
p1026
(dp1027
g4
I10
sg5
I12
sba(iGenerate
Edge
p1028
(dp1029
g4
I12
sg5
I0
sbaa(lp1030
(iGenerate
Edge
p1031
(dp1032
g4
I0
sg5
I3
sba(iGenerate
Edge
p1033
(dp1034
g4
I3
sg5
g8
(g12
S'\x04\x00\x00\x00'
p1035
tp1036
Rp1037
sba(iGenerate
Edge
p1038
(dp1039
g4
g1037
sg5
I1
sba(iGenerate
Edge
p1040
(dp1041
g4
I1
sg5
I5
sba(iGenerate
Edge
p1042
(dp1043
g4
I5
sg5
I2
sba(iGenerate
Edge
p1044
(dp1045
g4
I2
sg5
I6
sba(iGenerate
Edge
p1046
(dp1047
g4
I6
sg5
I7
sba(iGenerate
Edge
p1048
(dp1049
g4
I7
sg5
I8
sba(iGenerate
Edge
p1050
(dp1051
g4
I8
sg5
I9
sba(iGenerate
Edge
p1052
(dp1053
g4
I9
sg5
I11
sba(iGenerate
Edge
p1054
(dp1055
g4
I11
sg5
I10
sba(iGenerate
Edge
p1056
(dp1057
g4
I10
sg5
I12
sba(iGenerate
Edge
p1058
(dp1059
g4
I12
sg5
I0
sbaa(lp1060
(iGenerate
Edge
p1061
(dp1062
g4
I0
sg5
I3
sba(iGenerate
Edge
p1063
(dp1064
g4
I3
sg5
g8
(g12
S'\x04\x00\x00\x00'
p1065
tp1066
Rp1067
sba(iGenerate
Edge
p1068
(dp1069
g4
g1067
sg5
I1
sba(iGenerate
Edge
p1070
(dp1071
g4
I1
sg5
I5
sba(iGenerate
Edge
p1072
(dp1073
g4
I5
sg5
I2
sba(iGenerate
Edge
p1074
(dp1075
g4
I2
sg5
I6
sba(iGenerate
Edge
p1076
(dp1077
g4
I6
sg5
I7
sba(iGenerate
Edge
p1078
(dp1079
g4
I7
sg5
I8
sba(iGenerate
Edge
p1080
(dp1081
g4
I8
sg5
I9
sba(iGenerate
Edge
p1082
(dp1083
g4
I9
sg5
I11
sba(iGenerate
Edge
p1084
(dp1085
g4
I11
sg5
I10
sba(iGenerate
Edge
p1086
(dp1087
g4
I10
sg5
I12
sba(iGenerate
Edge
p1088
(dp1089
g4
I12
sg5
I0
sbaa(lp1090
(iGenerate
Edge
p1091
(dp1092
g4
I0
sg5
I3
sba(iGenerate
Edge
p1093
(dp1094
g4
I3
sg5
g8
(g12
S'\x04\x00\x00\x00'
p1095
tp1096
Rp1097
sba(iGenerate
Edge
p1098
(dp1099
g4
g1097
sg5
I1
sba(iGenerate
Edge
p1100
(dp1101
g4
I1
sg5
I5
sba(iGenerate
Edge
p1102
(dp1103
g4
I5
sg5
I2
sba(iGenerate
Edge
p1104
(dp1105
g4
I2
sg5
I6
sba(iGenerate
Edge
p1106
(dp1107
g4
I6
sg5
I7
sba(iGenerate
Edge
p1108
(dp1109
g4
I7
sg5
I8
sba(iGenerate
Edge
p1110
(dp1111
g4
I8
sg5
I9
sba(iGenerate
Edge
p1112
(dp1113
g4
I9
sg5
I11
sba(iGenerate
Edge
p1114
(dp1115
g4
I11
sg5
I10
sba(iGenerate
Edge
p1116
(dp1117
g4
I10
sg5
I12
sba(iGenerate
Edge
p1118
(dp1119
g4
I12
sg5
I0
sbaa(lp1120
(iGenerate
Edge
p1121
(dp1122
g4
I0
sg5
I3
sba(iGenerate
Edge
p1123
(dp1124
g4
I3
sg5
g8
(g12
S'\x04\x00\x00\x00'
p1125
tp1126
Rp1127
sba(iGenerate
Edge
p1128
(dp1129
g4
g1127
sg5
I1
sba(iGenerate
Edge
p1130
(dp1131
g4
I1
sg5
I5
sba(iGenerate
Edge
p1132
(dp1133
g4
I5
sg5
I2
sba(iGenerate
Edge
p1134
(dp1135
g4
I2
sg5
I6
sba(iGenerate
Edge
p1136
(dp1137
g4
I6
sg5
I7
sba(iGenerate
Edge
p1138
(dp1139
g4
I7
sg5
I8
sba(iGenerate
Edge
p1140
(dp1141
g4
I8
sg5
I9
sba(iGenerate
Edge
p1142
(dp1143
g4
I9
sg5
I11
sba(iGenerate
Edge
p1144
(dp1145
g4
I11
sg5
I10
sba(iGenerate
Edge
p1146
(dp1147
g4
I10
sg5
I12
sba(iGenerate
Edge
p1148
(dp1149
g4
I12
sg5
I0
sbaa(lp1150
(iGenerate
Edge
p1151
(dp1152
g4
I0
sg5
I3
sba(iGenerate
Edge
p1153
(dp1154
g4
I3
sg5
g8
(g12
S'\x04\x00\x00\x00'
p1155
tp1156
Rp1157
sba(iGenerate
Edge
p1158
(dp1159
g4
g1157
sg5
I1
sba(iGenerate
Edge
p1160
(dp1161
g4
I1
sg5
I5
sba(iGenerate
Edge
p1162
(dp1163
g4
I5
sg5
I2
sba(iGenerate
Edge
p1164
(dp1165
g4
I2
sg5
I6
sba(iGenerate
Edge
p1166
(dp1167
g4
I6
sg5
I7
sba(iGenerate
Edge
p1168
(dp1169
g4
I7
sg5
I8
sba(iGenerate
Edge
p1170
(dp1171
g4
I8
sg5
I9
sba(iGenerate
Edge
p1172
(dp1173
g4
I9
sg5
I11
sba(iGenerate
Edge
p1174
(dp1175
g4
I11
sg5
I10
sba(iGenerate
Edge
p1176
(dp1177
g4
I10
sg5
I12
sba(iGenerate
Edge
p1178
(dp1179
g4
I12
sg5
I0
sbaa(lp1180
(iGenerate
Edge
p1181
(dp1182
g4
I0
sg5
I3
sba(iGenerate
Edge
p1183
(dp1184
g4
I3
sg5
g8
(g12
S'\x04\x00\x00\x00'
p1185
tp1186
Rp1187
sba(iGenerate
Edge
p1188
(dp1189
g4
g1187
sg5
I1
sba(iGenerate
Edge
p1190
(dp1191
g4
I1
sg5
I5
sba(iGenerate
Edge
p1192
(dp1193
g4
I5
sg5
I2
sba(iGenerate
Edge
p1194
(dp1195
g4
I2
sg5
I6
sba(iGenerate
Edge
p1196
(dp1197
g4
I6
sg5
I7
sba(iGenerate
Edge
p1198
(dp1199
g4
I7
sg5
I8
sba(iGenerate
Edge
p1200
(dp1201
g4
I8
sg5
I9
sba(iGenerate
Edge
p1202
(dp1203
g4
I9
sg5
I11
sba(iGenerate
Edge
p1204
(dp1205
g4
I11
sg5
I10
sba(iGenerate
Edge
p1206
(dp1207
g4
I10
sg5
I12
sba(iGenerate
Edge
p1208
(dp1209
g4
I12
sg5
I0
sbaa(lp1210
(iGenerate
Edge
p1211
(dp1212
g4
I0
sg5
I3
sba(iGenerate
Edge
p1213
(dp1214
g4
I3
sg5
g8
(g12
S'\x04\x00\x00\x00'
p1215
tp1216
Rp1217
sba(iGenerate
Edge
p1218
(dp1219
g4
g1217
sg5
I1
sba(iGenerate
Edge
p1220
(dp1221
g4
I1
sg5
I5
sba(iGenerate
Edge
p1222
(dp1223
g4
I5
sg5
I2
sba(iGenerate
Edge
p1224
(dp1225
g4
I2
sg5
I6
sba(iGenerate
Edge
p1226
(dp1227
g4
I6
sg5
I7
sba(iGenerate
Edge
p1228
(dp1229
g4
I7
sg5
I8
sba(iGenerate
Edge
p1230
(dp1231
g4
I8
sg5
I9
sba(iGenerate
Edge
p1232
(dp1233
g4
I9
sg5
I11
sba(iGenerate
Edge
p1234
(dp1235
g4
I11
sg5
I10
sba(iGenerate
Edge
p1236
(dp1237
g4
I10
sg5
I12
sba(iGenerate
Edge
p1238
(dp1239
g4
I12
sg5
I0
sbaa(lp1240
(iGenerate
Edge
p1241
(dp1242
g4
I0
sg5
I3
sba(iGenerate
Edge
p1243
(dp1244
g4
I3
sg5
g8
(g12
S'\x04\x00\x00\x00'
p1245
tp1246
Rp1247
sba(iGenerate
Edge
p1248
(dp1249
g4
g1247
sg5
I1
sba(iGenerate
Edge
p1250
(dp1251
g4
I1
sg5
I5
sba(iGenerate
Edge
p1252
(dp1253
g4
I5
sg5
I2
sba(iGenerate
Edge
p1254
(dp1255
g4
I2
sg5
I6
sba(iGenerate
Edge
p1256
(dp1257
g4
I6
sg5
I7
sba(iGenerate
Edge
p1258
(dp1259
g4
I7
sg5
I8
sba(iGenerate
Edge
p1260
(dp1261
g4
I8
sg5
I9
sba(iGenerate
Edge
p1262
(dp1263
g4
I9
sg5
I11
sba(iGenerate
Edge
p1264
(dp1265
g4
I11
sg5
I10
sba(iGenerate
Edge
p1266
(dp1267
g4
I10
sg5
I12
sba(iGenerate
Edge
p1268
(dp1269
g4
I12
sg5
I0
sbaa(lp1270
(iGenerate
Edge
p1271
(dp1272
g4
I0
sg5
I3
sba(iGenerate
Edge
p1273
(dp1274
g4
I3
sg5
g8
(g12
S'\x04\x00\x00\x00'
p1275
tp1276
Rp1277
sba(iGenerate
Edge
p1278
(dp1279
g4
g1277
sg5
I1
sba(iGenerate
Edge
p1280
(dp1281
g4
I1
sg5
I5
sba(iGenerate
Edge
p1282
(dp1283
g4
I5
sg5
I2
sba(iGenerate
Edge
p1284
(dp1285
g4
I2
sg5
I6
sba(iGenerate
Edge
p1286
(dp1287
g4
I6
sg5
I7
sba(iGenerate
Edge
p1288
(dp1289
g4
I7
sg5
I8
sba(iGenerate
Edge
p1290
(dp1291
g4
I8
sg5
I9
sba(iGenerate
Edge
p1292
(dp1293
g4
I9
sg5
I11
sba(iGenerate
Edge
p1294
(dp1295
g4
I11
sg5
I10
sba(iGenerate
Edge
p1296
(dp1297
g4
I10
sg5
I12
sba(iGenerate
Edge
p1298
(dp1299
g4
I12
sg5
I0
sbaa(lp1300
(iGenerate
Edge
p1301
(dp1302
g4
I0
sg5
I3
sba(iGenerate
Edge
p1303
(dp1304
g4
I3
sg5
g8
(g12
S'\x04\x00\x00\x00'
p1305
tp1306
Rp1307
sba(iGenerate
Edge
p1308
(dp1309
g4
g1307
sg5
I1
sba(iGenerate
Edge
p1310
(dp1311
g4
I1
sg5
I5
sba(iGenerate
Edge
p1312
(dp1313
g4
I5
sg5
I2
sba(iGenerate
Edge
p1314
(dp1315
g4
I2
sg5
I6
sba(iGenerate
Edge
p1316
(dp1317
g4
I6
sg5
I7
sba(iGenerate
Edge
p1318
(dp1319
g4
I7
sg5
I8
sba(iGenerate
Edge
p1320
(dp1321
g4
I8
sg5
I9
sba(iGenerate
Edge
p1322
(dp1323
g4
I9
sg5
I11
sba(iGenerate
Edge
p1324
(dp1325
g4
I11
sg5
I10
sba(iGenerate
Edge
p1326
(dp1327
g4
I10
sg5
I12
sba(iGenerate
Edge
p1328
(dp1329
g4
I12
sg5
I0
sbaa(lp1330
(iGenerate
Edge
p1331
(dp1332
g4
I0
sg5
I3
sba(iGenerate
Edge
p1333
(dp1334
g4
I3
sg5
g8
(g12
S'\x04\x00\x00\x00'
p1335
tp1336
Rp1337
sba(iGenerate
Edge
p1338
(dp1339
g4
g1337
sg5
I1
sba(iGenerate
Edge
p1340
(dp1341
g4
I1
sg5
I5
sba(iGenerate
Edge
p1342
(dp1343
g4
I5
sg5
I2
sba(iGenerate
Edge
p1344
(dp1345
g4
I2
sg5
I6
sba(iGenerate
Edge
p1346
(dp1347
g4
I6
sg5
I7
sba(iGenerate
Edge
p1348
(dp1349
g4
I7
sg5
I8
sba(iGenerate
Edge
p1350
(dp1351
g4
I8
sg5
I9
sba(iGenerate
Edge
p1352
(dp1353
g4
I9
sg5
I11
sba(iGenerate
Edge
p1354
(dp1355
g4
I11
sg5
I10
sba(iGenerate
Edge
p1356
(dp1357
g4
I10
sg5
I12
sba(iGenerate
Edge
p1358
(dp1359
g4
I12
sg5
I0
sbaa(lp1360
(iGenerate
Edge
p1361
(dp1362
g4
I0
sg5
I3
sba(iGenerate
Edge
p1363
(dp1364
g4
I3
sg5
g8
(g12
S'\x04\x00\x00\x00'
p1365
tp1366
Rp1367
sba(iGenerate
Edge
p1368
(dp1369
g4
g1367
sg5
I1
sba(iGenerate
Edge
p1370
(dp1371
g4
I1
sg5
I5
sba(iGenerate
Edge
p1372
(dp1373
g4
I5
sg5
I2
sba(iGenerate
Edge
p1374
(dp1375
g4
I2
sg5
I6
sba(iGenerate
Edge
p1376
(dp1377
g4
I6
sg5
I7
sba(iGenerate
Edge
p1378
(dp1379
g4
I7
sg5
I8
sba(iGenerate
Edge
p1380
(dp1381
g4
I8
sg5
I9
sba(iGenerate
Edge
p1382
(dp1383
g4
I9
sg5
I11
sba(iGenerate
Edge
p1384
(dp1385
g4
I11
sg5
I10
sba(iGenerate
Edge
p1386
(dp1387
g4
I10
sg5
I12
sba(iGenerate
Edge
p1388
(dp1389
g4
I12
sg5
I0
sbaa(lp1390
(iGenerate
Edge
p1391
(dp1392
g4
I0
sg5
I3
sba(iGenerate
Edge
p1393
(dp1394
g4
I3
sg5
g8
(g12
S'\x04\x00\x00\x00'
p1395
tp1396
Rp1397
sba(iGenerate
Edge
p1398
(dp1399
g4
g1397
sg5
I1
sba(iGenerate
Edge
p1400
(dp1401
g4
I1
sg5
I5
sba(iGenerate
Edge
p1402
(dp1403
g4
I5
sg5
I2
sba(iGenerate
Edge
p1404
(dp1405
g4
I2
sg5
I6
sba(iGenerate
Edge
p1406
(dp1407
g4
I6
sg5
I7
sba(iGenerate
Edge
p1408
(dp1409
g4
I7
sg5
I8
sba(iGenerate
Edge
p1410
(dp1411
g4
I8
sg5
I9
sba(iGenerate
Edge
p1412
(dp1413
g4
I9
sg5
I11
sba(iGenerate
Edge
p1414
(dp1415
g4
I11
sg5
I10
sba(iGenerate
Edge
p1416
(dp1417
g4
I10
sg5
I12
sba(iGenerate
Edge
p1418
(dp1419
g4
I12
sg5
I0
sbaa(lp1420
(iGenerate
Edge
p1421
(dp1422
g4
I0
sg5
I3
sba(iGenerate
Edge
p1423
(dp1424
g4
I3
sg5
g8
(g12
S'\x04\x00\x00\x00'
p1425
tp1426
Rp1427
sba(iGenerate
Edge
p1428
(dp1429
g4
g1427
sg5
I1
sba(iGenerate
Edge
p1430
(dp1431
g4
I1
sg5
I5
sba(iGenerate
Edge
p1432
(dp1433
g4
I5
sg5
I2
sba(iGenerate
Edge
p1434
(dp1435
g4
I2
sg5
I6
sba(iGenerate
Edge
p1436
(dp1437
g4
I6
sg5
I7
sba(iGenerate
Edge
p1438
(dp1439
g4
I7
sg5
I8
sba(iGenerate
Edge
p1440
(dp1441
g4
I8
sg5
I9
sba(iGenerate
Edge
p1442
(dp1443
g4
I9
sg5
I11
sba(iGenerate
Edge
p1444
(dp1445
g4
I11
sg5
I10
sba(iGenerate
Edge
p1446
(dp1447
g4
I10
sg5
I12
sba(iGenerate
Edge
p1448
(dp1449
g4
I12
sg5
I0
sbaa(lp1450
(iGenerate
Edge
p1451
(dp1452
g4
I0
sg5
I3
sba(iGenerate
Edge
p1453
(dp1454
g4
I3
sg5
g8
(g12
S'\x04\x00\x00\x00'
p1455
tp1456
Rp1457
sba(iGenerate
Edge
p1458
(dp1459
g4
g1457
sg5
I1
sba(iGenerate
Edge
p1460
(dp1461
g4
I1
sg5
I5
sba(iGenerate
Edge
p1462
(dp1463
g4
I5
sg5
I2
sba(iGenerate
Edge
p1464
(dp1465
g4
I2
sg5
I6
sba(iGenerate
Edge
p1466
(dp1467
g4
I6
sg5
I7
sba(iGenerate
Edge
p1468
(dp1469
g4
I7
sg5
I8
sba(iGenerate
Edge
p1470
(dp1471
g4
I8
sg5
I9
sba(iGenerate
Edge
p1472
(dp1473
g4
I9
sg5
I11
sba(iGenerate
Edge
p1474
(dp1475
g4
I11
sg5
I10
sba(iGenerate
Edge
p1476
(dp1477
g4
I10
sg5
I12
sba(iGenerate
Edge
p1478
(dp1479
g4
I12
sg5
I0
sbaa(lp1480
(iGenerate
Edge
p1481
(dp1482
g4
I0
sg5
I3
sba(iGenerate
Edge
p1483
(dp1484
g4
I3
sg5
g8
(g12
S'\x04\x00\x00\x00'
p1485
tp1486
Rp1487
sba(iGenerate
Edge
p1488
(dp1489
g4
g1487
sg5
I1
sba(iGenerate
Edge
p1490
(dp1491
g4
I1
sg5
I5
sba(iGenerate
Edge
p1492
(dp1493
g4
I5
sg5
I2
sba(iGenerate
Edge
p1494
(dp1495
g4
I2
sg5
I6
sba(iGenerate
Edge
p1496
(dp1497
g4
I6
sg5
I7
sba(iGenerate
Edge
p1498
(dp1499
g4
I7
sg5
I8
sba(iGenerate
Edge
p1500
(dp1501
g4
I8
sg5
I9
sba(iGenerate
Edge
p1502
(dp1503
g4
I9
sg5
I11
sba(iGenerate
Edge
p1504
(dp1505
g4
I11
sg5
I10
sba(iGenerate
Edge
p1506
(dp1507
g4
I10
sg5
I12
sba(iGenerate
Edge
p1508
(dp1509
g4
I12
sg5
I0
sbaa.