(lp0
(lp1
(iGenerate
Edge
p2
(dp3
S'a'
p4
I0
sS'b'
p5
I2
sba(iGenerate
Edge
p6
(dp7
g4
I2
sg5
cnumpy.core.multiarray
scalar
p8
(cnumpy
dtype
p9
(S'i4'
p10
I0
I1
tp11
Rp12
(I3
S'<'
p13
NNNI-1
I-1
I0
tp14
bS'\x0f\x00\x00\x00'
p15
tp16
Rp17
sba(iGenerate
Edge
p18
(dp19
g4
g17
sg5
I1
sba(iGenerate
Edge
p20
(dp21
g4
I1
sg5
I8
sba(iGenerate
Edge
p22
(dp23
g4
I8
sg5
I3
sba(iGenerate
Edge
p24
(dp25
g4
I3
sg5
I9
sba(iGenerate
Edge
p26
(dp27
g4
I9
sg5
I4
sba(iGenerate
Edge
p28
(dp29
g4
I4
sg5
I10
sba(iGenerate
Edge
p30
(dp31
g4
I10
sg5
I5
sba(iGenerate
Edge
p32
(dp33
g4
I5
sg5
I12
sba(iGenerate
Edge
p34
(dp35
g4
I12
sg5
I6
sba(iGenerate
Edge
p36
(dp37
g4
I6
sg5
I7
sba(iGenerate
Edge
p38
(dp39
g4
I7
sg5
I11
sba(iGenerate
Edge
p40
(dp41
g4
I11
sg5
I13
sba(iGenerate
Edge
p42
(dp43
g4
I13
sg5
I14
sba(iGenerate
Edge
p44
(dp45
g4
I14
sg5
I16
sba(iGenerate
Edge
p46
(dp47
g4
I16
sg5
I18
sba(iGenerate
Edge
p48
(dp49
g4
I18
sg5
I17
sba(iGenerate
Edge
p50
(dp51
g4
I17
sg5
I19
sba(iGenerate
Edge
p52
(dp53
g4
I19
sg5
I20
sba(iGenerate
Edge
p54
(dp55
g4
I20
sg5
I21
sba(iGenerate
Edge
p56
(dp57
g4
I21
sg5
I0
sbaa.