(lp0
(lp1
(iGenerate
Edge
p2
(dp3
S'a'
p4
I0
sS'b'
p5
I2
sba(iGenerate
Edge
p6
(dp7
g4
I2
sg5
cnumpy.core.multiarray
scalar
p8
(cnumpy
dtype
p9
(S'i4'
p10
I0
I1
tp11
Rp12
(I3
S'<'
p13
NNNI-1
I-1
I0
tp14
bS'\x06\x00\x00\x00'
p15
tp16
Rp17
sba(iGenerate
Edge
p18
(dp19
g4
g17
sg5
I1
sba(iGenerate
Edge
p20
(dp21
g4
I1
sg5
I3
sba(iGenerate
Edge
p22
(dp23
g4
I3
sg5
I4
sba(iGenerate
Edge
p24
(dp25
g4
I4
sg5
I7
sba(iGenerate
Edge
p26
(dp27
g4
I7
sg5
I5
sba(iGenerate
Edge
p28
(dp29
g4
I5
sg5
I8
sba(iGenerate
Edge
p30
(dp31
g4
I8
sg5
I0
sbaa(lp32
(iGenerate
Edge
p33
(dp34
g4
I0
sg5
I2
sba(iGenerate
Edge
p35
(dp36
g4
I2
sg5
g8
(g12
S'\x06\x00\x00\x00'
p37
tp38
Rp39
sba(iGenerate
Edge
p40
(dp41
g4
g39
sg5
I1
sba(iGenerate
Edge
p42
(dp43
g4
I1
sg5
I3
sba(iGenerate
Edge
p44
(dp45
g4
I3
sg5
I4
sba(iGenerate
Edge
p46
(dp47
g4
I4
sg5
I7
sba(iGenerate
Edge
p48
(dp49
g4
I7
sg5
I5
sba(iGenerate
Edge
p50
(dp51
g4
I5
sg5
I8
sba(iGenerate
Edge
p52
(dp53
g4
I8
sg5
I0
sbaa(lp54
(iGenerate
Edge
p55
(dp56
g4
I0
sg5
I2
sba(iGenerate
Edge
p57
(dp58
g4
I2
sg5
g8
(g12
S'\x06\x00\x00\x00'
p59
tp60
Rp61
sba(iGenerate
Edge
p62
(dp63
g4
g61
sg5
I1
sba(iGenerate
Edge
p64
(dp65
g4
I1
sg5
I3
sba(iGenerate
Edge
p66
(dp67
g4
I3
sg5
I4
sba(iGenerate
Edge
p68
(dp69
g4
I4
sg5
I7
sba(iGenerate
Edge
p70
(dp71
g4
I7
sg5
I5
sba(iGenerate
Edge
p72
(dp73
g4
I5
sg5
I8
sba(iGenerate
Edge
p74
(dp75
g4
I8
sg5
I0
sbaa(lp76
(iGenerate
Edge
p77
(dp78
g4
I0
sg5
I2
sba(iGenerate
Edge
p79
(dp80
g4
I2
sg5
g8
(g12
S'\x06\x00\x00\x00'
p81
tp82
Rp83
sba(iGenerate
Edge
p84
(dp85
g4
g83
sg5
I1
sba(iGenerate
Edge
p86
(dp87
g4
I1
sg5
I3
sba(iGenerate
Edge
p88
(dp89
g4
I3
sg5
I4
sba(iGenerate
Edge
p90
(dp91
g4
I4
sg5
I7
sba(iGenerate
Edge
p92
(dp93
g4
I7
sg5
I5
sba(iGenerate
Edge
p94
(dp95
g4
I5
sg5
I8
sba(iGenerate
Edge
p96
(dp97
g4
I8
sg5
I0
sbaa(lp98
(iGenerate
Edge
p99
(dp100
g4
I0
sg5
I2
sba(iGenerate
Edge
p101
(dp102
g4
I2
sg5
g8
(g12
S'\x06\x00\x00\x00'
p103
tp104
Rp105
sba(iGenerate
Edge
p106
(dp107
g4
g105
sg5
I1
sba(iGenerate
Edge
p108
(dp109
g4
I1
sg5
I3
sba(iGenerate
Edge
p110
(dp111
g4
I3
sg5
I4
sba(iGenerate
Edge
p112
(dp113
g4
I4
sg5
I7
sba(iGenerate
Edge
p114
(dp115
g4
I7
sg5
I5
sba(iGenerate
Edge
p116
(dp117
g4
I5
sg5
I8
sba(iGenerate
Edge
p118
(dp119
g4
I8
sg5
I0
sbaa(lp120
(iGenerate
Edge
p121
(dp122
g4
I0
sg5
I2
sba(iGenerate
Edge
p123
(dp124
g4
I2
sg5
g8
(g12
S'\x06\x00\x00\x00'
p125
tp126
Rp127
sba(iGenerate
Edge
p128
(dp129
g4
g127
sg5
I1
sba(iGenerate
Edge
p130
(dp131
g4
I1
sg5
I3
sba(iGenerate
Edge
p132
(dp133
g4
I3
sg5
I4
sba(iGenerate
Edge
p134
(dp135
g4
I4
sg5
I7
sba(iGenerate
Edge
p136
(dp137
g4
I7
sg5
I5
sba(iGenerate
Edge
p138
(dp139
g4
I5
sg5
I8
sba(iGenerate
Edge
p140
(dp141
g4
I8
sg5
I0
sbaa(lp142
(iGenerate
Edge
p143
(dp144
g4
I0
sg5
I2
sba(iGenerate
Edge
p145
(dp146
g4
I2
sg5
g8
(g12
S'\x06\x00\x00\x00'
p147
tp148
Rp149
sba(iGenerate
Edge
p150
(dp151
g4
g149
sg5
I1
sba(iGenerate
Edge
p152
(dp153
g4
I1
sg5
I3
sba(iGenerate
Edge
p154
(dp155
g4
I3
sg5
I4
sba(iGenerate
Edge
p156
(dp157
g4
I4
sg5
I7
sba(iGenerate
Edge
p158
(dp159
g4
I7
sg5
I5
sba(iGenerate
Edge
p160
(dp161
g4
I5
sg5
I8
sba(iGenerate
Edge
p162
(dp163
g4
I8
sg5
I0
sbaa(lp164
(iGenerate
Edge
p165
(dp166
g4
I0
sg5
I2
sba(iGenerate
Edge
p167
(dp168
g4
I2
sg5
g8
(g12
S'\x06\x00\x00\x00'
p169
tp170
Rp171
sba(iGenerate
Edge
p172
(dp173
g4
g171
sg5
I1
sba(iGenerate
Edge
p174
(dp175
g4
I1
sg5
I3
sba(iGenerate
Edge
p176
(dp177
g4
I3
sg5
I4
sba(iGenerate
Edge
p178
(dp179
g4
I4
sg5
I7
sba(iGenerate
Edge
p180
(dp181
g4
I7
sg5
I5
sba(iGenerate
Edge
p182
(dp183
g4
I5
sg5
I8
sba(iGenerate
Edge
p184
(dp185
g4
I8
sg5
I0
sbaa(lp186
(iGenerate
Edge
p187
(dp188
g4
I0
sg5
I2
sba(iGenerate
Edge
p189
(dp190
g4
I2
sg5
g8
(g12
S'\x06\x00\x00\x00'
p191
tp192
Rp193
sba(iGenerate
Edge
p194
(dp195
g4
g193
sg5
I1
sba(iGenerate
Edge
p196
(dp197
g4
I1
sg5
I3
sba(iGenerate
Edge
p198
(dp199
g4
I3
sg5
I4
sba(iGenerate
Edge
p200
(dp201
g4
I4
sg5
I7
sba(iGenerate
Edge
p202
(dp203
g4
I7
sg5
I5
sba(iGenerate
Edge
p204
(dp205
g4
I5
sg5
I8
sba(iGenerate
Edge
p206
(dp207
g4
I8
sg5
I0
sbaa(lp208
(iGenerate
Edge
p209
(dp210
g4
I0
sg5
I2
sba(iGenerate
Edge
p211
(dp212
g4
I2
sg5
g8
(g12
S'\x06\x00\x00\x00'
p213
tp214
Rp215
sba(iGenerate
Edge
p216
(dp217
g4
g215
sg5
I1
sba(iGenerate
Edge
p218
(dp219
g4
I1
sg5
I3
sba(iGenerate
Edge
p220
(dp221
g4
I3
sg5
I4
sba(iGenerate
Edge
p222
(dp223
g4
I4
sg5
I7
sba(iGenerate
Edge
p224
(dp225
g4
I7
sg5
I5
sba(iGenerate
Edge
p226
(dp227
g4
I5
sg5
I8
sba(iGenerate
Edge
p228
(dp229
g4
I8
sg5
I0
sbaa(lp230
(iGenerate
Edge
p231
(dp232
g4
I0
sg5
I2
sba(iGenerate
Edge
p233
(dp234
g4
I2
sg5
g8
(g12
S'\x06\x00\x00\x00'
p235
tp236
Rp237
sba(iGenerate
Edge
p238
(dp239
g4
g237
sg5
I1
sba(iGenerate
Edge
p240
(dp241
g4
I1
sg5
I3
sba(iGenerate
Edge
p242
(dp243
g4
I3
sg5
I4
sba(iGenerate
Edge
p244
(dp245
g4
I4
sg5
I7
sba(iGenerate
Edge
p246
(dp247
g4
I7
sg5
I5
sba(iGenerate
Edge
p248
(dp249
g4
I5
sg5
I8
sba(iGenerate
Edge
p250
(dp251
g4
I8
sg5
I0
sbaa(lp252
(iGenerate
Edge
p253
(dp254
g4
I0
sg5
I2
sba(iGenerate
Edge
p255
(dp256
g4
I2
sg5
g8
(g12
S'\x06\x00\x00\x00'
p257
tp258
Rp259
sba(iGenerate
Edge
p260
(dp261
g4
g259
sg5
I1
sba(iGenerate
Edge
p262
(dp263
g4
I1
sg5
I3
sba(iGenerate
Edge
p264
(dp265
g4
I3
sg5
I4
sba(iGenerate
Edge
p266
(dp267
g4
I4
sg5
I7
sba(iGenerate
Edge
p268
(dp269
g4
I7
sg5
I5
sba(iGenerate
Edge
p270
(dp271
g4
I5
sg5
I8
sba(iGenerate
Edge
p272
(dp273
g4
I8
sg5
I0
sbaa(lp274
(iGenerate
Edge
p275
(dp276
g4
I0
sg5
I2
sba(iGenerate
Edge
p277
(dp278
g4
I2
sg5
g8
(g12
S'\x06\x00\x00\x00'
p279
tp280
Rp281
sba(iGenerate
Edge
p282
(dp283
g4
g281
sg5
I1
sba(iGenerate
Edge
p284
(dp285
g4
I1
sg5
I3
sba(iGenerate
Edge
p286
(dp287
g4
I3
sg5
I4
sba(iGenerate
Edge
p288
(dp289
g4
I4
sg5
I7
sba(iGenerate
Edge
p290
(dp291
g4
I7
sg5
I5
sba(iGenerate
Edge
p292
(dp293
g4
I5
sg5
I8
sba(iGenerate
Edge
p294
(dp295
g4
I8
sg5
I0
sbaa(lp296
(iGenerate
Edge
p297
(dp298
g4
I0
sg5
I2
sba(iGenerate
Edge
p299
(dp300
g4
I2
sg5
g8
(g12
S'\x06\x00\x00\x00'
p301
tp302
Rp303
sba(iGenerate
Edge
p304
(dp305
g4
g303
sg5
I1
sba(iGenerate
Edge
p306
(dp307
g4
I1
sg5
I3
sba(iGenerate
Edge
p308
(dp309
g4
I3
sg5
I4
sba(iGenerate
Edge
p310
(dp311
g4
I4
sg5
I7
sba(iGenerate
Edge
p312
(dp313
g4
I7
sg5
I5
sba(iGenerate
Edge
p314
(dp315
g4
I5
sg5
I8
sba(iGenerate
Edge
p316
(dp317
g4
I8
sg5
I0
sbaa(lp318
(iGenerate
Edge
p319
(dp320
g4
I0
sg5
I2
sba(iGenerate
Edge
p321
(dp322
g4
I2
sg5
g8
(g12
S'\x06\x00\x00\x00'
p323
tp324
Rp325
sba(iGenerate
Edge
p326
(dp327
g4
g325
sg5
I1
sba(iGenerate
Edge
p328
(dp329
g4
I1
sg5
I3
sba(iGenerate
Edge
p330
(dp331
g4
I3
sg5
I4
sba(iGenerate
Edge
p332
(dp333
g4
I4
sg5
I7
sba(iGenerate
Edge
p334
(dp335
g4
I7
sg5
I5
sba(iGenerate
Edge
p336
(dp337
g4
I5
sg5
I8
sba(iGenerate
Edge
p338
(dp339
g4
I8
sg5
I0
sbaa(lp340
(iGenerate
Edge
p341
(dp342
g4
I0
sg5
I2
sba(iGenerate
Edge
p343
(dp344
g4
I2
sg5
g8
(g12
S'\x06\x00\x00\x00'
p345
tp346
Rp347
sba(iGenerate
Edge
p348
(dp349
g4
g347
sg5
I1
sba(iGenerate
Edge
p350
(dp351
g4
I1
sg5
I3
sba(iGenerate
Edge
p352
(dp353
g4
I3
sg5
I4
sba(iGenerate
Edge
p354
(dp355
g4
I4
sg5
I7
sba(iGenerate
Edge
p356
(dp357
g4
I7
sg5
I5
sba(iGenerate
Edge
p358
(dp359
g4
I5
sg5
I8
sba(iGenerate
Edge
p360
(dp361
g4
I8
sg5
I0
sbaa(lp362
(iGenerate
Edge
p363
(dp364
g4
I0
sg5
I2
sba(iGenerate
Edge
p365
(dp366
g4
I2
sg5
g8
(g12
S'\x06\x00\x00\x00'
p367
tp368
Rp369
sba(iGenerate
Edge
p370
(dp371
g4
g369
sg5
I1
sba(iGenerate
Edge
p372
(dp373
g4
I1
sg5
I3
sba(iGenerate
Edge
p374
(dp375
g4
I3
sg5
I4
sba(iGenerate
Edge
p376
(dp377
g4
I4
sg5
I7
sba(iGenerate
Edge
p378
(dp379
g4
I7
sg5
I5
sba(iGenerate
Edge
p380
(dp381
g4
I5
sg5
I8
sba(iGenerate
Edge
p382
(dp383
g4
I8
sg5
I0
sbaa(lp384
(iGenerate
Edge
p385
(dp386
g4
I0
sg5
I2
sba(iGenerate
Edge
p387
(dp388
g4
I2
sg5
g8
(g12
S'\x06\x00\x00\x00'
p389
tp390
Rp391
sba(iGenerate
Edge
p392
(dp393
g4
g391
sg5
I1
sba(iGenerate
Edge
p394
(dp395
g4
I1
sg5
I3
sba(iGenerate
Edge
p396
(dp397
g4
I3
sg5
I4
sba(iGenerate
Edge
p398
(dp399
g4
I4
sg5
I7
sba(iGenerate
Edge
p400
(dp401
g4
I7
sg5
I5
sba(iGenerate
Edge
p402
(dp403
g4
I5
sg5
I8
sba(iGenerate
Edge
p404
(dp405
g4
I8
sg5
I0
sbaa(lp406
(iGenerate
Edge
p407
(dp408
g4
I0
sg5
I2
sba(iGenerate
Edge
p409
(dp410
g4
I2
sg5
g8
(g12
S'\x06\x00\x00\x00'
p411
tp412
Rp413
sba(iGenerate
Edge
p414
(dp415
g4
g413
sg5
I1
sba(iGenerate
Edge
p416
(dp417
g4
I1
sg5
I3
sba(iGenerate
Edge
p418
(dp419
g4
I3
sg5
I4
sba(iGenerate
Edge
p420
(dp421
g4
I4
sg5
I7
sba(iGenerate
Edge
p422
(dp423
g4
I7
sg5
I5
sba(iGenerate
Edge
p424
(dp425
g4
I5
sg5
I8
sba(iGenerate
Edge
p426
(dp427
g4
I8
sg5
I0
sbaa(lp428
(iGenerate
Edge
p429
(dp430
g4
I0
sg5
I2
sba(iGenerate
Edge
p431
(dp432
g4
I2
sg5
g8
(g12
S'\x06\x00\x00\x00'
p433
tp434
Rp435
sba(iGenerate
Edge
p436
(dp437
g4
g435
sg5
I1
sba(iGenerate
Edge
p438
(dp439
g4
I1
sg5
I3
sba(iGenerate
Edge
p440
(dp441
g4
I3
sg5
I4
sba(iGenerate
Edge
p442
(dp443
g4
I4
sg5
I7
sba(iGenerate
Edge
p444
(dp445
g4
I7
sg5
I5
sba(iGenerate
Edge
p446
(dp447
g4
I5
sg5
I8
sba(iGenerate
Edge
p448
(dp449
g4
I8
sg5
I0
sbaa(lp450
(iGenerate
Edge
p451
(dp452
g4
I0
sg5
I2
sba(iGenerate
Edge
p453
(dp454
g4
I2
sg5
g8
(g12
S'\x06\x00\x00\x00'
p455
tp456
Rp457
sba(iGenerate
Edge
p458
(dp459
g4
g457
sg5
I1
sba(iGenerate
Edge
p460
(dp461
g4
I1
sg5
I3
sba(iGenerate
Edge
p462
(dp463
g4
I3
sg5
I4
sba(iGenerate
Edge
p464
(dp465
g4
I4
sg5
I7
sba(iGenerate
Edge
p466
(dp467
g4
I7
sg5
I5
sba(iGenerate
Edge
p468
(dp469
g4
I5
sg5
I8
sba(iGenerate
Edge
p470
(dp471
g4
I8
sg5
I0
sbaa(lp472
(iGenerate
Edge
p473
(dp474
g4
I0
sg5
I2
sba(iGenerate
Edge
p475
(dp476
g4
I2
sg5
g8
(g12
S'\x06\x00\x00\x00'
p477
tp478
Rp479
sba(iGenerate
Edge
p480
(dp481
g4
g479
sg5
I1
sba(iGenerate
Edge
p482
(dp483
g4
I1
sg5
I3
sba(iGenerate
Edge
p484
(dp485
g4
I3
sg5
I4
sba(iGenerate
Edge
p486
(dp487
g4
I4
sg5
I7
sba(iGenerate
Edge
p488
(dp489
g4
I7
sg5
I5
sba(iGenerate
Edge
p490
(dp491
g4
I5
sg5
I8
sba(iGenerate
Edge
p492
(dp493
g4
I8
sg5
I0
sbaa(lp494
(iGenerate
Edge
p495
(dp496
g4
I0
sg5
I2
sba(iGenerate
Edge
p497
(dp498
g4
I2
sg5
g8
(g12
S'\x06\x00\x00\x00'
p499
tp500
Rp501
sba(iGenerate
Edge
p502
(dp503
g4
g501
sg5
I1
sba(iGenerate
Edge
p504
(dp505
g4
I1
sg5
I3
sba(iGenerate
Edge
p506
(dp507
g4
I3
sg5
I4
sba(iGenerate
Edge
p508
(dp509
g4
I4
sg5
I7
sba(iGenerate
Edge
p510
(dp511
g4
I7
sg5
I5
sba(iGenerate
Edge
p512
(dp513
g4
I5
sg5
I8
sba(iGenerate
Edge
p514
(dp515
g4
I8
sg5
I0
sbaa(lp516
(iGenerate
Edge
p517
(dp518
g4
I0
sg5
I2
sba(iGenerate
Edge
p519
(dp520
g4
I2
sg5
g8
(g12
S'\x06\x00\x00\x00'
p521
tp522
Rp523
sba(iGenerate
Edge
p524
(dp525
g4
g523
sg5
I1
sba(iGenerate
Edge
p526
(dp527
g4
I1
sg5
I3
sba(iGenerate
Edge
p528
(dp529
g4
I3
sg5
I4
sba(iGenerate
Edge
p530
(dp531
g4
I4
sg5
I7
sba(iGenerate
Edge
p532
(dp533
g4
I7
sg5
I5
sba(iGenerate
Edge
p534
(dp535
g4
I5
sg5
I8
sba(iGenerate
Edge
p536
(dp537
g4
I8
sg5
I0
sbaa(lp538
(iGenerate
Edge
p539
(dp540
g4
I0
sg5
I2
sba(iGenerate
Edge
p541
(dp542
g4
I2
sg5
g8
(g12
S'\x06\x00\x00\x00'
p543
tp544
Rp545
sba(iGenerate
Edge
p546
(dp547
g4
g545
sg5
I1
sba(iGenerate
Edge
p548
(dp549
g4
I1
sg5
I3
sba(iGenerate
Edge
p550
(dp551
g4
I3
sg5
I4
sba(iGenerate
Edge
p552
(dp553
g4
I4
sg5
I7
sba(iGenerate
Edge
p554
(dp555
g4
I7
sg5
I5
sba(iGenerate
Edge
p556
(dp557
g4
I5
sg5
I8
sba(iGenerate
Edge
p558
(dp559
g4
I8
sg5
I0
sbaa(lp560
(iGenerate
Edge
p561
(dp562
g4
I0
sg5
I2
sba(iGenerate
Edge
p563
(dp564
g4
I2
sg5
g8
(g12
S'\x06\x00\x00\x00'
p565
tp566
Rp567
sba(iGenerate
Edge
p568
(dp569
g4
g567
sg5
I1
sba(iGenerate
Edge
p570
(dp571
g4
I1
sg5
I3
sba(iGenerate
Edge
p572
(dp573
g4
I3
sg5
I4
sba(iGenerate
Edge
p574
(dp575
g4
I4
sg5
I7
sba(iGenerate
Edge
p576
(dp577
g4
I7
sg5
I5
sba(iGenerate
Edge
p578
(dp579
g4
I5
sg5
I8
sba(iGenerate
Edge
p580
(dp581
g4
I8
sg5
I0
sbaa(lp582
(iGenerate
Edge
p583
(dp584
g4
I0
sg5
I2
sba(iGenerate
Edge
p585
(dp586
g4
I2
sg5
g8
(g12
S'\x06\x00\x00\x00'
p587
tp588
Rp589
sba(iGenerate
Edge
p590
(dp591
g4
g589
sg5
I1
sba(iGenerate
Edge
p592
(dp593
g4
I1
sg5
I3
sba(iGenerate
Edge
p594
(dp595
g4
I3
sg5
I4
sba(iGenerate
Edge
p596
(dp597
g4
I4
sg5
I7
sba(iGenerate
Edge
p598
(dp599
g4
I7
sg5
I5
sba(iGenerate
Edge
p600
(dp601
g4
I5
sg5
I8
sba(iGenerate
Edge
p602
(dp603
g4
I8
sg5
I0
sbaa(lp604
(iGenerate
Edge
p605
(dp606
g4
I0
sg5
I2
sba(iGenerate
Edge
p607
(dp608
g4
I2
sg5
g8
(g12
S'\x06\x00\x00\x00'
p609
tp610
Rp611
sba(iGenerate
Edge
p612
(dp613
g4
g611
sg5
I1
sba(iGenerate
Edge
p614
(dp615
g4
I1
sg5
I3
sba(iGenerate
Edge
p616
(dp617
g4
I3
sg5
I4
sba(iGenerate
Edge
p618
(dp619
g4
I4
sg5
I7
sba(iGenerate
Edge
p620
(dp621
g4
I7
sg5
I5
sba(iGenerate
Edge
p622
(dp623
g4
I5
sg5
I8
sba(iGenerate
Edge
p624
(dp625
g4
I8
sg5
I0
sbaa(lp626
(iGenerate
Edge
p627
(dp628
g4
I0
sg5
I2
sba(iGenerate
Edge
p629
(dp630
g4
I2
sg5
g8
(g12
S'\x06\x00\x00\x00'
p631
tp632
Rp633
sba(iGenerate
Edge
p634
(dp635
g4
g633
sg5
I1
sba(iGenerate
Edge
p636
(dp637
g4
I1
sg5
I3
sba(iGenerate
Edge
p638
(dp639
g4
I3
sg5
I4
sba(iGenerate
Edge
p640
(dp641
g4
I4
sg5
I7
sba(iGenerate
Edge
p642
(dp643
g4
I7
sg5
I5
sba(iGenerate
Edge
p644
(dp645
g4
I5
sg5
I8
sba(iGenerate
Edge
p646
(dp647
g4
I8
sg5
I0
sbaa(lp648
(iGenerate
Edge
p649
(dp650
g4
I0
sg5
I2
sba(iGenerate
Edge
p651
(dp652
g4
I2
sg5
g8
(g12
S'\x06\x00\x00\x00'
p653
tp654
Rp655
sba(iGenerate
Edge
p656
(dp657
g4
g655
sg5
I1
sba(iGenerate
Edge
p658
(dp659
g4
I1
sg5
I3
sba(iGenerate
Edge
p660
(dp661
g4
I3
sg5
I4
sba(iGenerate
Edge
p662
(dp663
g4
I4
sg5
I7
sba(iGenerate
Edge
p664
(dp665
g4
I7
sg5
I5
sba(iGenerate
Edge
p666
(dp667
g4
I5
sg5
I8
sba(iGenerate
Edge
p668
(dp669
g4
I8
sg5
I0
sbaa(lp670
(iGenerate
Edge
p671
(dp672
g4
I0
sg5
I2
sba(iGenerate
Edge
p673
(dp674
g4
I2
sg5
g8
(g12
S'\x06\x00\x00\x00'
p675
tp676
Rp677
sba(iGenerate
Edge
p678
(dp679
g4
g677
sg5
I1
sba(iGenerate
Edge
p680
(dp681
g4
I1
sg5
I3
sba(iGenerate
Edge
p682
(dp683
g4
I3
sg5
I4
sba(iGenerate
Edge
p684
(dp685
g4
I4
sg5
I7
sba(iGenerate
Edge
p686
(dp687
g4
I7
sg5
I5
sba(iGenerate
Edge
p688
(dp689
g4
I5
sg5
I8
sba(iGenerate
Edge
p690
(dp691
g4
I8
sg5
I0
sbaa(lp692
(iGenerate
Edge
p693
(dp694
g4
I0
sg5
I2
sba(iGenerate
Edge
p695
(dp696
g4
I2
sg5
g8
(g12
S'\x06\x00\x00\x00'
p697
tp698
Rp699
sba(iGenerate
Edge
p700
(dp701
g4
g699
sg5
I1
sba(iGenerate
Edge
p702
(dp703
g4
I1
sg5
I3
sba(iGenerate
Edge
p704
(dp705
g4
I3
sg5
I4
sba(iGenerate
Edge
p706
(dp707
g4
I4
sg5
I7
sba(iGenerate
Edge
p708
(dp709
g4
I7
sg5
I5
sba(iGenerate
Edge
p710
(dp711
g4
I5
sg5
I8
sba(iGenerate
Edge
p712
(dp713
g4
I8
sg5
I0
sbaa(lp714
(iGenerate
Edge
p715
(dp716
g4
I0
sg5
I2
sba(iGenerate
Edge
p717
(dp718
g4
I2
sg5
g8
(g12
S'\x06\x00\x00\x00'
p719
tp720
Rp721
sba(iGenerate
Edge
p722
(dp723
g4
g721
sg5
I1
sba(iGenerate
Edge
p724
(dp725
g4
I1
sg5
I3
sba(iGenerate
Edge
p726
(dp727
g4
I3
sg5
I4
sba(iGenerate
Edge
p728
(dp729
g4
I4
sg5
I7
sba(iGenerate
Edge
p730
(dp731
g4
I7
sg5
I5
sba(iGenerate
Edge
p732
(dp733
g4
I5
sg5
I8
sba(iGenerate
Edge
p734
(dp735
g4
I8
sg5
I0
sbaa(lp736
(iGenerate
Edge
p737
(dp738
g4
I0
sg5
I2
sba(iGenerate
Edge
p739
(dp740
g4
I2
sg5
g8
(g12
S'\x06\x00\x00\x00'
p741
tp742
Rp743
sba(iGenerate
Edge
p744
(dp745
g4
g743
sg5
I1
sba(iGenerate
Edge
p746
(dp747
g4
I1
sg5
I3
sba(iGenerate
Edge
p748
(dp749
g4
I3
sg5
I4
sba(iGenerate
Edge
p750
(dp751
g4
I4
sg5
I7
sba(iGenerate
Edge
p752
(dp753
g4
I7
sg5
I5
sba(iGenerate
Edge
p754
(dp755
g4
I5
sg5
I8
sba(iGenerate
Edge
p756
(dp757
g4
I8
sg5
I0
sbaa(lp758
(iGenerate
Edge
p759
(dp760
g4
I0
sg5
I2
sba(iGenerate
Edge
p761
(dp762
g4
I2
sg5
g8
(g12
S'\x06\x00\x00\x00'
p763
tp764
Rp765
sba(iGenerate
Edge
p766
(dp767
g4
g765
sg5
I1
sba(iGenerate
Edge
p768
(dp769
g4
I1
sg5
I3
sba(iGenerate
Edge
p770
(dp771
g4
I3
sg5
I4
sba(iGenerate
Edge
p772
(dp773
g4
I4
sg5
I7
sba(iGenerate
Edge
p774
(dp775
g4
I7
sg5
I5
sba(iGenerate
Edge
p776
(dp777
g4
I5
sg5
I8
sba(iGenerate
Edge
p778
(dp779
g4
I8
sg5
I0
sbaa(lp780
(iGenerate
Edge
p781
(dp782
g4
I0
sg5
I2
sba(iGenerate
Edge
p783
(dp784
g4
I2
sg5
g8
(g12
S'\x06\x00\x00\x00'
p785
tp786
Rp787
sba(iGenerate
Edge
p788
(dp789
g4
g787
sg5
I1
sba(iGenerate
Edge
p790
(dp791
g4
I1
sg5
I3
sba(iGenerate
Edge
p792
(dp793
g4
I3
sg5
I4
sba(iGenerate
Edge
p794
(dp795
g4
I4
sg5
I7
sba(iGenerate
Edge
p796
(dp797
g4
I7
sg5
I5
sba(iGenerate
Edge
p798
(dp799
g4
I5
sg5
I8
sba(iGenerate
Edge
p800
(dp801
g4
I8
sg5
I0
sbaa(lp802
(iGenerate
Edge
p803
(dp804
g4
I0
sg5
I2
sba(iGenerate
Edge
p805
(dp806
g4
I2
sg5
g8
(g12
S'\x06\x00\x00\x00'
p807
tp808
Rp809
sba(iGenerate
Edge
p810
(dp811
g4
g809
sg5
I1
sba(iGenerate
Edge
p812
(dp813
g4
I1
sg5
I3
sba(iGenerate
Edge
p814
(dp815
g4
I3
sg5
I4
sba(iGenerate
Edge
p816
(dp817
g4
I4
sg5
I7
sba(iGenerate
Edge
p818
(dp819
g4
I7
sg5
I5
sba(iGenerate
Edge
p820
(dp821
g4
I5
sg5
I8
sba(iGenerate
Edge
p822
(dp823
g4
I8
sg5
I0
sbaa(lp824
(iGenerate
Edge
p825
(dp826
g4
I0
sg5
I2
sba(iGenerate
Edge
p827
(dp828
g4
I2
sg5
g8
(g12
S'\x06\x00\x00\x00'
p829
tp830
Rp831
sba(iGenerate
Edge
p832
(dp833
g4
g831
sg5
I1
sba(iGenerate
Edge
p834
(dp835
g4
I1
sg5
I3
sba(iGenerate
Edge
p836
(dp837
g4
I3
sg5
I4
sba(iGenerate
Edge
p838
(dp839
g4
I4
sg5
I7
sba(iGenerate
Edge
p840
(dp841
g4
I7
sg5
I5
sba(iGenerate
Edge
p842
(dp843
g4
I5
sg5
I8
sba(iGenerate
Edge
p844
(dp845
g4
I8
sg5
I0
sbaa(lp846
(iGenerate
Edge
p847
(dp848
g4
I0
sg5
I2
sba(iGenerate
Edge
p849
(dp850
g4
I2
sg5
g8
(g12
S'\x06\x00\x00\x00'
p851
tp852
Rp853
sba(iGenerate
Edge
p854
(dp855
g4
g853
sg5
I1
sba(iGenerate
Edge
p856
(dp857
g4
I1
sg5
I3
sba(iGenerate
Edge
p858
(dp859
g4
I3
sg5
I4
sba(iGenerate
Edge
p860
(dp861
g4
I4
sg5
I7
sba(iGenerate
Edge
p862
(dp863
g4
I7
sg5
I5
sba(iGenerate
Edge
p864
(dp865
g4
I5
sg5
I8
sba(iGenerate
Edge
p866
(dp867
g4
I8
sg5
I0
sbaa(lp868
(iGenerate
Edge
p869
(dp870
g4
I0
sg5
I2
sba(iGenerate
Edge
p871
(dp872
g4
I2
sg5
g8
(g12
S'\x06\x00\x00\x00'
p873
tp874
Rp875
sba(iGenerate
Edge
p876
(dp877
g4
g875
sg5
I1
sba(iGenerate
Edge
p878
(dp879
g4
I1
sg5
I3
sba(iGenerate
Edge
p880
(dp881
g4
I3
sg5
I4
sba(iGenerate
Edge
p882
(dp883
g4
I4
sg5
I7
sba(iGenerate
Edge
p884
(dp885
g4
I7
sg5
I5
sba(iGenerate
Edge
p886
(dp887
g4
I5
sg5
I8
sba(iGenerate
Edge
p888
(dp889
g4
I8
sg5
I0
sbaa(lp890
(iGenerate
Edge
p891
(dp892
g4
I0
sg5
I2
sba(iGenerate
Edge
p893
(dp894
g4
I2
sg5
g8
(g12
S'\x06\x00\x00\x00'
p895
tp896
Rp897
sba(iGenerate
Edge
p898
(dp899
g4
g897
sg5
I1
sba(iGenerate
Edge
p900
(dp901
g4
I1
sg5
I3
sba(iGenerate
Edge
p902
(dp903
g4
I3
sg5
I4
sba(iGenerate
Edge
p904
(dp905
g4
I4
sg5
I7
sba(iGenerate
Edge
p906
(dp907
g4
I7
sg5
I5
sba(iGenerate
Edge
p908
(dp909
g4
I5
sg5
I8
sba(iGenerate
Edge
p910
(dp911
g4
I8
sg5
I0
sbaa(lp912
(iGenerate
Edge
p913
(dp914
g4
I0
sg5
I2
sba(iGenerate
Edge
p915
(dp916
g4
I2
sg5
g8
(g12
S'\x06\x00\x00\x00'
p917
tp918
Rp919
sba(iGenerate
Edge
p920
(dp921
g4
g919
sg5
I1
sba(iGenerate
Edge
p922
(dp923
g4
I1
sg5
I3
sba(iGenerate
Edge
p924
(dp925
g4
I3
sg5
I4
sba(iGenerate
Edge
p926
(dp927
g4
I4
sg5
I7
sba(iGenerate
Edge
p928
(dp929
g4
I7
sg5
I5
sba(iGenerate
Edge
p930
(dp931
g4
I5
sg5
I8
sba(iGenerate
Edge
p932
(dp933
g4
I8
sg5
I0
sbaa(lp934
(iGenerate
Edge
p935
(dp936
g4
I0
sg5
I2
sba(iGenerate
Edge
p937
(dp938
g4
I2
sg5
g8
(g12
S'\x06\x00\x00\x00'
p939
tp940
Rp941
sba(iGenerate
Edge
p942
(dp943
g4
g941
sg5
I1
sba(iGenerate
Edge
p944
(dp945
g4
I1
sg5
I3
sba(iGenerate
Edge
p946
(dp947
g4
I3
sg5
I4
sba(iGenerate
Edge
p948
(dp949
g4
I4
sg5
I7
sba(iGenerate
Edge
p950
(dp951
g4
I7
sg5
I5
sba(iGenerate
Edge
p952
(dp953
g4
I5
sg5
I8
sba(iGenerate
Edge
p954
(dp955
g4
I8
sg5
I0
sbaa(lp956
(iGenerate
Edge
p957
(dp958
g4
I0
sg5
I2
sba(iGenerate
Edge
p959
(dp960
g4
I2
sg5
g8
(g12
S'\x06\x00\x00\x00'
p961
tp962
Rp963
sba(iGenerate
Edge
p964
(dp965
g4
g963
sg5
I1
sba(iGenerate
Edge
p966
(dp967
g4
I1
sg5
I3
sba(iGenerate
Edge
p968
(dp969
g4
I3
sg5
I4
sba(iGenerate
Edge
p970
(dp971
g4
I4
sg5
I7
sba(iGenerate
Edge
p972
(dp973
g4
I7
sg5
I5
sba(iGenerate
Edge
p974
(dp975
g4
I5
sg5
I8
sba(iGenerate
Edge
p976
(dp977
g4
I8
sg5
I0
sbaa(lp978
(iGenerate
Edge
p979
(dp980
g4
I0
sg5
I2
sba(iGenerate
Edge
p981
(dp982
g4
I2
sg5
g8
(g12
S'\x06\x00\x00\x00'
p983
tp984
Rp985
sba(iGenerate
Edge
p986
(dp987
g4
g985
sg5
I1
sba(iGenerate
Edge
p988
(dp989
g4
I1
sg5
I3
sba(iGenerate
Edge
p990
(dp991
g4
I3
sg5
I4
sba(iGenerate
Edge
p992
(dp993
g4
I4
sg5
I7
sba(iGenerate
Edge
p994
(dp995
g4
I7
sg5
I5
sba(iGenerate
Edge
p996
(dp997
g4
I5
sg5
I8
sba(iGenerate
Edge
p998
(dp999
g4
I8
sg5
I0
sbaa(lp1000
(iGenerate
Edge
p1001
(dp1002
g4
I0
sg5
I2
sba(iGenerate
Edge
p1003
(dp1004
g4
I2
sg5
g8
(g12
S'\x06\x00\x00\x00'
p1005
tp1006
Rp1007
sba(iGenerate
Edge
p1008
(dp1009
g4
g1007
sg5
I1
sba(iGenerate
Edge
p1010
(dp1011
g4
I1
sg5
I3
sba(iGenerate
Edge
p1012
(dp1013
g4
I3
sg5
I4
sba(iGenerate
Edge
p1014
(dp1015
g4
I4
sg5
I7
sba(iGenerate
Edge
p1016
(dp1017
g4
I7
sg5
I5
sba(iGenerate
Edge
p1018
(dp1019
g4
I5
sg5
I8
sba(iGenerate
Edge
p1020
(dp1021
g4
I8
sg5
I0
sbaa(lp1022
(iGenerate
Edge
p1023
(dp1024
g4
I0
sg5
I2
sba(iGenerate
Edge
p1025
(dp1026
g4
I2
sg5
g8
(g12
S'\x06\x00\x00\x00'
p1027
tp1028
Rp1029
sba(iGenerate
Edge
p1030
(dp1031
g4
g1029
sg5
I1
sba(iGenerate
Edge
p1032
(dp1033
g4
I1
sg5
I3
sba(iGenerate
Edge
p1034
(dp1035
g4
I3
sg5
I4
sba(iGenerate
Edge
p1036
(dp1037
g4
I4
sg5
I7
sba(iGenerate
Edge
p1038
(dp1039
g4
I7
sg5
I5
sba(iGenerate
Edge
p1040
(dp1041
g4
I5
sg5
I8
sba(iGenerate
Edge
p1042
(dp1043
g4
I8
sg5
I0
sbaa(lp1044
(iGenerate
Edge
p1045
(dp1046
g4
I0
sg5
I2
sba(iGenerate
Edge
p1047
(dp1048
g4
I2
sg5
g8
(g12
S'\x06\x00\x00\x00'
p1049
tp1050
Rp1051
sba(iGenerate
Edge
p1052
(dp1053
g4
g1051
sg5
I1
sba(iGenerate
Edge
p1054
(dp1055
g4
I1
sg5
I3
sba(iGenerate
Edge
p1056
(dp1057
g4
I3
sg5
I4
sba(iGenerate
Edge
p1058
(dp1059
g4
I4
sg5
I7
sba(iGenerate
Edge
p1060
(dp1061
g4
I7
sg5
I5
sba(iGenerate
Edge
p1062
(dp1063
g4
I5
sg5
I8
sba(iGenerate
Edge
p1064
(dp1065
g4
I8
sg5
I0
sbaa(lp1066
(iGenerate
Edge
p1067
(dp1068
g4
I0
sg5
I2
sba(iGenerate
Edge
p1069
(dp1070
g4
I2
sg5
g8
(g12
S'\x06\x00\x00\x00'
p1071
tp1072
Rp1073
sba(iGenerate
Edge
p1074
(dp1075
g4
g1073
sg5
I1
sba(iGenerate
Edge
p1076
(dp1077
g4
I1
sg5
I3
sba(iGenerate
Edge
p1078
(dp1079
g4
I3
sg5
I4
sba(iGenerate
Edge
p1080
(dp1081
g4
I4
sg5
I7
sba(iGenerate
Edge
p1082
(dp1083
g4
I7
sg5
I5
sba(iGenerate
Edge
p1084
(dp1085
g4
I5
sg5
I8
sba(iGenerate
Edge
p1086
(dp1087
g4
I8
sg5
I0
sbaa(lp1088
(iGenerate
Edge
p1089
(dp1090
g4
I0
sg5
I2
sba(iGenerate
Edge
p1091
(dp1092
g4
I2
sg5
g8
(g12
S'\x06\x00\x00\x00'
p1093
tp1094
Rp1095
sba(iGenerate
Edge
p1096
(dp1097
g4
g1095
sg5
I1
sba(iGenerate
Edge
p1098
(dp1099
g4
I1
sg5
I3
sba(iGenerate
Edge
p1100
(dp1101
g4
I3
sg5
I4
sba(iGenerate
Edge
p1102
(dp1103
g4
I4
sg5
I7
sba(iGenerate
Edge
p1104
(dp1105
g4
I7
sg5
I5
sba(iGenerate
Edge
p1106
(dp1107
g4
I5
sg5
I8
sba(iGenerate
Edge
p1108
(dp1109
g4
I8
sg5
I0
sbaa.