(lp0
(lp1
(iGenerate
Edge
p2
(dp3
S'a'
p4
I0
sS'b'
p5
I1
sba(iGenerate
Edge
p6
(dp7
g4
I1
sg5
cnumpy.core.multiarray
scalar
p8
(cnumpy
dtype
p9
(S'i4'
p10
I0
I1
tp11
Rp12
(I3
S'<'
p13
NNNI-1
I-1
I0
tp14
bS'\x06\x00\x00\x00'
p15
tp16
Rp17
sba(iGenerate
Edge
p18
(dp19
g4
g17
sg5
I2
sba(iGenerate
Edge
p20
(dp21
g4
I2
sg5
I4
sba(iGenerate
Edge
p22
(dp23
g4
I4
sg5
I3
sba(iGenerate
Edge
p24
(dp25
g4
I3
sg5
I5
sba(iGenerate
Edge
p26
(dp27
g4
I5
sg5
I7
sba(iGenerate
Edge
p28
(dp29
g4
I7
sg5
I0
sbaa(lp30
(iGenerate
Edge
p31
(dp32
g4
I0
sg5
I1
sba(iGenerate
Edge
p33
(dp34
g4
I1
sg5
g8
(g12
S'\x06\x00\x00\x00'
p35
tp36
Rp37
sba(iGenerate
Edge
p38
(dp39
g4
g37
sg5
I2
sba(iGenerate
Edge
p40
(dp41
g4
I2
sg5
I4
sba(iGenerate
Edge
p42
(dp43
g4
I4
sg5
I3
sba(iGenerate
Edge
p44
(dp45
g4
I3
sg5
I5
sba(iGenerate
Edge
p46
(dp47
g4
I5
sg5
I7
sba(iGenerate
Edge
p48
(dp49
g4
I7
sg5
I0
sbaa(lp50
(iGenerate
Edge
p51
(dp52
g4
I0
sg5
I1
sba(iGenerate
Edge
p53
(dp54
g4
I1
sg5
g8
(g12
S'\x06\x00\x00\x00'
p55
tp56
Rp57
sba(iGenerate
Edge
p58
(dp59
g4
g57
sg5
I2
sba(iGenerate
Edge
p60
(dp61
g4
I2
sg5
I4
sba(iGenerate
Edge
p62
(dp63
g4
I4
sg5
I3
sba(iGenerate
Edge
p64
(dp65
g4
I3
sg5
I5
sba(iGenerate
Edge
p66
(dp67
g4
I5
sg5
I7
sba(iGenerate
Edge
p68
(dp69
g4
I7
sg5
I0
sbaa(lp70
(iGenerate
Edge
p71
(dp72
g4
I0
sg5
I1
sba(iGenerate
Edge
p73
(dp74
g4
I1
sg5
g8
(g12
S'\x06\x00\x00\x00'
p75
tp76
Rp77
sba(iGenerate
Edge
p78
(dp79
g4
g77
sg5
I2
sba(iGenerate
Edge
p80
(dp81
g4
I2
sg5
I4
sba(iGenerate
Edge
p82
(dp83
g4
I4
sg5
I3
sba(iGenerate
Edge
p84
(dp85
g4
I3
sg5
I5
sba(iGenerate
Edge
p86
(dp87
g4
I5
sg5
I7
sba(iGenerate
Edge
p88
(dp89
g4
I7
sg5
I0
sbaa(lp90
(iGenerate
Edge
p91
(dp92
g4
I0
sg5
I1
sba(iGenerate
Edge
p93
(dp94
g4
I1
sg5
g8
(g12
S'\x06\x00\x00\x00'
p95
tp96
Rp97
sba(iGenerate
Edge
p98
(dp99
g4
g97
sg5
I2
sba(iGenerate
Edge
p100
(dp101
g4
I2
sg5
I4
sba(iGenerate
Edge
p102
(dp103
g4
I4
sg5
I3
sba(iGenerate
Edge
p104
(dp105
g4
I3
sg5
I5
sba(iGenerate
Edge
p106
(dp107
g4
I5
sg5
I7
sba(iGenerate
Edge
p108
(dp109
g4
I7
sg5
I0
sbaa(lp110
(iGenerate
Edge
p111
(dp112
g4
I0
sg5
I1
sba(iGenerate
Edge
p113
(dp114
g4
I1
sg5
g8
(g12
S'\x06\x00\x00\x00'
p115
tp116
Rp117
sba(iGenerate
Edge
p118
(dp119
g4
g117
sg5
I2
sba(iGenerate
Edge
p120
(dp121
g4
I2
sg5
I4
sba(iGenerate
Edge
p122
(dp123
g4
I4
sg5
I3
sba(iGenerate
Edge
p124
(dp125
g4
I3
sg5
I5
sba(iGenerate
Edge
p126
(dp127
g4
I5
sg5
I7
sba(iGenerate
Edge
p128
(dp129
g4
I7
sg5
I0
sbaa(lp130
(iGenerate
Edge
p131
(dp132
g4
I0
sg5
I1
sba(iGenerate
Edge
p133
(dp134
g4
I1
sg5
g8
(g12
S'\x06\x00\x00\x00'
p135
tp136
Rp137
sba(iGenerate
Edge
p138
(dp139
g4
g137
sg5
I2
sba(iGenerate
Edge
p140
(dp141
g4
I2
sg5
I4
sba(iGenerate
Edge
p142
(dp143
g4
I4
sg5
I3
sba(iGenerate
Edge
p144
(dp145
g4
I3
sg5
I5
sba(iGenerate
Edge
p146
(dp147
g4
I5
sg5
I7
sba(iGenerate
Edge
p148
(dp149
g4
I7
sg5
I0
sbaa(lp150
(iGenerate
Edge
p151
(dp152
g4
I0
sg5
I1
sba(iGenerate
Edge
p153
(dp154
g4
I1
sg5
g8
(g12
S'\x06\x00\x00\x00'
p155
tp156
Rp157
sba(iGenerate
Edge
p158
(dp159
g4
g157
sg5
I2
sba(iGenerate
Edge
p160
(dp161
g4
I2
sg5
I4
sba(iGenerate
Edge
p162
(dp163
g4
I4
sg5
I3
sba(iGenerate
Edge
p164
(dp165
g4
I3
sg5
I5
sba(iGenerate
Edge
p166
(dp167
g4
I5
sg5
I7
sba(iGenerate
Edge
p168
(dp169
g4
I7
sg5
I0
sbaa(lp170
(iGenerate
Edge
p171
(dp172
g4
I0
sg5
I1
sba(iGenerate
Edge
p173
(dp174
g4
I1
sg5
g8
(g12
S'\x06\x00\x00\x00'
p175
tp176
Rp177
sba(iGenerate
Edge
p178
(dp179
g4
g177
sg5
I2
sba(iGenerate
Edge
p180
(dp181
g4
I2
sg5
I4
sba(iGenerate
Edge
p182
(dp183
g4
I4
sg5
I3
sba(iGenerate
Edge
p184
(dp185
g4
I3
sg5
I5
sba(iGenerate
Edge
p186
(dp187
g4
I5
sg5
I7
sba(iGenerate
Edge
p188
(dp189
g4
I7
sg5
I0
sbaa(lp190
(iGenerate
Edge
p191
(dp192
g4
I0
sg5
I1
sba(iGenerate
Edge
p193
(dp194
g4
I1
sg5
g8
(g12
S'\x06\x00\x00\x00'
p195
tp196
Rp197
sba(iGenerate
Edge
p198
(dp199
g4
g197
sg5
I2
sba(iGenerate
Edge
p200
(dp201
g4
I2
sg5
I4
sba(iGenerate
Edge
p202
(dp203
g4
I4
sg5
I3
sba(iGenerate
Edge
p204
(dp205
g4
I3
sg5
I5
sba(iGenerate
Edge
p206
(dp207
g4
I5
sg5
I7
sba(iGenerate
Edge
p208
(dp209
g4
I7
sg5
I0
sbaa(lp210
(iGenerate
Edge
p211
(dp212
g4
I0
sg5
I1
sba(iGenerate
Edge
p213
(dp214
g4
I1
sg5
g8
(g12
S'\x06\x00\x00\x00'
p215
tp216
Rp217
sba(iGenerate
Edge
p218
(dp219
g4
g217
sg5
I2
sba(iGenerate
Edge
p220
(dp221
g4
I2
sg5
I4
sba(iGenerate
Edge
p222
(dp223
g4
I4
sg5
I3
sba(iGenerate
Edge
p224
(dp225
g4
I3
sg5
I5
sba(iGenerate
Edge
p226
(dp227
g4
I5
sg5
I7
sba(iGenerate
Edge
p228
(dp229
g4
I7
sg5
I0
sbaa(lp230
(iGenerate
Edge
p231
(dp232
g4
I0
sg5
I1
sba(iGenerate
Edge
p233
(dp234
g4
I1
sg5
g8
(g12
S'\x06\x00\x00\x00'
p235
tp236
Rp237
sba(iGenerate
Edge
p238
(dp239
g4
g237
sg5
I2
sba(iGenerate
Edge
p240
(dp241
g4
I2
sg5
I4
sba(iGenerate
Edge
p242
(dp243
g4
I4
sg5
I3
sba(iGenerate
Edge
p244
(dp245
g4
I3
sg5
I5
sba(iGenerate
Edge
p246
(dp247
g4
I5
sg5
I7
sba(iGenerate
Edge
p248
(dp249
g4
I7
sg5
I0
sbaa(lp250
(iGenerate
Edge
p251
(dp252
g4
I0
sg5
I1
sba(iGenerate
Edge
p253
(dp254
g4
I1
sg5
g8
(g12
S'\x06\x00\x00\x00'
p255
tp256
Rp257
sba(iGenerate
Edge
p258
(dp259
g4
g257
sg5
I2
sba(iGenerate
Edge
p260
(dp261
g4
I2
sg5
I4
sba(iGenerate
Edge
p262
(dp263
g4
I4
sg5
I3
sba(iGenerate
Edge
p264
(dp265
g4
I3
sg5
I5
sba(iGenerate
Edge
p266
(dp267
g4
I5
sg5
I7
sba(iGenerate
Edge
p268
(dp269
g4
I7
sg5
I0
sbaa(lp270
(iGenerate
Edge
p271
(dp272
g4
I0
sg5
I1
sba(iGenerate
Edge
p273
(dp274
g4
I1
sg5
g8
(g12
S'\x06\x00\x00\x00'
p275
tp276
Rp277
sba(iGenerate
Edge
p278
(dp279
g4
g277
sg5
I2
sba(iGenerate
Edge
p280
(dp281
g4
I2
sg5
I4
sba(iGenerate
Edge
p282
(dp283
g4
I4
sg5
I3
sba(iGenerate
Edge
p284
(dp285
g4
I3
sg5
I5
sba(iGenerate
Edge
p286
(dp287
g4
I5
sg5
I7
sba(iGenerate
Edge
p288
(dp289
g4
I7
sg5
I0
sbaa(lp290
(iGenerate
Edge
p291
(dp292
g4
I0
sg5
I1
sba(iGenerate
Edge
p293
(dp294
g4
I1
sg5
g8
(g12
S'\x06\x00\x00\x00'
p295
tp296
Rp297
sba(iGenerate
Edge
p298
(dp299
g4
g297
sg5
I2
sba(iGenerate
Edge
p300
(dp301
g4
I2
sg5
I4
sba(iGenerate
Edge
p302
(dp303
g4
I4
sg5
I3
sba(iGenerate
Edge
p304
(dp305
g4
I3
sg5
I5
sba(iGenerate
Edge
p306
(dp307
g4
I5
sg5
I7
sba(iGenerate
Edge
p308
(dp309
g4
I7
sg5
I0
sbaa(lp310
(iGenerate
Edge
p311
(dp312
g4
I0
sg5
I1
sba(iGenerate
Edge
p313
(dp314
g4
I1
sg5
g8
(g12
S'\x06\x00\x00\x00'
p315
tp316
Rp317
sba(iGenerate
Edge
p318
(dp319
g4
g317
sg5
I2
sba(iGenerate
Edge
p320
(dp321
g4
I2
sg5
I4
sba(iGenerate
Edge
p322
(dp323
g4
I4
sg5
I3
sba(iGenerate
Edge
p324
(dp325
g4
I3
sg5
I5
sba(iGenerate
Edge
p326
(dp327
g4
I5
sg5
I7
sba(iGenerate
Edge
p328
(dp329
g4
I7
sg5
I0
sbaa(lp330
(iGenerate
Edge
p331
(dp332
g4
I0
sg5
I1
sba(iGenerate
Edge
p333
(dp334
g4
I1
sg5
g8
(g12
S'\x06\x00\x00\x00'
p335
tp336
Rp337
sba(iGenerate
Edge
p338
(dp339
g4
g337
sg5
I2
sba(iGenerate
Edge
p340
(dp341
g4
I2
sg5
I4
sba(iGenerate
Edge
p342
(dp343
g4
I4
sg5
I3
sba(iGenerate
Edge
p344
(dp345
g4
I3
sg5
I5
sba(iGenerate
Edge
p346
(dp347
g4
I5
sg5
I7
sba(iGenerate
Edge
p348
(dp349
g4
I7
sg5
I0
sbaa(lp350
(iGenerate
Edge
p351
(dp352
g4
I0
sg5
I1
sba(iGenerate
Edge
p353
(dp354
g4
I1
sg5
g8
(g12
S'\x06\x00\x00\x00'
p355
tp356
Rp357
sba(iGenerate
Edge
p358
(dp359
g4
g357
sg5
I2
sba(iGenerate
Edge
p360
(dp361
g4
I2
sg5
I4
sba(iGenerate
Edge
p362
(dp363
g4
I4
sg5
I3
sba(iGenerate
Edge
p364
(dp365
g4
I3
sg5
I5
sba(iGenerate
Edge
p366
(dp367
g4
I5
sg5
I7
sba(iGenerate
Edge
p368
(dp369
g4
I7
sg5
I0
sbaa(lp370
(iGenerate
Edge
p371
(dp372
g4
I0
sg5
I1
sba(iGenerate
Edge
p373
(dp374
g4
I1
sg5
g8
(g12
S'\x06\x00\x00\x00'
p375
tp376
Rp377
sba(iGenerate
Edge
p378
(dp379
g4
g377
sg5
I2
sba(iGenerate
Edge
p380
(dp381
g4
I2
sg5
I4
sba(iGenerate
Edge
p382
(dp383
g4
I4
sg5
I3
sba(iGenerate
Edge
p384
(dp385
g4
I3
sg5
I5
sba(iGenerate
Edge
p386
(dp387
g4
I5
sg5
I7
sba(iGenerate
Edge
p388
(dp389
g4
I7
sg5
I0
sbaa(lp390
(iGenerate
Edge
p391
(dp392
g4
I0
sg5
I1
sba(iGenerate
Edge
p393
(dp394
g4
I1
sg5
g8
(g12
S'\x06\x00\x00\x00'
p395
tp396
Rp397
sba(iGenerate
Edge
p398
(dp399
g4
g397
sg5
I2
sba(iGenerate
Edge
p400
(dp401
g4
I2
sg5
I4
sba(iGenerate
Edge
p402
(dp403
g4
I4
sg5
I3
sba(iGenerate
Edge
p404
(dp405
g4
I3
sg5
I5
sba(iGenerate
Edge
p406
(dp407
g4
I5
sg5
I7
sba(iGenerate
Edge
p408
(dp409
g4
I7
sg5
I0
sbaa(lp410
(iGenerate
Edge
p411
(dp412
g4
I0
sg5
I1
sba(iGenerate
Edge
p413
(dp414
g4
I1
sg5
g8
(g12
S'\x06\x00\x00\x00'
p415
tp416
Rp417
sba(iGenerate
Edge
p418
(dp419
g4
g417
sg5
I2
sba(iGenerate
Edge
p420
(dp421
g4
I2
sg5
I4
sba(iGenerate
Edge
p422
(dp423
g4
I4
sg5
I3
sba(iGenerate
Edge
p424
(dp425
g4
I3
sg5
I5
sba(iGenerate
Edge
p426
(dp427
g4
I5
sg5
I7
sba(iGenerate
Edge
p428
(dp429
g4
I7
sg5
I0
sbaa(lp430
(iGenerate
Edge
p431
(dp432
g4
I0
sg5
I1
sba(iGenerate
Edge
p433
(dp434
g4
I1
sg5
g8
(g12
S'\x06\x00\x00\x00'
p435
tp436
Rp437
sba(iGenerate
Edge
p438
(dp439
g4
g437
sg5
I2
sba(iGenerate
Edge
p440
(dp441
g4
I2
sg5
I4
sba(iGenerate
Edge
p442
(dp443
g4
I4
sg5
I3
sba(iGenerate
Edge
p444
(dp445
g4
I3
sg5
I5
sba(iGenerate
Edge
p446
(dp447
g4
I5
sg5
I7
sba(iGenerate
Edge
p448
(dp449
g4
I7
sg5
I0
sbaa(lp450
(iGenerate
Edge
p451
(dp452
g4
I0
sg5
I1
sba(iGenerate
Edge
p453
(dp454
g4
I1
sg5
g8
(g12
S'\x06\x00\x00\x00'
p455
tp456
Rp457
sba(iGenerate
Edge
p458
(dp459
g4
g457
sg5
I2
sba(iGenerate
Edge
p460
(dp461
g4
I2
sg5
I4
sba(iGenerate
Edge
p462
(dp463
g4
I4
sg5
I3
sba(iGenerate
Edge
p464
(dp465
g4
I3
sg5
I5
sba(iGenerate
Edge
p466
(dp467
g4
I5
sg5
I7
sba(iGenerate
Edge
p468
(dp469
g4
I7
sg5
I0
sbaa(lp470
(iGenerate
Edge
p471
(dp472
g4
I0
sg5
I1
sba(iGenerate
Edge
p473
(dp474
g4
I1
sg5
g8
(g12
S'\x06\x00\x00\x00'
p475
tp476
Rp477
sba(iGenerate
Edge
p478
(dp479
g4
g477
sg5
I2
sba(iGenerate
Edge
p480
(dp481
g4
I2
sg5
I4
sba(iGenerate
Edge
p482
(dp483
g4
I4
sg5
I3
sba(iGenerate
Edge
p484
(dp485
g4
I3
sg5
I5
sba(iGenerate
Edge
p486
(dp487
g4
I5
sg5
I7
sba(iGenerate
Edge
p488
(dp489
g4
I7
sg5
I0
sbaa(lp490
(iGenerate
Edge
p491
(dp492
g4
I0
sg5
I1
sba(iGenerate
Edge
p493
(dp494
g4
I1
sg5
g8
(g12
S'\x06\x00\x00\x00'
p495
tp496
Rp497
sba(iGenerate
Edge
p498
(dp499
g4
g497
sg5
I2
sba(iGenerate
Edge
p500
(dp501
g4
I2
sg5
I4
sba(iGenerate
Edge
p502
(dp503
g4
I4
sg5
I3
sba(iGenerate
Edge
p504
(dp505
g4
I3
sg5
I5
sba(iGenerate
Edge
p506
(dp507
g4
I5
sg5
I7
sba(iGenerate
Edge
p508
(dp509
g4
I7
sg5
I0
sbaa(lp510
(iGenerate
Edge
p511
(dp512
g4
I0
sg5
I1
sba(iGenerate
Edge
p513
(dp514
g4
I1
sg5
g8
(g12
S'\x06\x00\x00\x00'
p515
tp516
Rp517
sba(iGenerate
Edge
p518
(dp519
g4
g517
sg5
I2
sba(iGenerate
Edge
p520
(dp521
g4
I2
sg5
I4
sba(iGenerate
Edge
p522
(dp523
g4
I4
sg5
I3
sba(iGenerate
Edge
p524
(dp525
g4
I3
sg5
I5
sba(iGenerate
Edge
p526
(dp527
g4
I5
sg5
I7
sba(iGenerate
Edge
p528
(dp529
g4
I7
sg5
I0
sbaa(lp530
(iGenerate
Edge
p531
(dp532
g4
I0
sg5
I1
sba(iGenerate
Edge
p533
(dp534
g4
I1
sg5
g8
(g12
S'\x06\x00\x00\x00'
p535
tp536
Rp537
sba(iGenerate
Edge
p538
(dp539
g4
g537
sg5
I2
sba(iGenerate
Edge
p540
(dp541
g4
I2
sg5
I4
sba(iGenerate
Edge
p542
(dp543
g4
I4
sg5
I3
sba(iGenerate
Edge
p544
(dp545
g4
I3
sg5
I5
sba(iGenerate
Edge
p546
(dp547
g4
I5
sg5
I7
sba(iGenerate
Edge
p548
(dp549
g4
I7
sg5
I0
sbaa(lp550
(iGenerate
Edge
p551
(dp552
g4
I0
sg5
I1
sba(iGenerate
Edge
p553
(dp554
g4
I1
sg5
g8
(g12
S'\x06\x00\x00\x00'
p555
tp556
Rp557
sba(iGenerate
Edge
p558
(dp559
g4
g557
sg5
I2
sba(iGenerate
Edge
p560
(dp561
g4
I2
sg5
I4
sba(iGenerate
Edge
p562
(dp563
g4
I4
sg5
I3
sba(iGenerate
Edge
p564
(dp565
g4
I3
sg5
I5
sba(iGenerate
Edge
p566
(dp567
g4
I5
sg5
I7
sba(iGenerate
Edge
p568
(dp569
g4
I7
sg5
I0
sbaa(lp570
(iGenerate
Edge
p571
(dp572
g4
I0
sg5
I1
sba(iGenerate
Edge
p573
(dp574
g4
I1
sg5
g8
(g12
S'\x06\x00\x00\x00'
p575
tp576
Rp577
sba(iGenerate
Edge
p578
(dp579
g4
g577
sg5
I2
sba(iGenerate
Edge
p580
(dp581
g4
I2
sg5
I4
sba(iGenerate
Edge
p582
(dp583
g4
I4
sg5
I3
sba(iGenerate
Edge
p584
(dp585
g4
I3
sg5
I5
sba(iGenerate
Edge
p586
(dp587
g4
I5
sg5
I7
sba(iGenerate
Edge
p588
(dp589
g4
I7
sg5
I0
sbaa(lp590
(iGenerate
Edge
p591
(dp592
g4
I0
sg5
I1
sba(iGenerate
Edge
p593
(dp594
g4
I1
sg5
g8
(g12
S'\x06\x00\x00\x00'
p595
tp596
Rp597
sba(iGenerate
Edge
p598
(dp599
g4
g597
sg5
I2
sba(iGenerate
Edge
p600
(dp601
g4
I2
sg5
I4
sba(iGenerate
Edge
p602
(dp603
g4
I4
sg5
I3
sba(iGenerate
Edge
p604
(dp605
g4
I3
sg5
I5
sba(iGenerate
Edge
p606
(dp607
g4
I5
sg5
I7
sba(iGenerate
Edge
p608
(dp609
g4
I7
sg5
I0
sbaa(lp610
(iGenerate
Edge
p611
(dp612
g4
I0
sg5
I1
sba(iGenerate
Edge
p613
(dp614
g4
I1
sg5
g8
(g12
S'\x06\x00\x00\x00'
p615
tp616
Rp617
sba(iGenerate
Edge
p618
(dp619
g4
g617
sg5
I2
sba(iGenerate
Edge
p620
(dp621
g4
I2
sg5
I4
sba(iGenerate
Edge
p622
(dp623
g4
I4
sg5
I3
sba(iGenerate
Edge
p624
(dp625
g4
I3
sg5
I5
sba(iGenerate
Edge
p626
(dp627
g4
I5
sg5
I7
sba(iGenerate
Edge
p628
(dp629
g4
I7
sg5
I0
sbaa(lp630
(iGenerate
Edge
p631
(dp632
g4
I0
sg5
I1
sba(iGenerate
Edge
p633
(dp634
g4
I1
sg5
g8
(g12
S'\x06\x00\x00\x00'
p635
tp636
Rp637
sba(iGenerate
Edge
p638
(dp639
g4
g637
sg5
I2
sba(iGenerate
Edge
p640
(dp641
g4
I2
sg5
I4
sba(iGenerate
Edge
p642
(dp643
g4
I4
sg5
I3
sba(iGenerate
Edge
p644
(dp645
g4
I3
sg5
I5
sba(iGenerate
Edge
p646
(dp647
g4
I5
sg5
I7
sba(iGenerate
Edge
p648
(dp649
g4
I7
sg5
I0
sbaa(lp650
(iGenerate
Edge
p651
(dp652
g4
I0
sg5
I1
sba(iGenerate
Edge
p653
(dp654
g4
I1
sg5
g8
(g12
S'\x06\x00\x00\x00'
p655
tp656
Rp657
sba(iGenerate
Edge
p658
(dp659
g4
g657
sg5
I2
sba(iGenerate
Edge
p660
(dp661
g4
I2
sg5
I4
sba(iGenerate
Edge
p662
(dp663
g4
I4
sg5
I3
sba(iGenerate
Edge
p664
(dp665
g4
I3
sg5
I5
sba(iGenerate
Edge
p666
(dp667
g4
I5
sg5
I7
sba(iGenerate
Edge
p668
(dp669
g4
I7
sg5
I0
sbaa(lp670
(iGenerate
Edge
p671
(dp672
g4
I0
sg5
I1
sba(iGenerate
Edge
p673
(dp674
g4
I1
sg5
g8
(g12
S'\x06\x00\x00\x00'
p675
tp676
Rp677
sba(iGenerate
Edge
p678
(dp679
g4
g677
sg5
I2
sba(iGenerate
Edge
p680
(dp681
g4
I2
sg5
I4
sba(iGenerate
Edge
p682
(dp683
g4
I4
sg5
I3
sba(iGenerate
Edge
p684
(dp685
g4
I3
sg5
I5
sba(iGenerate
Edge
p686
(dp687
g4
I5
sg5
I7
sba(iGenerate
Edge
p688
(dp689
g4
I7
sg5
I0
sbaa(lp690
(iGenerate
Edge
p691
(dp692
g4
I0
sg5
I1
sba(iGenerate
Edge
p693
(dp694
g4
I1
sg5
g8
(g12
S'\x06\x00\x00\x00'
p695
tp696
Rp697
sba(iGenerate
Edge
p698
(dp699
g4
g697
sg5
I2
sba(iGenerate
Edge
p700
(dp701
g4
I2
sg5
I4
sba(iGenerate
Edge
p702
(dp703
g4
I4
sg5
I3
sba(iGenerate
Edge
p704
(dp705
g4
I3
sg5
I5
sba(iGenerate
Edge
p706
(dp707
g4
I5
sg5
I7
sba(iGenerate
Edge
p708
(dp709
g4
I7
sg5
I0
sbaa(lp710
(iGenerate
Edge
p711
(dp712
g4
I0
sg5
I1
sba(iGenerate
Edge
p713
(dp714
g4
I1
sg5
g8
(g12
S'\x06\x00\x00\x00'
p715
tp716
Rp717
sba(iGenerate
Edge
p718
(dp719
g4
g717
sg5
I2
sba(iGenerate
Edge
p720
(dp721
g4
I2
sg5
I4
sba(iGenerate
Edge
p722
(dp723
g4
I4
sg5
I3
sba(iGenerate
Edge
p724
(dp725
g4
I3
sg5
I5
sba(iGenerate
Edge
p726
(dp727
g4
I5
sg5
I7
sba(iGenerate
Edge
p728
(dp729
g4
I7
sg5
I0
sbaa(lp730
(iGenerate
Edge
p731
(dp732
g4
I0
sg5
I1
sba(iGenerate
Edge
p733
(dp734
g4
I1
sg5
g8
(g12
S'\x06\x00\x00\x00'
p735
tp736
Rp737
sba(iGenerate
Edge
p738
(dp739
g4
g737
sg5
I2
sba(iGenerate
Edge
p740
(dp741
g4
I2
sg5
I4
sba(iGenerate
Edge
p742
(dp743
g4
I4
sg5
I3
sba(iGenerate
Edge
p744
(dp745
g4
I3
sg5
I5
sba(iGenerate
Edge
p746
(dp747
g4
I5
sg5
I7
sba(iGenerate
Edge
p748
(dp749
g4
I7
sg5
I0
sbaa(lp750
(iGenerate
Edge
p751
(dp752
g4
I0
sg5
I1
sba(iGenerate
Edge
p753
(dp754
g4
I1
sg5
g8
(g12
S'\x06\x00\x00\x00'
p755
tp756
Rp757
sba(iGenerate
Edge
p758
(dp759
g4
g757
sg5
I2
sba(iGenerate
Edge
p760
(dp761
g4
I2
sg5
I4
sba(iGenerate
Edge
p762
(dp763
g4
I4
sg5
I3
sba(iGenerate
Edge
p764
(dp765
g4
I3
sg5
I5
sba(iGenerate
Edge
p766
(dp767
g4
I5
sg5
I7
sba(iGenerate
Edge
p768
(dp769
g4
I7
sg5
I0
sbaa(lp770
(iGenerate
Edge
p771
(dp772
g4
I0
sg5
I1
sba(iGenerate
Edge
p773
(dp774
g4
I1
sg5
g8
(g12
S'\x06\x00\x00\x00'
p775
tp776
Rp777
sba(iGenerate
Edge
p778
(dp779
g4
g777
sg5
I2
sba(iGenerate
Edge
p780
(dp781
g4
I2
sg5
I4
sba(iGenerate
Edge
p782
(dp783
g4
I4
sg5
I3
sba(iGenerate
Edge
p784
(dp785
g4
I3
sg5
I5
sba(iGenerate
Edge
p786
(dp787
g4
I5
sg5
I7
sba(iGenerate
Edge
p788
(dp789
g4
I7
sg5
I0
sbaa(lp790
(iGenerate
Edge
p791
(dp792
g4
I0
sg5
I1
sba(iGenerate
Edge
p793
(dp794
g4
I1
sg5
g8
(g12
S'\x06\x00\x00\x00'
p795
tp796
Rp797
sba(iGenerate
Edge
p798
(dp799
g4
g797
sg5
I2
sba(iGenerate
Edge
p800
(dp801
g4
I2
sg5
I4
sba(iGenerate
Edge
p802
(dp803
g4
I4
sg5
I3
sba(iGenerate
Edge
p804
(dp805
g4
I3
sg5
I5
sba(iGenerate
Edge
p806
(dp807
g4
I5
sg5
I7
sba(iGenerate
Edge
p808
(dp809
g4
I7
sg5
I0
sbaa(lp810
(iGenerate
Edge
p811
(dp812
g4
I0
sg5
I1
sba(iGenerate
Edge
p813
(dp814
g4
I1
sg5
g8
(g12
S'\x06\x00\x00\x00'
p815
tp816
Rp817
sba(iGenerate
Edge
p818
(dp819
g4
g817
sg5
I2
sba(iGenerate
Edge
p820
(dp821
g4
I2
sg5
I4
sba(iGenerate
Edge
p822
(dp823
g4
I4
sg5
I3
sba(iGenerate
Edge
p824
(dp825
g4
I3
sg5
I5
sba(iGenerate
Edge
p826
(dp827
g4
I5
sg5
I7
sba(iGenerate
Edge
p828
(dp829
g4
I7
sg5
I0
sbaa(lp830
(iGenerate
Edge
p831
(dp832
g4
I0
sg5
I1
sba(iGenerate
Edge
p833
(dp834
g4
I1
sg5
g8
(g12
S'\x06\x00\x00\x00'
p835
tp836
Rp837
sba(iGenerate
Edge
p838
(dp839
g4
g837
sg5
I2
sba(iGenerate
Edge
p840
(dp841
g4
I2
sg5
I4
sba(iGenerate
Edge
p842
(dp843
g4
I4
sg5
I3
sba(iGenerate
Edge
p844
(dp845
g4
I3
sg5
I5
sba(iGenerate
Edge
p846
(dp847
g4
I5
sg5
I7
sba(iGenerate
Edge
p848
(dp849
g4
I7
sg5
I0
sbaa(lp850
(iGenerate
Edge
p851
(dp852
g4
I0
sg5
I1
sba(iGenerate
Edge
p853
(dp854
g4
I1
sg5
g8
(g12
S'\x06\x00\x00\x00'
p855
tp856
Rp857
sba(iGenerate
Edge
p858
(dp859
g4
g857
sg5
I2
sba(iGenerate
Edge
p860
(dp861
g4
I2
sg5
I4
sba(iGenerate
Edge
p862
(dp863
g4
I4
sg5
I3
sba(iGenerate
Edge
p864
(dp865
g4
I3
sg5
I5
sba(iGenerate
Edge
p866
(dp867
g4
I5
sg5
I7
sba(iGenerate
Edge
p868
(dp869
g4
I7
sg5
I0
sbaa(lp870
(iGenerate
Edge
p871
(dp872
g4
I0
sg5
I1
sba(iGenerate
Edge
p873
(dp874
g4
I1
sg5
g8
(g12
S'\x06\x00\x00\x00'
p875
tp876
Rp877
sba(iGenerate
Edge
p878
(dp879
g4
g877
sg5
I2
sba(iGenerate
Edge
p880
(dp881
g4
I2
sg5
I4
sba(iGenerate
Edge
p882
(dp883
g4
I4
sg5
I3
sba(iGenerate
Edge
p884
(dp885
g4
I3
sg5
I5
sba(iGenerate
Edge
p886
(dp887
g4
I5
sg5
I7
sba(iGenerate
Edge
p888
(dp889
g4
I7
sg5
I0
sbaa(lp890
(iGenerate
Edge
p891
(dp892
g4
I0
sg5
I1
sba(iGenerate
Edge
p893
(dp894
g4
I1
sg5
g8
(g12
S'\x06\x00\x00\x00'
p895
tp896
Rp897
sba(iGenerate
Edge
p898
(dp899
g4
g897
sg5
I2
sba(iGenerate
Edge
p900
(dp901
g4
I2
sg5
I4
sba(iGenerate
Edge
p902
(dp903
g4
I4
sg5
I3
sba(iGenerate
Edge
p904
(dp905
g4
I3
sg5
I5
sba(iGenerate
Edge
p906
(dp907
g4
I5
sg5
I7
sba(iGenerate
Edge
p908
(dp909
g4
I7
sg5
I0
sbaa(lp910
(iGenerate
Edge
p911
(dp912
g4
I0
sg5
I1
sba(iGenerate
Edge
p913
(dp914
g4
I1
sg5
g8
(g12
S'\x06\x00\x00\x00'
p915
tp916
Rp917
sba(iGenerate
Edge
p918
(dp919
g4
g917
sg5
I2
sba(iGenerate
Edge
p920
(dp921
g4
I2
sg5
I4
sba(iGenerate
Edge
p922
(dp923
g4
I4
sg5
I3
sba(iGenerate
Edge
p924
(dp925
g4
I3
sg5
I5
sba(iGenerate
Edge
p926
(dp927
g4
I5
sg5
I7
sba(iGenerate
Edge
p928
(dp929
g4
I7
sg5
I0
sbaa(lp930
(iGenerate
Edge
p931
(dp932
g4
I0
sg5
I1
sba(iGenerate
Edge
p933
(dp934
g4
I1
sg5
g8
(g12
S'\x06\x00\x00\x00'
p935
tp936
Rp937
sba(iGenerate
Edge
p938
(dp939
g4
g937
sg5
I2
sba(iGenerate
Edge
p940
(dp941
g4
I2
sg5
I4
sba(iGenerate
Edge
p942
(dp943
g4
I4
sg5
I3
sba(iGenerate
Edge
p944
(dp945
g4
I3
sg5
I5
sba(iGenerate
Edge
p946
(dp947
g4
I5
sg5
I7
sba(iGenerate
Edge
p948
(dp949
g4
I7
sg5
I0
sbaa(lp950
(iGenerate
Edge
p951
(dp952
g4
I0
sg5
I1
sba(iGenerate
Edge
p953
(dp954
g4
I1
sg5
g8
(g12
S'\x06\x00\x00\x00'
p955
tp956
Rp957
sba(iGenerate
Edge
p958
(dp959
g4
g957
sg5
I2
sba(iGenerate
Edge
p960
(dp961
g4
I2
sg5
I4
sba(iGenerate
Edge
p962
(dp963
g4
I4
sg5
I3
sba(iGenerate
Edge
p964
(dp965
g4
I3
sg5
I5
sba(iGenerate
Edge
p966
(dp967
g4
I5
sg5
I7
sba(iGenerate
Edge
p968
(dp969
g4
I7
sg5
I0
sbaa(lp970
(iGenerate
Edge
p971
(dp972
g4
I0
sg5
I1
sba(iGenerate
Edge
p973
(dp974
g4
I1
sg5
g8
(g12
S'\x06\x00\x00\x00'
p975
tp976
Rp977
sba(iGenerate
Edge
p978
(dp979
g4
g977
sg5
I2
sba(iGenerate
Edge
p980
(dp981
g4
I2
sg5
I4
sba(iGenerate
Edge
p982
(dp983
g4
I4
sg5
I3
sba(iGenerate
Edge
p984
(dp985
g4
I3
sg5
I5
sba(iGenerate
Edge
p986
(dp987
g4
I5
sg5
I7
sba(iGenerate
Edge
p988
(dp989
g4
I7
sg5
I0
sbaa(lp990
(iGenerate
Edge
p991
(dp992
g4
I0
sg5
I1
sba(iGenerate
Edge
p993
(dp994
g4
I1
sg5
g8
(g12
S'\x06\x00\x00\x00'
p995
tp996
Rp997
sba(iGenerate
Edge
p998
(dp999
g4
g997
sg5
I2
sba(iGenerate
Edge
p1000
(dp1001
g4
I2
sg5
I4
sba(iGenerate
Edge
p1002
(dp1003
g4
I4
sg5
I3
sba(iGenerate
Edge
p1004
(dp1005
g4
I3
sg5
I5
sba(iGenerate
Edge
p1006
(dp1007
g4
I5
sg5
I7
sba(iGenerate
Edge
p1008
(dp1009
g4
I7
sg5
I0
sbaa.