(lp0
(lp1
(iGenerate
Edge
p2
(dp3
S'a'
p4
I0
sS'b'
p5
I1
sba(iGenerate
Edge
p6
(dp7
g4
I1
sg5
cnumpy.core.multiarray
scalar
p8
(cnumpy
dtype
p9
(S'i4'
p10
I0
I1
tp11
Rp12
(I3
S'<'
p13
NNNI-1
I-1
I0
tp14
bS'\n\x00\x00\x00'
p15
tp16
Rp17
sba(iGenerate
Edge
p18
(dp19
g4
g17
sg5
I2
sba(iGenerate
Edge
p20
(dp21
g4
I2
sg5
I4
sba(iGenerate
Edge
p22
(dp23
g4
I4
sg5
I3
sba(iGenerate
Edge
p24
(dp25
g4
I3
sg5
I7
sba(iGenerate
Edge
p26
(dp27
g4
I7
sg5
I5
sba(iGenerate
Edge
p28
(dp29
g4
I5
sg5
I8
sba(iGenerate
Edge
p30
(dp31
g4
I8
sg5
I6
sba(iGenerate
Edge
p32
(dp33
g4
I6
sg5
I9
sba(iGenerate
Edge
p34
(dp35
g4
I9
sg5
I11
sba(iGenerate
Edge
p36
(dp37
g4
I11
sg5
I12
sba(iGenerate
Edge
p38
(dp39
g4
I12
sg5
I13
sba(iGenerate
Edge
p40
(dp41
g4
I13
sg5
I0
sbaa(lp42
(iGenerate
Edge
p43
(dp44
g4
I0
sg5
I1
sba(iGenerate
Edge
p45
(dp46
g4
I1
sg5
g8
(g12
S'\n\x00\x00\x00'
p47
tp48
Rp49
sba(iGenerate
Edge
p50
(dp51
g4
g49
sg5
I2
sba(iGenerate
Edge
p52
(dp53
g4
I2
sg5
I4
sba(iGenerate
Edge
p54
(dp55
g4
I4
sg5
I3
sba(iGenerate
Edge
p56
(dp57
g4
I3
sg5
I7
sba(iGenerate
Edge
p58
(dp59
g4
I7
sg5
I5
sba(iGenerate
Edge
p60
(dp61
g4
I5
sg5
I8
sba(iGenerate
Edge
p62
(dp63
g4
I8
sg5
I6
sba(iGenerate
Edge
p64
(dp65
g4
I6
sg5
I9
sba(iGenerate
Edge
p66
(dp67
g4
I9
sg5
I11
sba(iGenerate
Edge
p68
(dp69
g4
I11
sg5
I12
sba(iGenerate
Edge
p70
(dp71
g4
I12
sg5
I13
sba(iGenerate
Edge
p72
(dp73
g4
I13
sg5
I0
sbaa(lp74
(iGenerate
Edge
p75
(dp76
g4
I0
sg5
I1
sba(iGenerate
Edge
p77
(dp78
g4
I1
sg5
g8
(g12
S'\n\x00\x00\x00'
p79
tp80
Rp81
sba(iGenerate
Edge
p82
(dp83
g4
g81
sg5
I2
sba(iGenerate
Edge
p84
(dp85
g4
I2
sg5
I4
sba(iGenerate
Edge
p86
(dp87
g4
I4
sg5
I3
sba(iGenerate
Edge
p88
(dp89
g4
I3
sg5
I7
sba(iGenerate
Edge
p90
(dp91
g4
I7
sg5
I5
sba(iGenerate
Edge
p92
(dp93
g4
I5
sg5
I8
sba(iGenerate
Edge
p94
(dp95
g4
I8
sg5
I6
sba(iGenerate
Edge
p96
(dp97
g4
I6
sg5
I9
sba(iGenerate
Edge
p98
(dp99
g4
I9
sg5
I11
sba(iGenerate
Edge
p100
(dp101
g4
I11
sg5
I12
sba(iGenerate
Edge
p102
(dp103
g4
I12
sg5
I13
sba(iGenerate
Edge
p104
(dp105
g4
I13
sg5
I0
sbaa(lp106
(iGenerate
Edge
p107
(dp108
g4
I0
sg5
I1
sba(iGenerate
Edge
p109
(dp110
g4
I1
sg5
g8
(g12
S'\n\x00\x00\x00'
p111
tp112
Rp113
sba(iGenerate
Edge
p114
(dp115
g4
g113
sg5
I2
sba(iGenerate
Edge
p116
(dp117
g4
I2
sg5
I4
sba(iGenerate
Edge
p118
(dp119
g4
I4
sg5
I3
sba(iGenerate
Edge
p120
(dp121
g4
I3
sg5
I7
sba(iGenerate
Edge
p122
(dp123
g4
I7
sg5
I5
sba(iGenerate
Edge
p124
(dp125
g4
I5
sg5
I8
sba(iGenerate
Edge
p126
(dp127
g4
I8
sg5
I6
sba(iGenerate
Edge
p128
(dp129
g4
I6
sg5
I9
sba(iGenerate
Edge
p130
(dp131
g4
I9
sg5
I11
sba(iGenerate
Edge
p132
(dp133
g4
I11
sg5
I12
sba(iGenerate
Edge
p134
(dp135
g4
I12
sg5
I13
sba(iGenerate
Edge
p136
(dp137
g4
I13
sg5
I0
sbaa(lp138
(iGenerate
Edge
p139
(dp140
g4
I0
sg5
I1
sba(iGenerate
Edge
p141
(dp142
g4
I1
sg5
g8
(g12
S'\n\x00\x00\x00'
p143
tp144
Rp145
sba(iGenerate
Edge
p146
(dp147
g4
g145
sg5
I2
sba(iGenerate
Edge
p148
(dp149
g4
I2
sg5
I4
sba(iGenerate
Edge
p150
(dp151
g4
I4
sg5
I3
sba(iGenerate
Edge
p152
(dp153
g4
I3
sg5
I7
sba(iGenerate
Edge
p154
(dp155
g4
I7
sg5
I5
sba(iGenerate
Edge
p156
(dp157
g4
I5
sg5
I8
sba(iGenerate
Edge
p158
(dp159
g4
I8
sg5
I6
sba(iGenerate
Edge
p160
(dp161
g4
I6
sg5
I9
sba(iGenerate
Edge
p162
(dp163
g4
I9
sg5
I11
sba(iGenerate
Edge
p164
(dp165
g4
I11
sg5
I12
sba(iGenerate
Edge
p166
(dp167
g4
I12
sg5
I13
sba(iGenerate
Edge
p168
(dp169
g4
I13
sg5
I0
sbaa(lp170
(iGenerate
Edge
p171
(dp172
g4
I0
sg5
I1
sba(iGenerate
Edge
p173
(dp174
g4
I1
sg5
g8
(g12
S'\n\x00\x00\x00'
p175
tp176
Rp177
sba(iGenerate
Edge
p178
(dp179
g4
g177
sg5
I2
sba(iGenerate
Edge
p180
(dp181
g4
I2
sg5
I4
sba(iGenerate
Edge
p182
(dp183
g4
I4
sg5
I3
sba(iGenerate
Edge
p184
(dp185
g4
I3
sg5
I7
sba(iGenerate
Edge
p186
(dp187
g4
I7
sg5
I5
sba(iGenerate
Edge
p188
(dp189
g4
I5
sg5
I8
sba(iGenerate
Edge
p190
(dp191
g4
I8
sg5
I6
sba(iGenerate
Edge
p192
(dp193
g4
I6
sg5
I9
sba(iGenerate
Edge
p194
(dp195
g4
I9
sg5
I11
sba(iGenerate
Edge
p196
(dp197
g4
I11
sg5
I12
sba(iGenerate
Edge
p198
(dp199
g4
I12
sg5
I13
sba(iGenerate
Edge
p200
(dp201
g4
I13
sg5
I0
sbaa(lp202
(iGenerate
Edge
p203
(dp204
g4
I0
sg5
I1
sba(iGenerate
Edge
p205
(dp206
g4
I1
sg5
g8
(g12
S'\n\x00\x00\x00'
p207
tp208
Rp209
sba(iGenerate
Edge
p210
(dp211
g4
g209
sg5
I2
sba(iGenerate
Edge
p212
(dp213
g4
I2
sg5
I4
sba(iGenerate
Edge
p214
(dp215
g4
I4
sg5
I3
sba(iGenerate
Edge
p216
(dp217
g4
I3
sg5
I7
sba(iGenerate
Edge
p218
(dp219
g4
I7
sg5
I5
sba(iGenerate
Edge
p220
(dp221
g4
I5
sg5
I8
sba(iGenerate
Edge
p222
(dp223
g4
I8
sg5
I6
sba(iGenerate
Edge
p224
(dp225
g4
I6
sg5
I9
sba(iGenerate
Edge
p226
(dp227
g4
I9
sg5
I11
sba(iGenerate
Edge
p228
(dp229
g4
I11
sg5
I12
sba(iGenerate
Edge
p230
(dp231
g4
I12
sg5
I13
sba(iGenerate
Edge
p232
(dp233
g4
I13
sg5
I0
sbaa(lp234
(iGenerate
Edge
p235
(dp236
g4
I0
sg5
I1
sba(iGenerate
Edge
p237
(dp238
g4
I1
sg5
g8
(g12
S'\n\x00\x00\x00'
p239
tp240
Rp241
sba(iGenerate
Edge
p242
(dp243
g4
g241
sg5
I2
sba(iGenerate
Edge
p244
(dp245
g4
I2
sg5
I4
sba(iGenerate
Edge
p246
(dp247
g4
I4
sg5
I3
sba(iGenerate
Edge
p248
(dp249
g4
I3
sg5
I7
sba(iGenerate
Edge
p250
(dp251
g4
I7
sg5
I5
sba(iGenerate
Edge
p252
(dp253
g4
I5
sg5
I8
sba(iGenerate
Edge
p254
(dp255
g4
I8
sg5
I6
sba(iGenerate
Edge
p256
(dp257
g4
I6
sg5
I9
sba(iGenerate
Edge
p258
(dp259
g4
I9
sg5
I11
sba(iGenerate
Edge
p260
(dp261
g4
I11
sg5
I12
sba(iGenerate
Edge
p262
(dp263
g4
I12
sg5
I13
sba(iGenerate
Edge
p264
(dp265
g4
I13
sg5
I0
sbaa(lp266
(iGenerate
Edge
p267
(dp268
g4
I0
sg5
I1
sba(iGenerate
Edge
p269
(dp270
g4
I1
sg5
g8
(g12
S'\n\x00\x00\x00'
p271
tp272
Rp273
sba(iGenerate
Edge
p274
(dp275
g4
g273
sg5
I2
sba(iGenerate
Edge
p276
(dp277
g4
I2
sg5
I4
sba(iGenerate
Edge
p278
(dp279
g4
I4
sg5
I3
sba(iGenerate
Edge
p280
(dp281
g4
I3
sg5
I7
sba(iGenerate
Edge
p282
(dp283
g4
I7
sg5
I5
sba(iGenerate
Edge
p284
(dp285
g4
I5
sg5
I8
sba(iGenerate
Edge
p286
(dp287
g4
I8
sg5
I6
sba(iGenerate
Edge
p288
(dp289
g4
I6
sg5
I9
sba(iGenerate
Edge
p290
(dp291
g4
I9
sg5
I11
sba(iGenerate
Edge
p292
(dp293
g4
I11
sg5
I12
sba(iGenerate
Edge
p294
(dp295
g4
I12
sg5
I13
sba(iGenerate
Edge
p296
(dp297
g4
I13
sg5
I0
sbaa(lp298
(iGenerate
Edge
p299
(dp300
g4
I0
sg5
I1
sba(iGenerate
Edge
p301
(dp302
g4
I1
sg5
g8
(g12
S'\n\x00\x00\x00'
p303
tp304
Rp305
sba(iGenerate
Edge
p306
(dp307
g4
g305
sg5
I2
sba(iGenerate
Edge
p308
(dp309
g4
I2
sg5
I4
sba(iGenerate
Edge
p310
(dp311
g4
I4
sg5
I3
sba(iGenerate
Edge
p312
(dp313
g4
I3
sg5
I7
sba(iGenerate
Edge
p314
(dp315
g4
I7
sg5
I5
sba(iGenerate
Edge
p316
(dp317
g4
I5
sg5
I8
sba(iGenerate
Edge
p318
(dp319
g4
I8
sg5
I6
sba(iGenerate
Edge
p320
(dp321
g4
I6
sg5
I9
sba(iGenerate
Edge
p322
(dp323
g4
I9
sg5
I11
sba(iGenerate
Edge
p324
(dp325
g4
I11
sg5
I12
sba(iGenerate
Edge
p326
(dp327
g4
I12
sg5
I13
sba(iGenerate
Edge
p328
(dp329
g4
I13
sg5
I0
sbaa(lp330
(iGenerate
Edge
p331
(dp332
g4
I0
sg5
I1
sba(iGenerate
Edge
p333
(dp334
g4
I1
sg5
g8
(g12
S'\n\x00\x00\x00'
p335
tp336
Rp337
sba(iGenerate
Edge
p338
(dp339
g4
g337
sg5
I2
sba(iGenerate
Edge
p340
(dp341
g4
I2
sg5
I4
sba(iGenerate
Edge
p342
(dp343
g4
I4
sg5
I3
sba(iGenerate
Edge
p344
(dp345
g4
I3
sg5
I7
sba(iGenerate
Edge
p346
(dp347
g4
I7
sg5
I5
sba(iGenerate
Edge
p348
(dp349
g4
I5
sg5
I8
sba(iGenerate
Edge
p350
(dp351
g4
I8
sg5
I6
sba(iGenerate
Edge
p352
(dp353
g4
I6
sg5
I9
sba(iGenerate
Edge
p354
(dp355
g4
I9
sg5
I11
sba(iGenerate
Edge
p356
(dp357
g4
I11
sg5
I12
sba(iGenerate
Edge
p358
(dp359
g4
I12
sg5
I13
sba(iGenerate
Edge
p360
(dp361
g4
I13
sg5
I0
sbaa(lp362
(iGenerate
Edge
p363
(dp364
g4
I0
sg5
I1
sba(iGenerate
Edge
p365
(dp366
g4
I1
sg5
g8
(g12
S'\n\x00\x00\x00'
p367
tp368
Rp369
sba(iGenerate
Edge
p370
(dp371
g4
g369
sg5
I2
sba(iGenerate
Edge
p372
(dp373
g4
I2
sg5
I4
sba(iGenerate
Edge
p374
(dp375
g4
I4
sg5
I3
sba(iGenerate
Edge
p376
(dp377
g4
I3
sg5
I7
sba(iGenerate
Edge
p378
(dp379
g4
I7
sg5
I5
sba(iGenerate
Edge
p380
(dp381
g4
I5
sg5
I8
sba(iGenerate
Edge
p382
(dp383
g4
I8
sg5
I6
sba(iGenerate
Edge
p384
(dp385
g4
I6
sg5
I9
sba(iGenerate
Edge
p386
(dp387
g4
I9
sg5
I11
sba(iGenerate
Edge
p388
(dp389
g4
I11
sg5
I12
sba(iGenerate
Edge
p390
(dp391
g4
I12
sg5
I13
sba(iGenerate
Edge
p392
(dp393
g4
I13
sg5
I0
sbaa(lp394
(iGenerate
Edge
p395
(dp396
g4
I0
sg5
I1
sba(iGenerate
Edge
p397
(dp398
g4
I1
sg5
g8
(g12
S'\n\x00\x00\x00'
p399
tp400
Rp401
sba(iGenerate
Edge
p402
(dp403
g4
g401
sg5
I2
sba(iGenerate
Edge
p404
(dp405
g4
I2
sg5
I4
sba(iGenerate
Edge
p406
(dp407
g4
I4
sg5
I3
sba(iGenerate
Edge
p408
(dp409
g4
I3
sg5
I7
sba(iGenerate
Edge
p410
(dp411
g4
I7
sg5
I5
sba(iGenerate
Edge
p412
(dp413
g4
I5
sg5
I8
sba(iGenerate
Edge
p414
(dp415
g4
I8
sg5
I6
sba(iGenerate
Edge
p416
(dp417
g4
I6
sg5
I9
sba(iGenerate
Edge
p418
(dp419
g4
I9
sg5
I11
sba(iGenerate
Edge
p420
(dp421
g4
I11
sg5
I12
sba(iGenerate
Edge
p422
(dp423
g4
I12
sg5
I13
sba(iGenerate
Edge
p424
(dp425
g4
I13
sg5
I0
sbaa(lp426
(iGenerate
Edge
p427
(dp428
g4
I0
sg5
I1
sba(iGenerate
Edge
p429
(dp430
g4
I1
sg5
g8
(g12
S'\n\x00\x00\x00'
p431
tp432
Rp433
sba(iGenerate
Edge
p434
(dp435
g4
g433
sg5
I2
sba(iGenerate
Edge
p436
(dp437
g4
I2
sg5
I4
sba(iGenerate
Edge
p438
(dp439
g4
I4
sg5
I3
sba(iGenerate
Edge
p440
(dp441
g4
I3
sg5
I7
sba(iGenerate
Edge
p442
(dp443
g4
I7
sg5
I5
sba(iGenerate
Edge
p444
(dp445
g4
I5
sg5
I8
sba(iGenerate
Edge
p446
(dp447
g4
I8
sg5
I6
sba(iGenerate
Edge
p448
(dp449
g4
I6
sg5
I9
sba(iGenerate
Edge
p450
(dp451
g4
I9
sg5
I11
sba(iGenerate
Edge
p452
(dp453
g4
I11
sg5
I12
sba(iGenerate
Edge
p454
(dp455
g4
I12
sg5
I13
sba(iGenerate
Edge
p456
(dp457
g4
I13
sg5
I0
sbaa(lp458
(iGenerate
Edge
p459
(dp460
g4
I0
sg5
I1
sba(iGenerate
Edge
p461
(dp462
g4
I1
sg5
g8
(g12
S'\n\x00\x00\x00'
p463
tp464
Rp465
sba(iGenerate
Edge
p466
(dp467
g4
g465
sg5
I2
sba(iGenerate
Edge
p468
(dp469
g4
I2
sg5
I4
sba(iGenerate
Edge
p470
(dp471
g4
I4
sg5
I3
sba(iGenerate
Edge
p472
(dp473
g4
I3
sg5
I7
sba(iGenerate
Edge
p474
(dp475
g4
I7
sg5
I5
sba(iGenerate
Edge
p476
(dp477
g4
I5
sg5
I8
sba(iGenerate
Edge
p478
(dp479
g4
I8
sg5
I6
sba(iGenerate
Edge
p480
(dp481
g4
I6
sg5
I9
sba(iGenerate
Edge
p482
(dp483
g4
I9
sg5
I11
sba(iGenerate
Edge
p484
(dp485
g4
I11
sg5
I12
sba(iGenerate
Edge
p486
(dp487
g4
I12
sg5
I13
sba(iGenerate
Edge
p488
(dp489
g4
I13
sg5
I0
sbaa(lp490
(iGenerate
Edge
p491
(dp492
g4
I0
sg5
I1
sba(iGenerate
Edge
p493
(dp494
g4
I1
sg5
g8
(g12
S'\n\x00\x00\x00'
p495
tp496
Rp497
sba(iGenerate
Edge
p498
(dp499
g4
g497
sg5
I2
sba(iGenerate
Edge
p500
(dp501
g4
I2
sg5
I4
sba(iGenerate
Edge
p502
(dp503
g4
I4
sg5
I3
sba(iGenerate
Edge
p504
(dp505
g4
I3
sg5
I7
sba(iGenerate
Edge
p506
(dp507
g4
I7
sg5
I5
sba(iGenerate
Edge
p508
(dp509
g4
I5
sg5
I8
sba(iGenerate
Edge
p510
(dp511
g4
I8
sg5
I6
sba(iGenerate
Edge
p512
(dp513
g4
I6
sg5
I9
sba(iGenerate
Edge
p514
(dp515
g4
I9
sg5
I11
sba(iGenerate
Edge
p516
(dp517
g4
I11
sg5
I12
sba(iGenerate
Edge
p518
(dp519
g4
I12
sg5
I13
sba(iGenerate
Edge
p520
(dp521
g4
I13
sg5
I0
sbaa(lp522
(iGenerate
Edge
p523
(dp524
g4
I0
sg5
I1
sba(iGenerate
Edge
p525
(dp526
g4
I1
sg5
g8
(g12
S'\n\x00\x00\x00'
p527
tp528
Rp529
sba(iGenerate
Edge
p530
(dp531
g4
g529
sg5
I2
sba(iGenerate
Edge
p532
(dp533
g4
I2
sg5
I4
sba(iGenerate
Edge
p534
(dp535
g4
I4
sg5
I3
sba(iGenerate
Edge
p536
(dp537
g4
I3
sg5
I7
sba(iGenerate
Edge
p538
(dp539
g4
I7
sg5
I5
sba(iGenerate
Edge
p540
(dp541
g4
I5
sg5
I8
sba(iGenerate
Edge
p542
(dp543
g4
I8
sg5
I6
sba(iGenerate
Edge
p544
(dp545
g4
I6
sg5
I9
sba(iGenerate
Edge
p546
(dp547
g4
I9
sg5
I11
sba(iGenerate
Edge
p548
(dp549
g4
I11
sg5
I12
sba(iGenerate
Edge
p550
(dp551
g4
I12
sg5
I13
sba(iGenerate
Edge
p552
(dp553
g4
I13
sg5
I0
sbaa(lp554
(iGenerate
Edge
p555
(dp556
g4
I0
sg5
I1
sba(iGenerate
Edge
p557
(dp558
g4
I1
sg5
g8
(g12
S'\n\x00\x00\x00'
p559
tp560
Rp561
sba(iGenerate
Edge
p562
(dp563
g4
g561
sg5
I2
sba(iGenerate
Edge
p564
(dp565
g4
I2
sg5
I4
sba(iGenerate
Edge
p566
(dp567
g4
I4
sg5
I3
sba(iGenerate
Edge
p568
(dp569
g4
I3
sg5
I7
sba(iGenerate
Edge
p570
(dp571
g4
I7
sg5
I5
sba(iGenerate
Edge
p572
(dp573
g4
I5
sg5
I8
sba(iGenerate
Edge
p574
(dp575
g4
I8
sg5
I6
sba(iGenerate
Edge
p576
(dp577
g4
I6
sg5
I9
sba(iGenerate
Edge
p578
(dp579
g4
I9
sg5
I11
sba(iGenerate
Edge
p580
(dp581
g4
I11
sg5
I12
sba(iGenerate
Edge
p582
(dp583
g4
I12
sg5
I13
sba(iGenerate
Edge
p584
(dp585
g4
I13
sg5
I0
sbaa(lp586
(iGenerate
Edge
p587
(dp588
g4
I0
sg5
I1
sba(iGenerate
Edge
p589
(dp590
g4
I1
sg5
g8
(g12
S'\n\x00\x00\x00'
p591
tp592
Rp593
sba(iGenerate
Edge
p594
(dp595
g4
g593
sg5
I2
sba(iGenerate
Edge
p596
(dp597
g4
I2
sg5
I4
sba(iGenerate
Edge
p598
(dp599
g4
I4
sg5
I3
sba(iGenerate
Edge
p600
(dp601
g4
I3
sg5
I7
sba(iGenerate
Edge
p602
(dp603
g4
I7
sg5
I5
sba(iGenerate
Edge
p604
(dp605
g4
I5
sg5
I8
sba(iGenerate
Edge
p606
(dp607
g4
I8
sg5
I6
sba(iGenerate
Edge
p608
(dp609
g4
I6
sg5
I9
sba(iGenerate
Edge
p610
(dp611
g4
I9
sg5
I11
sba(iGenerate
Edge
p612
(dp613
g4
I11
sg5
I12
sba(iGenerate
Edge
p614
(dp615
g4
I12
sg5
I13
sba(iGenerate
Edge
p616
(dp617
g4
I13
sg5
I0
sbaa(lp618
(iGenerate
Edge
p619
(dp620
g4
I0
sg5
I1
sba(iGenerate
Edge
p621
(dp622
g4
I1
sg5
g8
(g12
S'\n\x00\x00\x00'
p623
tp624
Rp625
sba(iGenerate
Edge
p626
(dp627
g4
g625
sg5
I2
sba(iGenerate
Edge
p628
(dp629
g4
I2
sg5
I4
sba(iGenerate
Edge
p630
(dp631
g4
I4
sg5
I3
sba(iGenerate
Edge
p632
(dp633
g4
I3
sg5
I7
sba(iGenerate
Edge
p634
(dp635
g4
I7
sg5
I5
sba(iGenerate
Edge
p636
(dp637
g4
I5
sg5
I8
sba(iGenerate
Edge
p638
(dp639
g4
I8
sg5
I6
sba(iGenerate
Edge
p640
(dp641
g4
I6
sg5
I9
sba(iGenerate
Edge
p642
(dp643
g4
I9
sg5
I11
sba(iGenerate
Edge
p644
(dp645
g4
I11
sg5
I12
sba(iGenerate
Edge
p646
(dp647
g4
I12
sg5
I13
sba(iGenerate
Edge
p648
(dp649
g4
I13
sg5
I0
sbaa(lp650
(iGenerate
Edge
p651
(dp652
g4
I0
sg5
I1
sba(iGenerate
Edge
p653
(dp654
g4
I1
sg5
g8
(g12
S'\n\x00\x00\x00'
p655
tp656
Rp657
sba(iGenerate
Edge
p658
(dp659
g4
g657
sg5
I2
sba(iGenerate
Edge
p660
(dp661
g4
I2
sg5
I4
sba(iGenerate
Edge
p662
(dp663
g4
I4
sg5
I3
sba(iGenerate
Edge
p664
(dp665
g4
I3
sg5
I7
sba(iGenerate
Edge
p666
(dp667
g4
I7
sg5
I5
sba(iGenerate
Edge
p668
(dp669
g4
I5
sg5
I8
sba(iGenerate
Edge
p670
(dp671
g4
I8
sg5
I6
sba(iGenerate
Edge
p672
(dp673
g4
I6
sg5
I9
sba(iGenerate
Edge
p674
(dp675
g4
I9
sg5
I11
sba(iGenerate
Edge
p676
(dp677
g4
I11
sg5
I12
sba(iGenerate
Edge
p678
(dp679
g4
I12
sg5
I13
sba(iGenerate
Edge
p680
(dp681
g4
I13
sg5
I0
sbaa(lp682
(iGenerate
Edge
p683
(dp684
g4
I0
sg5
I1
sba(iGenerate
Edge
p685
(dp686
g4
I1
sg5
g8
(g12
S'\n\x00\x00\x00'
p687
tp688
Rp689
sba(iGenerate
Edge
p690
(dp691
g4
g689
sg5
I2
sba(iGenerate
Edge
p692
(dp693
g4
I2
sg5
I4
sba(iGenerate
Edge
p694
(dp695
g4
I4
sg5
I3
sba(iGenerate
Edge
p696
(dp697
g4
I3
sg5
I7
sba(iGenerate
Edge
p698
(dp699
g4
I7
sg5
I5
sba(iGenerate
Edge
p700
(dp701
g4
I5
sg5
I8
sba(iGenerate
Edge
p702
(dp703
g4
I8
sg5
I6
sba(iGenerate
Edge
p704
(dp705
g4
I6
sg5
I9
sba(iGenerate
Edge
p706
(dp707
g4
I9
sg5
I11
sba(iGenerate
Edge
p708
(dp709
g4
I11
sg5
I12
sba(iGenerate
Edge
p710
(dp711
g4
I12
sg5
I13
sba(iGenerate
Edge
p712
(dp713
g4
I13
sg5
I0
sbaa(lp714
(iGenerate
Edge
p715
(dp716
g4
I0
sg5
I1
sba(iGenerate
Edge
p717
(dp718
g4
I1
sg5
g8
(g12
S'\n\x00\x00\x00'
p719
tp720
Rp721
sba(iGenerate
Edge
p722
(dp723
g4
g721
sg5
I2
sba(iGenerate
Edge
p724
(dp725
g4
I2
sg5
I4
sba(iGenerate
Edge
p726
(dp727
g4
I4
sg5
I3
sba(iGenerate
Edge
p728
(dp729
g4
I3
sg5
I7
sba(iGenerate
Edge
p730
(dp731
g4
I7
sg5
I5
sba(iGenerate
Edge
p732
(dp733
g4
I5
sg5
I8
sba(iGenerate
Edge
p734
(dp735
g4
I8
sg5
I6
sba(iGenerate
Edge
p736
(dp737
g4
I6
sg5
I9
sba(iGenerate
Edge
p738
(dp739
g4
I9
sg5
I11
sba(iGenerate
Edge
p740
(dp741
g4
I11
sg5
I12
sba(iGenerate
Edge
p742
(dp743
g4
I12
sg5
I13
sba(iGenerate
Edge
p744
(dp745
g4
I13
sg5
I0
sbaa(lp746
(iGenerate
Edge
p747
(dp748
g4
I0
sg5
I1
sba(iGenerate
Edge
p749
(dp750
g4
I1
sg5
g8
(g12
S'\n\x00\x00\x00'
p751
tp752
Rp753
sba(iGenerate
Edge
p754
(dp755
g4
g753
sg5
I2
sba(iGenerate
Edge
p756
(dp757
g4
I2
sg5
I4
sba(iGenerate
Edge
p758
(dp759
g4
I4
sg5
I3
sba(iGenerate
Edge
p760
(dp761
g4
I3
sg5
I7
sba(iGenerate
Edge
p762
(dp763
g4
I7
sg5
I5
sba(iGenerate
Edge
p764
(dp765
g4
I5
sg5
I8
sba(iGenerate
Edge
p766
(dp767
g4
I8
sg5
I6
sba(iGenerate
Edge
p768
(dp769
g4
I6
sg5
I9
sba(iGenerate
Edge
p770
(dp771
g4
I9
sg5
I11
sba(iGenerate
Edge
p772
(dp773
g4
I11
sg5
I12
sba(iGenerate
Edge
p774
(dp775
g4
I12
sg5
I13
sba(iGenerate
Edge
p776
(dp777
g4
I13
sg5
I0
sbaa(lp778
(iGenerate
Edge
p779
(dp780
g4
I0
sg5
I1
sba(iGenerate
Edge
p781
(dp782
g4
I1
sg5
g8
(g12
S'\n\x00\x00\x00'
p783
tp784
Rp785
sba(iGenerate
Edge
p786
(dp787
g4
g785
sg5
I2
sba(iGenerate
Edge
p788
(dp789
g4
I2
sg5
I4
sba(iGenerate
Edge
p790
(dp791
g4
I4
sg5
I3
sba(iGenerate
Edge
p792
(dp793
g4
I3
sg5
I7
sba(iGenerate
Edge
p794
(dp795
g4
I7
sg5
I5
sba(iGenerate
Edge
p796
(dp797
g4
I5
sg5
I8
sba(iGenerate
Edge
p798
(dp799
g4
I8
sg5
I6
sba(iGenerate
Edge
p800
(dp801
g4
I6
sg5
I9
sba(iGenerate
Edge
p802
(dp803
g4
I9
sg5
I11
sba(iGenerate
Edge
p804
(dp805
g4
I11
sg5
I12
sba(iGenerate
Edge
p806
(dp807
g4
I12
sg5
I13
sba(iGenerate
Edge
p808
(dp809
g4
I13
sg5
I0
sbaa(lp810
(iGenerate
Edge
p811
(dp812
g4
I0
sg5
I1
sba(iGenerate
Edge
p813
(dp814
g4
I1
sg5
g8
(g12
S'\n\x00\x00\x00'
p815
tp816
Rp817
sba(iGenerate
Edge
p818
(dp819
g4
g817
sg5
I2
sba(iGenerate
Edge
p820
(dp821
g4
I2
sg5
I4
sba(iGenerate
Edge
p822
(dp823
g4
I4
sg5
I3
sba(iGenerate
Edge
p824
(dp825
g4
I3
sg5
I7
sba(iGenerate
Edge
p826
(dp827
g4
I7
sg5
I5
sba(iGenerate
Edge
p828
(dp829
g4
I5
sg5
I8
sba(iGenerate
Edge
p830
(dp831
g4
I8
sg5
I6
sba(iGenerate
Edge
p832
(dp833
g4
I6
sg5
I9
sba(iGenerate
Edge
p834
(dp835
g4
I9
sg5
I11
sba(iGenerate
Edge
p836
(dp837
g4
I11
sg5
I12
sba(iGenerate
Edge
p838
(dp839
g4
I12
sg5
I13
sba(iGenerate
Edge
p840
(dp841
g4
I13
sg5
I0
sbaa(lp842
(iGenerate
Edge
p843
(dp844
g4
I0
sg5
I1
sba(iGenerate
Edge
p845
(dp846
g4
I1
sg5
g8
(g12
S'\n\x00\x00\x00'
p847
tp848
Rp849
sba(iGenerate
Edge
p850
(dp851
g4
g849
sg5
I2
sba(iGenerate
Edge
p852
(dp853
g4
I2
sg5
I4
sba(iGenerate
Edge
p854
(dp855
g4
I4
sg5
I3
sba(iGenerate
Edge
p856
(dp857
g4
I3
sg5
I7
sba(iGenerate
Edge
p858
(dp859
g4
I7
sg5
I5
sba(iGenerate
Edge
p860
(dp861
g4
I5
sg5
I8
sba(iGenerate
Edge
p862
(dp863
g4
I8
sg5
I6
sba(iGenerate
Edge
p864
(dp865
g4
I6
sg5
I9
sba(iGenerate
Edge
p866
(dp867
g4
I9
sg5
I11
sba(iGenerate
Edge
p868
(dp869
g4
I11
sg5
I12
sba(iGenerate
Edge
p870
(dp871
g4
I12
sg5
I13
sba(iGenerate
Edge
p872
(dp873
g4
I13
sg5
I0
sbaa(lp874
(iGenerate
Edge
p875
(dp876
g4
I0
sg5
I1
sba(iGenerate
Edge
p877
(dp878
g4
I1
sg5
g8
(g12
S'\n\x00\x00\x00'
p879
tp880
Rp881
sba(iGenerate
Edge
p882
(dp883
g4
g881
sg5
I2
sba(iGenerate
Edge
p884
(dp885
g4
I2
sg5
I4
sba(iGenerate
Edge
p886
(dp887
g4
I4
sg5
I3
sba(iGenerate
Edge
p888
(dp889
g4
I3
sg5
I7
sba(iGenerate
Edge
p890
(dp891
g4
I7
sg5
I5
sba(iGenerate
Edge
p892
(dp893
g4
I5
sg5
I8
sba(iGenerate
Edge
p894
(dp895
g4
I8
sg5
I6
sba(iGenerate
Edge
p896
(dp897
g4
I6
sg5
I9
sba(iGenerate
Edge
p898
(dp899
g4
I9
sg5
I11
sba(iGenerate
Edge
p900
(dp901
g4
I11
sg5
I12
sba(iGenerate
Edge
p902
(dp903
g4
I12
sg5
I13
sba(iGenerate
Edge
p904
(dp905
g4
I13
sg5
I0
sbaa(lp906
(iGenerate
Edge
p907
(dp908
g4
I0
sg5
I1
sba(iGenerate
Edge
p909
(dp910
g4
I1
sg5
g8
(g12
S'\n\x00\x00\x00'
p911
tp912
Rp913
sba(iGenerate
Edge
p914
(dp915
g4
g913
sg5
I2
sba(iGenerate
Edge
p916
(dp917
g4
I2
sg5
I4
sba(iGenerate
Edge
p918
(dp919
g4
I4
sg5
I3
sba(iGenerate
Edge
p920
(dp921
g4
I3
sg5
I7
sba(iGenerate
Edge
p922
(dp923
g4
I7
sg5
I5
sba(iGenerate
Edge
p924
(dp925
g4
I5
sg5
I8
sba(iGenerate
Edge
p926
(dp927
g4
I8
sg5
I6
sba(iGenerate
Edge
p928
(dp929
g4
I6
sg5
I9
sba(iGenerate
Edge
p930
(dp931
g4
I9
sg5
I11
sba(iGenerate
Edge
p932
(dp933
g4
I11
sg5
I12
sba(iGenerate
Edge
p934
(dp935
g4
I12
sg5
I13
sba(iGenerate
Edge
p936
(dp937
g4
I13
sg5
I0
sbaa(lp938
(iGenerate
Edge
p939
(dp940
g4
I0
sg5
I1
sba(iGenerate
Edge
p941
(dp942
g4
I1
sg5
g8
(g12
S'\n\x00\x00\x00'
p943
tp944
Rp945
sba(iGenerate
Edge
p946
(dp947
g4
g945
sg5
I2
sba(iGenerate
Edge
p948
(dp949
g4
I2
sg5
I4
sba(iGenerate
Edge
p950
(dp951
g4
I4
sg5
I3
sba(iGenerate
Edge
p952
(dp953
g4
I3
sg5
I7
sba(iGenerate
Edge
p954
(dp955
g4
I7
sg5
I5
sba(iGenerate
Edge
p956
(dp957
g4
I5
sg5
I8
sba(iGenerate
Edge
p958
(dp959
g4
I8
sg5
I6
sba(iGenerate
Edge
p960
(dp961
g4
I6
sg5
I9
sba(iGenerate
Edge
p962
(dp963
g4
I9
sg5
I11
sba(iGenerate
Edge
p964
(dp965
g4
I11
sg5
I12
sba(iGenerate
Edge
p966
(dp967
g4
I12
sg5
I13
sba(iGenerate
Edge
p968
(dp969
g4
I13
sg5
I0
sbaa(lp970
(iGenerate
Edge
p971
(dp972
g4
I0
sg5
I1
sba(iGenerate
Edge
p973
(dp974
g4
I1
sg5
g8
(g12
S'\n\x00\x00\x00'
p975
tp976
Rp977
sba(iGenerate
Edge
p978
(dp979
g4
g977
sg5
I2
sba(iGenerate
Edge
p980
(dp981
g4
I2
sg5
I4
sba(iGenerate
Edge
p982
(dp983
g4
I4
sg5
I3
sba(iGenerate
Edge
p984
(dp985
g4
I3
sg5
I7
sba(iGenerate
Edge
p986
(dp987
g4
I7
sg5
I5
sba(iGenerate
Edge
p988
(dp989
g4
I5
sg5
I8
sba(iGenerate
Edge
p990
(dp991
g4
I8
sg5
I6
sba(iGenerate
Edge
p992
(dp993
g4
I6
sg5
I9
sba(iGenerate
Edge
p994
(dp995
g4
I9
sg5
I11
sba(iGenerate
Edge
p996
(dp997
g4
I11
sg5
I12
sba(iGenerate
Edge
p998
(dp999
g4
I12
sg5
I13
sba(iGenerate
Edge
p1000
(dp1001
g4
I13
sg5
I0
sbaa(lp1002
(iGenerate
Edge
p1003
(dp1004
g4
I0
sg5
I1
sba(iGenerate
Edge
p1005
(dp1006
g4
I1
sg5
g8
(g12
S'\n\x00\x00\x00'
p1007
tp1008
Rp1009
sba(iGenerate
Edge
p1010
(dp1011
g4
g1009
sg5
I2
sba(iGenerate
Edge
p1012
(dp1013
g4
I2
sg5
I4
sba(iGenerate
Edge
p1014
(dp1015
g4
I4
sg5
I3
sba(iGenerate
Edge
p1016
(dp1017
g4
I3
sg5
I7
sba(iGenerate
Edge
p1018
(dp1019
g4
I7
sg5
I5
sba(iGenerate
Edge
p1020
(dp1021
g4
I5
sg5
I8
sba(iGenerate
Edge
p1022
(dp1023
g4
I8
sg5
I6
sba(iGenerate
Edge
p1024
(dp1025
g4
I6
sg5
I9
sba(iGenerate
Edge
p1026
(dp1027
g4
I9
sg5
I11
sba(iGenerate
Edge
p1028
(dp1029
g4
I11
sg5
I12
sba(iGenerate
Edge
p1030
(dp1031
g4
I12
sg5
I13
sba(iGenerate
Edge
p1032
(dp1033
g4
I13
sg5
I0
sbaa(lp1034
(iGenerate
Edge
p1035
(dp1036
g4
I0
sg5
I1
sba(iGenerate
Edge
p1037
(dp1038
g4
I1
sg5
g8
(g12
S'\n\x00\x00\x00'
p1039
tp1040
Rp1041
sba(iGenerate
Edge
p1042
(dp1043
g4
g1041
sg5
I2
sba(iGenerate
Edge
p1044
(dp1045
g4
I2
sg5
I4
sba(iGenerate
Edge
p1046
(dp1047
g4
I4
sg5
I3
sba(iGenerate
Edge
p1048
(dp1049
g4
I3
sg5
I7
sba(iGenerate
Edge
p1050
(dp1051
g4
I7
sg5
I5
sba(iGenerate
Edge
p1052
(dp1053
g4
I5
sg5
I8
sba(iGenerate
Edge
p1054
(dp1055
g4
I8
sg5
I6
sba(iGenerate
Edge
p1056
(dp1057
g4
I6
sg5
I9
sba(iGenerate
Edge
p1058
(dp1059
g4
I9
sg5
I11
sba(iGenerate
Edge
p1060
(dp1061
g4
I11
sg5
I12
sba(iGenerate
Edge
p1062
(dp1063
g4
I12
sg5
I13
sba(iGenerate
Edge
p1064
(dp1065
g4
I13
sg5
I0
sbaa(lp1066
(iGenerate
Edge
p1067
(dp1068
g4
I0
sg5
I1
sba(iGenerate
Edge
p1069
(dp1070
g4
I1
sg5
g8
(g12
S'\n\x00\x00\x00'
p1071
tp1072
Rp1073
sba(iGenerate
Edge
p1074
(dp1075
g4
g1073
sg5
I2
sba(iGenerate
Edge
p1076
(dp1077
g4
I2
sg5
I4
sba(iGenerate
Edge
p1078
(dp1079
g4
I4
sg5
I3
sba(iGenerate
Edge
p1080
(dp1081
g4
I3
sg5
I7
sba(iGenerate
Edge
p1082
(dp1083
g4
I7
sg5
I5
sba(iGenerate
Edge
p1084
(dp1085
g4
I5
sg5
I8
sba(iGenerate
Edge
p1086
(dp1087
g4
I8
sg5
I6
sba(iGenerate
Edge
p1088
(dp1089
g4
I6
sg5
I9
sba(iGenerate
Edge
p1090
(dp1091
g4
I9
sg5
I11
sba(iGenerate
Edge
p1092
(dp1093
g4
I11
sg5
I12
sba(iGenerate
Edge
p1094
(dp1095
g4
I12
sg5
I13
sba(iGenerate
Edge
p1096
(dp1097
g4
I13
sg5
I0
sbaa(lp1098
(iGenerate
Edge
p1099
(dp1100
g4
I0
sg5
I1
sba(iGenerate
Edge
p1101
(dp1102
g4
I1
sg5
g8
(g12
S'\n\x00\x00\x00'
p1103
tp1104
Rp1105
sba(iGenerate
Edge
p1106
(dp1107
g4
g1105
sg5
I2
sba(iGenerate
Edge
p1108
(dp1109
g4
I2
sg5
I4
sba(iGenerate
Edge
p1110
(dp1111
g4
I4
sg5
I3
sba(iGenerate
Edge
p1112
(dp1113
g4
I3
sg5
I7
sba(iGenerate
Edge
p1114
(dp1115
g4
I7
sg5
I5
sba(iGenerate
Edge
p1116
(dp1117
g4
I5
sg5
I8
sba(iGenerate
Edge
p1118
(dp1119
g4
I8
sg5
I6
sba(iGenerate
Edge
p1120
(dp1121
g4
I6
sg5
I9
sba(iGenerate
Edge
p1122
(dp1123
g4
I9
sg5
I11
sba(iGenerate
Edge
p1124
(dp1125
g4
I11
sg5
I12
sba(iGenerate
Edge
p1126
(dp1127
g4
I12
sg5
I13
sba(iGenerate
Edge
p1128
(dp1129
g4
I13
sg5
I0
sbaa(lp1130
(iGenerate
Edge
p1131
(dp1132
g4
I0
sg5
I1
sba(iGenerate
Edge
p1133
(dp1134
g4
I1
sg5
g8
(g12
S'\n\x00\x00\x00'
p1135
tp1136
Rp1137
sba(iGenerate
Edge
p1138
(dp1139
g4
g1137
sg5
I2
sba(iGenerate
Edge
p1140
(dp1141
g4
I2
sg5
I4
sba(iGenerate
Edge
p1142
(dp1143
g4
I4
sg5
I3
sba(iGenerate
Edge
p1144
(dp1145
g4
I3
sg5
I7
sba(iGenerate
Edge
p1146
(dp1147
g4
I7
sg5
I5
sba(iGenerate
Edge
p1148
(dp1149
g4
I5
sg5
I8
sba(iGenerate
Edge
p1150
(dp1151
g4
I8
sg5
I6
sba(iGenerate
Edge
p1152
(dp1153
g4
I6
sg5
I9
sba(iGenerate
Edge
p1154
(dp1155
g4
I9
sg5
I11
sba(iGenerate
Edge
p1156
(dp1157
g4
I11
sg5
I12
sba(iGenerate
Edge
p1158
(dp1159
g4
I12
sg5
I13
sba(iGenerate
Edge
p1160
(dp1161
g4
I13
sg5
I0
sbaa(lp1162
(iGenerate
Edge
p1163
(dp1164
g4
I0
sg5
I1
sba(iGenerate
Edge
p1165
(dp1166
g4
I1
sg5
g8
(g12
S'\n\x00\x00\x00'
p1167
tp1168
Rp1169
sba(iGenerate
Edge
p1170
(dp1171
g4
g1169
sg5
I2
sba(iGenerate
Edge
p1172
(dp1173
g4
I2
sg5
I4
sba(iGenerate
Edge
p1174
(dp1175
g4
I4
sg5
I3
sba(iGenerate
Edge
p1176
(dp1177
g4
I3
sg5
I7
sba(iGenerate
Edge
p1178
(dp1179
g4
I7
sg5
I5
sba(iGenerate
Edge
p1180
(dp1181
g4
I5
sg5
I8
sba(iGenerate
Edge
p1182
(dp1183
g4
I8
sg5
I6
sba(iGenerate
Edge
p1184
(dp1185
g4
I6
sg5
I9
sba(iGenerate
Edge
p1186
(dp1187
g4
I9
sg5
I11
sba(iGenerate
Edge
p1188
(dp1189
g4
I11
sg5
I12
sba(iGenerate
Edge
p1190
(dp1191
g4
I12
sg5
I13
sba(iGenerate
Edge
p1192
(dp1193
g4
I13
sg5
I0
sbaa(lp1194
(iGenerate
Edge
p1195
(dp1196
g4
I0
sg5
I1
sba(iGenerate
Edge
p1197
(dp1198
g4
I1
sg5
g8
(g12
S'\n\x00\x00\x00'
p1199
tp1200
Rp1201
sba(iGenerate
Edge
p1202
(dp1203
g4
g1201
sg5
I2
sba(iGenerate
Edge
p1204
(dp1205
g4
I2
sg5
I4
sba(iGenerate
Edge
p1206
(dp1207
g4
I4
sg5
I3
sba(iGenerate
Edge
p1208
(dp1209
g4
I3
sg5
I7
sba(iGenerate
Edge
p1210
(dp1211
g4
I7
sg5
I5
sba(iGenerate
Edge
p1212
(dp1213
g4
I5
sg5
I8
sba(iGenerate
Edge
p1214
(dp1215
g4
I8
sg5
I6
sba(iGenerate
Edge
p1216
(dp1217
g4
I6
sg5
I9
sba(iGenerate
Edge
p1218
(dp1219
g4
I9
sg5
I11
sba(iGenerate
Edge
p1220
(dp1221
g4
I11
sg5
I12
sba(iGenerate
Edge
p1222
(dp1223
g4
I12
sg5
I13
sba(iGenerate
Edge
p1224
(dp1225
g4
I13
sg5
I0
sbaa(lp1226
(iGenerate
Edge
p1227
(dp1228
g4
I0
sg5
I1
sba(iGenerate
Edge
p1229
(dp1230
g4
I1
sg5
g8
(g12
S'\n\x00\x00\x00'
p1231
tp1232
Rp1233
sba(iGenerate
Edge
p1234
(dp1235
g4
g1233
sg5
I2
sba(iGenerate
Edge
p1236
(dp1237
g4
I2
sg5
I4
sba(iGenerate
Edge
p1238
(dp1239
g4
I4
sg5
I3
sba(iGenerate
Edge
p1240
(dp1241
g4
I3
sg5
I7
sba(iGenerate
Edge
p1242
(dp1243
g4
I7
sg5
I5
sba(iGenerate
Edge
p1244
(dp1245
g4
I5
sg5
I8
sba(iGenerate
Edge
p1246
(dp1247
g4
I8
sg5
I6
sba(iGenerate
Edge
p1248
(dp1249
g4
I6
sg5
I9
sba(iGenerate
Edge
p1250
(dp1251
g4
I9
sg5
I11
sba(iGenerate
Edge
p1252
(dp1253
g4
I11
sg5
I12
sba(iGenerate
Edge
p1254
(dp1255
g4
I12
sg5
I13
sba(iGenerate
Edge
p1256
(dp1257
g4
I13
sg5
I0
sbaa(lp1258
(iGenerate
Edge
p1259
(dp1260
g4
I0
sg5
I1
sba(iGenerate
Edge
p1261
(dp1262
g4
I1
sg5
g8
(g12
S'\n\x00\x00\x00'
p1263
tp1264
Rp1265
sba(iGenerate
Edge
p1266
(dp1267
g4
g1265
sg5
I2
sba(iGenerate
Edge
p1268
(dp1269
g4
I2
sg5
I4
sba(iGenerate
Edge
p1270
(dp1271
g4
I4
sg5
I3
sba(iGenerate
Edge
p1272
(dp1273
g4
I3
sg5
I7
sba(iGenerate
Edge
p1274
(dp1275
g4
I7
sg5
I5
sba(iGenerate
Edge
p1276
(dp1277
g4
I5
sg5
I8
sba(iGenerate
Edge
p1278
(dp1279
g4
I8
sg5
I6
sba(iGenerate
Edge
p1280
(dp1281
g4
I6
sg5
I9
sba(iGenerate
Edge
p1282
(dp1283
g4
I9
sg5
I11
sba(iGenerate
Edge
p1284
(dp1285
g4
I11
sg5
I12
sba(iGenerate
Edge
p1286
(dp1287
g4
I12
sg5
I13
sba(iGenerate
Edge
p1288
(dp1289
g4
I13
sg5
I0
sbaa(lp1290
(iGenerate
Edge
p1291
(dp1292
g4
I0
sg5
I1
sba(iGenerate
Edge
p1293
(dp1294
g4
I1
sg5
g8
(g12
S'\n\x00\x00\x00'
p1295
tp1296
Rp1297
sba(iGenerate
Edge
p1298
(dp1299
g4
g1297
sg5
I2
sba(iGenerate
Edge
p1300
(dp1301
g4
I2
sg5
I4
sba(iGenerate
Edge
p1302
(dp1303
g4
I4
sg5
I3
sba(iGenerate
Edge
p1304
(dp1305
g4
I3
sg5
I7
sba(iGenerate
Edge
p1306
(dp1307
g4
I7
sg5
I5
sba(iGenerate
Edge
p1308
(dp1309
g4
I5
sg5
I8
sba(iGenerate
Edge
p1310
(dp1311
g4
I8
sg5
I6
sba(iGenerate
Edge
p1312
(dp1313
g4
I6
sg5
I9
sba(iGenerate
Edge
p1314
(dp1315
g4
I9
sg5
I11
sba(iGenerate
Edge
p1316
(dp1317
g4
I11
sg5
I12
sba(iGenerate
Edge
p1318
(dp1319
g4
I12
sg5
I13
sba(iGenerate
Edge
p1320
(dp1321
g4
I13
sg5
I0
sbaa(lp1322
(iGenerate
Edge
p1323
(dp1324
g4
I0
sg5
I1
sba(iGenerate
Edge
p1325
(dp1326
g4
I1
sg5
g8
(g12
S'\n\x00\x00\x00'
p1327
tp1328
Rp1329
sba(iGenerate
Edge
p1330
(dp1331
g4
g1329
sg5
I2
sba(iGenerate
Edge
p1332
(dp1333
g4
I2
sg5
I4
sba(iGenerate
Edge
p1334
(dp1335
g4
I4
sg5
I3
sba(iGenerate
Edge
p1336
(dp1337
g4
I3
sg5
I7
sba(iGenerate
Edge
p1338
(dp1339
g4
I7
sg5
I5
sba(iGenerate
Edge
p1340
(dp1341
g4
I5
sg5
I8
sba(iGenerate
Edge
p1342
(dp1343
g4
I8
sg5
I6
sba(iGenerate
Edge
p1344
(dp1345
g4
I6
sg5
I9
sba(iGenerate
Edge
p1346
(dp1347
g4
I9
sg5
I11
sba(iGenerate
Edge
p1348
(dp1349
g4
I11
sg5
I12
sba(iGenerate
Edge
p1350
(dp1351
g4
I12
sg5
I13
sba(iGenerate
Edge
p1352
(dp1353
g4
I13
sg5
I0
sbaa(lp1354
(iGenerate
Edge
p1355
(dp1356
g4
I0
sg5
I1
sba(iGenerate
Edge
p1357
(dp1358
g4
I1
sg5
g8
(g12
S'\n\x00\x00\x00'
p1359
tp1360
Rp1361
sba(iGenerate
Edge
p1362
(dp1363
g4
g1361
sg5
I2
sba(iGenerate
Edge
p1364
(dp1365
g4
I2
sg5
I4
sba(iGenerate
Edge
p1366
(dp1367
g4
I4
sg5
I3
sba(iGenerate
Edge
p1368
(dp1369
g4
I3
sg5
I7
sba(iGenerate
Edge
p1370
(dp1371
g4
I7
sg5
I5
sba(iGenerate
Edge
p1372
(dp1373
g4
I5
sg5
I8
sba(iGenerate
Edge
p1374
(dp1375
g4
I8
sg5
I6
sba(iGenerate
Edge
p1376
(dp1377
g4
I6
sg5
I9
sba(iGenerate
Edge
p1378
(dp1379
g4
I9
sg5
I11
sba(iGenerate
Edge
p1380
(dp1381
g4
I11
sg5
I12
sba(iGenerate
Edge
p1382
(dp1383
g4
I12
sg5
I13
sba(iGenerate
Edge
p1384
(dp1385
g4
I13
sg5
I0
sbaa(lp1386
(iGenerate
Edge
p1387
(dp1388
g4
I0
sg5
I1
sba(iGenerate
Edge
p1389
(dp1390
g4
I1
sg5
g8
(g12
S'\n\x00\x00\x00'
p1391
tp1392
Rp1393
sba(iGenerate
Edge
p1394
(dp1395
g4
g1393
sg5
I2
sba(iGenerate
Edge
p1396
(dp1397
g4
I2
sg5
I4
sba(iGenerate
Edge
p1398
(dp1399
g4
I4
sg5
I3
sba(iGenerate
Edge
p1400
(dp1401
g4
I3
sg5
I7
sba(iGenerate
Edge
p1402
(dp1403
g4
I7
sg5
I5
sba(iGenerate
Edge
p1404
(dp1405
g4
I5
sg5
I8
sba(iGenerate
Edge
p1406
(dp1407
g4
I8
sg5
I6
sba(iGenerate
Edge
p1408
(dp1409
g4
I6
sg5
I9
sba(iGenerate
Edge
p1410
(dp1411
g4
I9
sg5
I11
sba(iGenerate
Edge
p1412
(dp1413
g4
I11
sg5
I12
sba(iGenerate
Edge
p1414
(dp1415
g4
I12
sg5
I13
sba(iGenerate
Edge
p1416
(dp1417
g4
I13
sg5
I0
sbaa(lp1418
(iGenerate
Edge
p1419
(dp1420
g4
I0
sg5
I1
sba(iGenerate
Edge
p1421
(dp1422
g4
I1
sg5
g8
(g12
S'\n\x00\x00\x00'
p1423
tp1424
Rp1425
sba(iGenerate
Edge
p1426
(dp1427
g4
g1425
sg5
I2
sba(iGenerate
Edge
p1428
(dp1429
g4
I2
sg5
I4
sba(iGenerate
Edge
p1430
(dp1431
g4
I4
sg5
I3
sba(iGenerate
Edge
p1432
(dp1433
g4
I3
sg5
I7
sba(iGenerate
Edge
p1434
(dp1435
g4
I7
sg5
I5
sba(iGenerate
Edge
p1436
(dp1437
g4
I5
sg5
I8
sba(iGenerate
Edge
p1438
(dp1439
g4
I8
sg5
I6
sba(iGenerate
Edge
p1440
(dp1441
g4
I6
sg5
I9
sba(iGenerate
Edge
p1442
(dp1443
g4
I9
sg5
I11
sba(iGenerate
Edge
p1444
(dp1445
g4
I11
sg5
I12
sba(iGenerate
Edge
p1446
(dp1447
g4
I12
sg5
I13
sba(iGenerate
Edge
p1448
(dp1449
g4
I13
sg5
I0
sbaa(lp1450
(iGenerate
Edge
p1451
(dp1452
g4
I0
sg5
I1
sba(iGenerate
Edge
p1453
(dp1454
g4
I1
sg5
g8
(g12
S'\n\x00\x00\x00'
p1455
tp1456
Rp1457
sba(iGenerate
Edge
p1458
(dp1459
g4
g1457
sg5
I2
sba(iGenerate
Edge
p1460
(dp1461
g4
I2
sg5
I4
sba(iGenerate
Edge
p1462
(dp1463
g4
I4
sg5
I3
sba(iGenerate
Edge
p1464
(dp1465
g4
I3
sg5
I7
sba(iGenerate
Edge
p1466
(dp1467
g4
I7
sg5
I5
sba(iGenerate
Edge
p1468
(dp1469
g4
I5
sg5
I8
sba(iGenerate
Edge
p1470
(dp1471
g4
I8
sg5
I6
sba(iGenerate
Edge
p1472
(dp1473
g4
I6
sg5
I9
sba(iGenerate
Edge
p1474
(dp1475
g4
I9
sg5
I11
sba(iGenerate
Edge
p1476
(dp1477
g4
I11
sg5
I12
sba(iGenerate
Edge
p1478
(dp1479
g4
I12
sg5
I13
sba(iGenerate
Edge
p1480
(dp1481
g4
I13
sg5
I0
sbaa(lp1482
(iGenerate
Edge
p1483
(dp1484
g4
I0
sg5
I1
sba(iGenerate
Edge
p1485
(dp1486
g4
I1
sg5
g8
(g12
S'\n\x00\x00\x00'
p1487
tp1488
Rp1489
sba(iGenerate
Edge
p1490
(dp1491
g4
g1489
sg5
I2
sba(iGenerate
Edge
p1492
(dp1493
g4
I2
sg5
I4
sba(iGenerate
Edge
p1494
(dp1495
g4
I4
sg5
I3
sba(iGenerate
Edge
p1496
(dp1497
g4
I3
sg5
I7
sba(iGenerate
Edge
p1498
(dp1499
g4
I7
sg5
I5
sba(iGenerate
Edge
p1500
(dp1501
g4
I5
sg5
I8
sba(iGenerate
Edge
p1502
(dp1503
g4
I8
sg5
I6
sba(iGenerate
Edge
p1504
(dp1505
g4
I6
sg5
I9
sba(iGenerate
Edge
p1506
(dp1507
g4
I9
sg5
I11
sba(iGenerate
Edge
p1508
(dp1509
g4
I11
sg5
I12
sba(iGenerate
Edge
p1510
(dp1511
g4
I12
sg5
I13
sba(iGenerate
Edge
p1512
(dp1513
g4
I13
sg5
I0
sbaa(lp1514
(iGenerate
Edge
p1515
(dp1516
g4
I0
sg5
I1
sba(iGenerate
Edge
p1517
(dp1518
g4
I1
sg5
g8
(g12
S'\n\x00\x00\x00'
p1519
tp1520
Rp1521
sba(iGenerate
Edge
p1522
(dp1523
g4
g1521
sg5
I2
sba(iGenerate
Edge
p1524
(dp1525
g4
I2
sg5
I4
sba(iGenerate
Edge
p1526
(dp1527
g4
I4
sg5
I3
sba(iGenerate
Edge
p1528
(dp1529
g4
I3
sg5
I7
sba(iGenerate
Edge
p1530
(dp1531
g4
I7
sg5
I5
sba(iGenerate
Edge
p1532
(dp1533
g4
I5
sg5
I8
sba(iGenerate
Edge
p1534
(dp1535
g4
I8
sg5
I6
sba(iGenerate
Edge
p1536
(dp1537
g4
I6
sg5
I9
sba(iGenerate
Edge
p1538
(dp1539
g4
I9
sg5
I11
sba(iGenerate
Edge
p1540
(dp1541
g4
I11
sg5
I12
sba(iGenerate
Edge
p1542
(dp1543
g4
I12
sg5
I13
sba(iGenerate
Edge
p1544
(dp1545
g4
I13
sg5
I0
sbaa(lp1546
(iGenerate
Edge
p1547
(dp1548
g4
I0
sg5
I1
sba(iGenerate
Edge
p1549
(dp1550
g4
I1
sg5
g8
(g12
S'\n\x00\x00\x00'
p1551
tp1552
Rp1553
sba(iGenerate
Edge
p1554
(dp1555
g4
g1553
sg5
I2
sba(iGenerate
Edge
p1556
(dp1557
g4
I2
sg5
I4
sba(iGenerate
Edge
p1558
(dp1559
g4
I4
sg5
I3
sba(iGenerate
Edge
p1560
(dp1561
g4
I3
sg5
I7
sba(iGenerate
Edge
p1562
(dp1563
g4
I7
sg5
I5
sba(iGenerate
Edge
p1564
(dp1565
g4
I5
sg5
I8
sba(iGenerate
Edge
p1566
(dp1567
g4
I8
sg5
I6
sba(iGenerate
Edge
p1568
(dp1569
g4
I6
sg5
I9
sba(iGenerate
Edge
p1570
(dp1571
g4
I9
sg5
I11
sba(iGenerate
Edge
p1572
(dp1573
g4
I11
sg5
I12
sba(iGenerate
Edge
p1574
(dp1575
g4
I12
sg5
I13
sba(iGenerate
Edge
p1576
(dp1577
g4
I13
sg5
I0
sbaa(lp1578
(iGenerate
Edge
p1579
(dp1580
g4
I0
sg5
I1
sba(iGenerate
Edge
p1581
(dp1582
g4
I1
sg5
g8
(g12
S'\n\x00\x00\x00'
p1583
tp1584
Rp1585
sba(iGenerate
Edge
p1586
(dp1587
g4
g1585
sg5
I2
sba(iGenerate
Edge
p1588
(dp1589
g4
I2
sg5
I4
sba(iGenerate
Edge
p1590
(dp1591
g4
I4
sg5
I3
sba(iGenerate
Edge
p1592
(dp1593
g4
I3
sg5
I7
sba(iGenerate
Edge
p1594
(dp1595
g4
I7
sg5
I5
sba(iGenerate
Edge
p1596
(dp1597
g4
I5
sg5
I8
sba(iGenerate
Edge
p1598
(dp1599
g4
I8
sg5
I6
sba(iGenerate
Edge
p1600
(dp1601
g4
I6
sg5
I9
sba(iGenerate
Edge
p1602
(dp1603
g4
I9
sg5
I11
sba(iGenerate
Edge
p1604
(dp1605
g4
I11
sg5
I12
sba(iGenerate
Edge
p1606
(dp1607
g4
I12
sg5
I13
sba(iGenerate
Edge
p1608
(dp1609
g4
I13
sg5
I0
sbaa.