(lp0
(lp1
(iGenerate
Edge
p2
(dp3
S'a'
p4
I0
sS'b'
p5
I3
sba(iGenerate
Edge
p6
(dp7
g4
I3
sg5
cnumpy.core.multiarray
scalar
p8
(cnumpy
dtype
p9
(S'i4'
p10
I0
I1
tp11
Rp12
(I3
S'<'
p13
NNNI-1
I-1
I0
tp14
bS'\x0c\x00\x00\x00'
p15
tp16
Rp17
sba(iGenerate
Edge
p18
(dp19
g4
g17
sg5
I1
sba(iGenerate
Edge
p20
(dp21
g4
I1
sg5
I4
sba(iGenerate
Edge
p22
(dp23
g4
I4
sg5
I2
sba(iGenerate
Edge
p24
(dp25
g4
I2
sg5
I7
sba(iGenerate
Edge
p26
(dp27
g4
I7
sg5
I5
sba(iGenerate
Edge
p28
(dp29
g4
I5
sg5
I6
sba(iGenerate
Edge
p30
(dp31
g4
I6
sg5
I8
sba(iGenerate
Edge
p32
(dp33
g4
I8
sg5
I9
sba(iGenerate
Edge
p34
(dp35
g4
I9
sg5
I10
sba(iGenerate
Edge
p36
(dp37
g4
I10
sg5
I11
sba(iGenerate
Edge
p38
(dp39
g4
I11
sg5
I13
sba(iGenerate
Edge
p40
(dp41
g4
I13
sg5
I14
sba(iGenerate
Edge
p42
(dp43
g4
I14
sg5
I0
sbaa(lp44
(iGenerate
Edge
p45
(dp46
g4
I0
sg5
I3
sba(iGenerate
Edge
p47
(dp48
g4
I3
sg5
g8
(g12
S'\x0c\x00\x00\x00'
p49
tp50
Rp51
sba(iGenerate
Edge
p52
(dp53
g4
g51
sg5
I1
sba(iGenerate
Edge
p54
(dp55
g4
I1
sg5
I4
sba(iGenerate
Edge
p56
(dp57
g4
I4
sg5
I2
sba(iGenerate
Edge
p58
(dp59
g4
I2
sg5
I7
sba(iGenerate
Edge
p60
(dp61
g4
I7
sg5
I5
sba(iGenerate
Edge
p62
(dp63
g4
I5
sg5
I6
sba(iGenerate
Edge
p64
(dp65
g4
I6
sg5
I8
sba(iGenerate
Edge
p66
(dp67
g4
I8
sg5
I9
sba(iGenerate
Edge
p68
(dp69
g4
I9
sg5
I10
sba(iGenerate
Edge
p70
(dp71
g4
I10
sg5
I11
sba(iGenerate
Edge
p72
(dp73
g4
I11
sg5
I13
sba(iGenerate
Edge
p74
(dp75
g4
I13
sg5
I14
sba(iGenerate
Edge
p76
(dp77
g4
I14
sg5
I0
sbaa(lp78
(iGenerate
Edge
p79
(dp80
g4
I0
sg5
I3
sba(iGenerate
Edge
p81
(dp82
g4
I3
sg5
g8
(g12
S'\x0c\x00\x00\x00'
p83
tp84
Rp85
sba(iGenerate
Edge
p86
(dp87
g4
g85
sg5
I1
sba(iGenerate
Edge
p88
(dp89
g4
I1
sg5
I4
sba(iGenerate
Edge
p90
(dp91
g4
I4
sg5
I2
sba(iGenerate
Edge
p92
(dp93
g4
I2
sg5
I7
sba(iGenerate
Edge
p94
(dp95
g4
I7
sg5
I5
sba(iGenerate
Edge
p96
(dp97
g4
I5
sg5
I6
sba(iGenerate
Edge
p98
(dp99
g4
I6
sg5
I8
sba(iGenerate
Edge
p100
(dp101
g4
I8
sg5
I9
sba(iGenerate
Edge
p102
(dp103
g4
I9
sg5
I10
sba(iGenerate
Edge
p104
(dp105
g4
I10
sg5
I11
sba(iGenerate
Edge
p106
(dp107
g4
I11
sg5
I13
sba(iGenerate
Edge
p108
(dp109
g4
I13
sg5
I14
sba(iGenerate
Edge
p110
(dp111
g4
I14
sg5
I0
sbaa(lp112
(iGenerate
Edge
p113
(dp114
g4
I0
sg5
I3
sba(iGenerate
Edge
p115
(dp116
g4
I3
sg5
g8
(g12
S'\x0c\x00\x00\x00'
p117
tp118
Rp119
sba(iGenerate
Edge
p120
(dp121
g4
g119
sg5
I1
sba(iGenerate
Edge
p122
(dp123
g4
I1
sg5
I4
sba(iGenerate
Edge
p124
(dp125
g4
I4
sg5
I2
sba(iGenerate
Edge
p126
(dp127
g4
I2
sg5
I7
sba(iGenerate
Edge
p128
(dp129
g4
I7
sg5
I5
sba(iGenerate
Edge
p130
(dp131
g4
I5
sg5
I6
sba(iGenerate
Edge
p132
(dp133
g4
I6
sg5
I8
sba(iGenerate
Edge
p134
(dp135
g4
I8
sg5
I9
sba(iGenerate
Edge
p136
(dp137
g4
I9
sg5
I10
sba(iGenerate
Edge
p138
(dp139
g4
I10
sg5
I11
sba(iGenerate
Edge
p140
(dp141
g4
I11
sg5
I13
sba(iGenerate
Edge
p142
(dp143
g4
I13
sg5
I14
sba(iGenerate
Edge
p144
(dp145
g4
I14
sg5
I0
sbaa(lp146
(iGenerate
Edge
p147
(dp148
g4
I0
sg5
I3
sba(iGenerate
Edge
p149
(dp150
g4
I3
sg5
g8
(g12
S'\x0c\x00\x00\x00'
p151
tp152
Rp153
sba(iGenerate
Edge
p154
(dp155
g4
g153
sg5
I1
sba(iGenerate
Edge
p156
(dp157
g4
I1
sg5
I4
sba(iGenerate
Edge
p158
(dp159
g4
I4
sg5
I2
sba(iGenerate
Edge
p160
(dp161
g4
I2
sg5
I7
sba(iGenerate
Edge
p162
(dp163
g4
I7
sg5
I5
sba(iGenerate
Edge
p164
(dp165
g4
I5
sg5
I6
sba(iGenerate
Edge
p166
(dp167
g4
I6
sg5
I8
sba(iGenerate
Edge
p168
(dp169
g4
I8
sg5
I9
sba(iGenerate
Edge
p170
(dp171
g4
I9
sg5
I10
sba(iGenerate
Edge
p172
(dp173
g4
I10
sg5
I11
sba(iGenerate
Edge
p174
(dp175
g4
I11
sg5
I13
sba(iGenerate
Edge
p176
(dp177
g4
I13
sg5
I14
sba(iGenerate
Edge
p178
(dp179
g4
I14
sg5
I0
sbaa(lp180
(iGenerate
Edge
p181
(dp182
g4
I0
sg5
I3
sba(iGenerate
Edge
p183
(dp184
g4
I3
sg5
g8
(g12
S'\x0c\x00\x00\x00'
p185
tp186
Rp187
sba(iGenerate
Edge
p188
(dp189
g4
g187
sg5
I1
sba(iGenerate
Edge
p190
(dp191
g4
I1
sg5
I4
sba(iGenerate
Edge
p192
(dp193
g4
I4
sg5
I2
sba(iGenerate
Edge
p194
(dp195
g4
I2
sg5
I7
sba(iGenerate
Edge
p196
(dp197
g4
I7
sg5
I5
sba(iGenerate
Edge
p198
(dp199
g4
I5
sg5
I6
sba(iGenerate
Edge
p200
(dp201
g4
I6
sg5
I8
sba(iGenerate
Edge
p202
(dp203
g4
I8
sg5
I9
sba(iGenerate
Edge
p204
(dp205
g4
I9
sg5
I10
sba(iGenerate
Edge
p206
(dp207
g4
I10
sg5
I11
sba(iGenerate
Edge
p208
(dp209
g4
I11
sg5
I13
sba(iGenerate
Edge
p210
(dp211
g4
I13
sg5
I14
sba(iGenerate
Edge
p212
(dp213
g4
I14
sg5
I0
sbaa(lp214
(iGenerate
Edge
p215
(dp216
g4
I0
sg5
I3
sba(iGenerate
Edge
p217
(dp218
g4
I3
sg5
g8
(g12
S'\x0c\x00\x00\x00'
p219
tp220
Rp221
sba(iGenerate
Edge
p222
(dp223
g4
g221
sg5
I1
sba(iGenerate
Edge
p224
(dp225
g4
I1
sg5
I4
sba(iGenerate
Edge
p226
(dp227
g4
I4
sg5
I2
sba(iGenerate
Edge
p228
(dp229
g4
I2
sg5
I7
sba(iGenerate
Edge
p230
(dp231
g4
I7
sg5
I5
sba(iGenerate
Edge
p232
(dp233
g4
I5
sg5
I6
sba(iGenerate
Edge
p234
(dp235
g4
I6
sg5
I8
sba(iGenerate
Edge
p236
(dp237
g4
I8
sg5
I9
sba(iGenerate
Edge
p238
(dp239
g4
I9
sg5
I10
sba(iGenerate
Edge
p240
(dp241
g4
I10
sg5
I11
sba(iGenerate
Edge
p242
(dp243
g4
I11
sg5
I13
sba(iGenerate
Edge
p244
(dp245
g4
I13
sg5
I14
sba(iGenerate
Edge
p246
(dp247
g4
I14
sg5
I0
sbaa(lp248
(iGenerate
Edge
p249
(dp250
g4
I0
sg5
I3
sba(iGenerate
Edge
p251
(dp252
g4
I3
sg5
g8
(g12
S'\x0c\x00\x00\x00'
p253
tp254
Rp255
sba(iGenerate
Edge
p256
(dp257
g4
g255
sg5
I1
sba(iGenerate
Edge
p258
(dp259
g4
I1
sg5
I4
sba(iGenerate
Edge
p260
(dp261
g4
I4
sg5
I2
sba(iGenerate
Edge
p262
(dp263
g4
I2
sg5
I7
sba(iGenerate
Edge
p264
(dp265
g4
I7
sg5
I5
sba(iGenerate
Edge
p266
(dp267
g4
I5
sg5
I6
sba(iGenerate
Edge
p268
(dp269
g4
I6
sg5
I8
sba(iGenerate
Edge
p270
(dp271
g4
I8
sg5
I9
sba(iGenerate
Edge
p272
(dp273
g4
I9
sg5
I10
sba(iGenerate
Edge
p274
(dp275
g4
I10
sg5
I11
sba(iGenerate
Edge
p276
(dp277
g4
I11
sg5
I13
sba(iGenerate
Edge
p278
(dp279
g4
I13
sg5
I14
sba(iGenerate
Edge
p280
(dp281
g4
I14
sg5
I0
sbaa(lp282
(iGenerate
Edge
p283
(dp284
g4
I0
sg5
I3
sba(iGenerate
Edge
p285
(dp286
g4
I3
sg5
g8
(g12
S'\x0c\x00\x00\x00'
p287
tp288
Rp289
sba(iGenerate
Edge
p290
(dp291
g4
g289
sg5
I1
sba(iGenerate
Edge
p292
(dp293
g4
I1
sg5
I4
sba(iGenerate
Edge
p294
(dp295
g4
I4
sg5
I2
sba(iGenerate
Edge
p296
(dp297
g4
I2
sg5
I7
sba(iGenerate
Edge
p298
(dp299
g4
I7
sg5
I5
sba(iGenerate
Edge
p300
(dp301
g4
I5
sg5
I6
sba(iGenerate
Edge
p302
(dp303
g4
I6
sg5
I8
sba(iGenerate
Edge
p304
(dp305
g4
I8
sg5
I9
sba(iGenerate
Edge
p306
(dp307
g4
I9
sg5
I10
sba(iGenerate
Edge
p308
(dp309
g4
I10
sg5
I11
sba(iGenerate
Edge
p310
(dp311
g4
I11
sg5
I13
sba(iGenerate
Edge
p312
(dp313
g4
I13
sg5
I14
sba(iGenerate
Edge
p314
(dp315
g4
I14
sg5
I0
sbaa(lp316
(iGenerate
Edge
p317
(dp318
g4
I0
sg5
I3
sba(iGenerate
Edge
p319
(dp320
g4
I3
sg5
g8
(g12
S'\x0c\x00\x00\x00'
p321
tp322
Rp323
sba(iGenerate
Edge
p324
(dp325
g4
g323
sg5
I1
sba(iGenerate
Edge
p326
(dp327
g4
I1
sg5
I4
sba(iGenerate
Edge
p328
(dp329
g4
I4
sg5
I2
sba(iGenerate
Edge
p330
(dp331
g4
I2
sg5
I7
sba(iGenerate
Edge
p332
(dp333
g4
I7
sg5
I5
sba(iGenerate
Edge
p334
(dp335
g4
I5
sg5
I6
sba(iGenerate
Edge
p336
(dp337
g4
I6
sg5
I8
sba(iGenerate
Edge
p338
(dp339
g4
I8
sg5
I9
sba(iGenerate
Edge
p340
(dp341
g4
I9
sg5
I10
sba(iGenerate
Edge
p342
(dp343
g4
I10
sg5
I11
sba(iGenerate
Edge
p344
(dp345
g4
I11
sg5
I13
sba(iGenerate
Edge
p346
(dp347
g4
I13
sg5
I14
sba(iGenerate
Edge
p348
(dp349
g4
I14
sg5
I0
sbaa(lp350
(iGenerate
Edge
p351
(dp352
g4
I0
sg5
I3
sba(iGenerate
Edge
p353
(dp354
g4
I3
sg5
g8
(g12
S'\x0c\x00\x00\x00'
p355
tp356
Rp357
sba(iGenerate
Edge
p358
(dp359
g4
g357
sg5
I1
sba(iGenerate
Edge
p360
(dp361
g4
I1
sg5
I4
sba(iGenerate
Edge
p362
(dp363
g4
I4
sg5
I2
sba(iGenerate
Edge
p364
(dp365
g4
I2
sg5
I7
sba(iGenerate
Edge
p366
(dp367
g4
I7
sg5
I5
sba(iGenerate
Edge
p368
(dp369
g4
I5
sg5
I6
sba(iGenerate
Edge
p370
(dp371
g4
I6
sg5
I8
sba(iGenerate
Edge
p372
(dp373
g4
I8
sg5
I9
sba(iGenerate
Edge
p374
(dp375
g4
I9
sg5
I10
sba(iGenerate
Edge
p376
(dp377
g4
I10
sg5
I11
sba(iGenerate
Edge
p378
(dp379
g4
I11
sg5
I13
sba(iGenerate
Edge
p380
(dp381
g4
I13
sg5
I14
sba(iGenerate
Edge
p382
(dp383
g4
I14
sg5
I0
sbaa(lp384
(iGenerate
Edge
p385
(dp386
g4
I0
sg5
I3
sba(iGenerate
Edge
p387
(dp388
g4
I3
sg5
g8
(g12
S'\x0c\x00\x00\x00'
p389
tp390
Rp391
sba(iGenerate
Edge
p392
(dp393
g4
g391
sg5
I1
sba(iGenerate
Edge
p394
(dp395
g4
I1
sg5
I4
sba(iGenerate
Edge
p396
(dp397
g4
I4
sg5
I2
sba(iGenerate
Edge
p398
(dp399
g4
I2
sg5
I7
sba(iGenerate
Edge
p400
(dp401
g4
I7
sg5
I5
sba(iGenerate
Edge
p402
(dp403
g4
I5
sg5
I6
sba(iGenerate
Edge
p404
(dp405
g4
I6
sg5
I8
sba(iGenerate
Edge
p406
(dp407
g4
I8
sg5
I9
sba(iGenerate
Edge
p408
(dp409
g4
I9
sg5
I10
sba(iGenerate
Edge
p410
(dp411
g4
I10
sg5
I11
sba(iGenerate
Edge
p412
(dp413
g4
I11
sg5
I13
sba(iGenerate
Edge
p414
(dp415
g4
I13
sg5
I14
sba(iGenerate
Edge
p416
(dp417
g4
I14
sg5
I0
sbaa(lp418
(iGenerate
Edge
p419
(dp420
g4
I0
sg5
I3
sba(iGenerate
Edge
p421
(dp422
g4
I3
sg5
g8
(g12
S'\x0c\x00\x00\x00'
p423
tp424
Rp425
sba(iGenerate
Edge
p426
(dp427
g4
g425
sg5
I1
sba(iGenerate
Edge
p428
(dp429
g4
I1
sg5
I4
sba(iGenerate
Edge
p430
(dp431
g4
I4
sg5
I2
sba(iGenerate
Edge
p432
(dp433
g4
I2
sg5
I7
sba(iGenerate
Edge
p434
(dp435
g4
I7
sg5
I5
sba(iGenerate
Edge
p436
(dp437
g4
I5
sg5
I6
sba(iGenerate
Edge
p438
(dp439
g4
I6
sg5
I8
sba(iGenerate
Edge
p440
(dp441
g4
I8
sg5
I9
sba(iGenerate
Edge
p442
(dp443
g4
I9
sg5
I10
sba(iGenerate
Edge
p444
(dp445
g4
I10
sg5
I11
sba(iGenerate
Edge
p446
(dp447
g4
I11
sg5
I13
sba(iGenerate
Edge
p448
(dp449
g4
I13
sg5
I14
sba(iGenerate
Edge
p450
(dp451
g4
I14
sg5
I0
sbaa(lp452
(iGenerate
Edge
p453
(dp454
g4
I0
sg5
I3
sba(iGenerate
Edge
p455
(dp456
g4
I3
sg5
g8
(g12
S'\x0c\x00\x00\x00'
p457
tp458
Rp459
sba(iGenerate
Edge
p460
(dp461
g4
g459
sg5
I1
sba(iGenerate
Edge
p462
(dp463
g4
I1
sg5
I4
sba(iGenerate
Edge
p464
(dp465
g4
I4
sg5
I2
sba(iGenerate
Edge
p466
(dp467
g4
I2
sg5
I7
sba(iGenerate
Edge
p468
(dp469
g4
I7
sg5
I5
sba(iGenerate
Edge
p470
(dp471
g4
I5
sg5
I6
sba(iGenerate
Edge
p472
(dp473
g4
I6
sg5
I8
sba(iGenerate
Edge
p474
(dp475
g4
I8
sg5
I9
sba(iGenerate
Edge
p476
(dp477
g4
I9
sg5
I10
sba(iGenerate
Edge
p478
(dp479
g4
I10
sg5
I11
sba(iGenerate
Edge
p480
(dp481
g4
I11
sg5
I13
sba(iGenerate
Edge
p482
(dp483
g4
I13
sg5
I14
sba(iGenerate
Edge
p484
(dp485
g4
I14
sg5
I0
sbaa(lp486
(iGenerate
Edge
p487
(dp488
g4
I0
sg5
I3
sba(iGenerate
Edge
p489
(dp490
g4
I3
sg5
g8
(g12
S'\x0c\x00\x00\x00'
p491
tp492
Rp493
sba(iGenerate
Edge
p494
(dp495
g4
g493
sg5
I1
sba(iGenerate
Edge
p496
(dp497
g4
I1
sg5
I4
sba(iGenerate
Edge
p498
(dp499
g4
I4
sg5
I2
sba(iGenerate
Edge
p500
(dp501
g4
I2
sg5
I7
sba(iGenerate
Edge
p502
(dp503
g4
I7
sg5
I5
sba(iGenerate
Edge
p504
(dp505
g4
I5
sg5
I6
sba(iGenerate
Edge
p506
(dp507
g4
I6
sg5
I8
sba(iGenerate
Edge
p508
(dp509
g4
I8
sg5
I9
sba(iGenerate
Edge
p510
(dp511
g4
I9
sg5
I10
sba(iGenerate
Edge
p512
(dp513
g4
I10
sg5
I11
sba(iGenerate
Edge
p514
(dp515
g4
I11
sg5
I13
sba(iGenerate
Edge
p516
(dp517
g4
I13
sg5
I14
sba(iGenerate
Edge
p518
(dp519
g4
I14
sg5
I0
sbaa(lp520
(iGenerate
Edge
p521
(dp522
g4
I0
sg5
I3
sba(iGenerate
Edge
p523
(dp524
g4
I3
sg5
g8
(g12
S'\x0c\x00\x00\x00'
p525
tp526
Rp527
sba(iGenerate
Edge
p528
(dp529
g4
g527
sg5
I1
sba(iGenerate
Edge
p530
(dp531
g4
I1
sg5
I4
sba(iGenerate
Edge
p532
(dp533
g4
I4
sg5
I2
sba(iGenerate
Edge
p534
(dp535
g4
I2
sg5
I7
sba(iGenerate
Edge
p536
(dp537
g4
I7
sg5
I5
sba(iGenerate
Edge
p538
(dp539
g4
I5
sg5
I6
sba(iGenerate
Edge
p540
(dp541
g4
I6
sg5
I8
sba(iGenerate
Edge
p542
(dp543
g4
I8
sg5
I9
sba(iGenerate
Edge
p544
(dp545
g4
I9
sg5
I10
sba(iGenerate
Edge
p546
(dp547
g4
I10
sg5
I11
sba(iGenerate
Edge
p548
(dp549
g4
I11
sg5
I13
sba(iGenerate
Edge
p550
(dp551
g4
I13
sg5
I14
sba(iGenerate
Edge
p552
(dp553
g4
I14
sg5
I0
sbaa(lp554
(iGenerate
Edge
p555
(dp556
g4
I0
sg5
I3
sba(iGenerate
Edge
p557
(dp558
g4
I3
sg5
g8
(g12
S'\x0c\x00\x00\x00'
p559
tp560
Rp561
sba(iGenerate
Edge
p562
(dp563
g4
g561
sg5
I1
sba(iGenerate
Edge
p564
(dp565
g4
I1
sg5
I4
sba(iGenerate
Edge
p566
(dp567
g4
I4
sg5
I2
sba(iGenerate
Edge
p568
(dp569
g4
I2
sg5
I7
sba(iGenerate
Edge
p570
(dp571
g4
I7
sg5
I5
sba(iGenerate
Edge
p572
(dp573
g4
I5
sg5
I6
sba(iGenerate
Edge
p574
(dp575
g4
I6
sg5
I8
sba(iGenerate
Edge
p576
(dp577
g4
I8
sg5
I9
sba(iGenerate
Edge
p578
(dp579
g4
I9
sg5
I10
sba(iGenerate
Edge
p580
(dp581
g4
I10
sg5
I11
sba(iGenerate
Edge
p582
(dp583
g4
I11
sg5
I13
sba(iGenerate
Edge
p584
(dp585
g4
I13
sg5
I14
sba(iGenerate
Edge
p586
(dp587
g4
I14
sg5
I0
sbaa(lp588
(iGenerate
Edge
p589
(dp590
g4
I0
sg5
I3
sba(iGenerate
Edge
p591
(dp592
g4
I3
sg5
g8
(g12
S'\x0c\x00\x00\x00'
p593
tp594
Rp595
sba(iGenerate
Edge
p596
(dp597
g4
g595
sg5
I1
sba(iGenerate
Edge
p598
(dp599
g4
I1
sg5
I4
sba(iGenerate
Edge
p600
(dp601
g4
I4
sg5
I2
sba(iGenerate
Edge
p602
(dp603
g4
I2
sg5
I7
sba(iGenerate
Edge
p604
(dp605
g4
I7
sg5
I5
sba(iGenerate
Edge
p606
(dp607
g4
I5
sg5
I6
sba(iGenerate
Edge
p608
(dp609
g4
I6
sg5
I8
sba(iGenerate
Edge
p610
(dp611
g4
I8
sg5
I9
sba(iGenerate
Edge
p612
(dp613
g4
I9
sg5
I10
sba(iGenerate
Edge
p614
(dp615
g4
I10
sg5
I11
sba(iGenerate
Edge
p616
(dp617
g4
I11
sg5
I13
sba(iGenerate
Edge
p618
(dp619
g4
I13
sg5
I14
sba(iGenerate
Edge
p620
(dp621
g4
I14
sg5
I0
sbaa(lp622
(iGenerate
Edge
p623
(dp624
g4
I0
sg5
I3
sba(iGenerate
Edge
p625
(dp626
g4
I3
sg5
g8
(g12
S'\x0c\x00\x00\x00'
p627
tp628
Rp629
sba(iGenerate
Edge
p630
(dp631
g4
g629
sg5
I1
sba(iGenerate
Edge
p632
(dp633
g4
I1
sg5
I4
sba(iGenerate
Edge
p634
(dp635
g4
I4
sg5
I2
sba(iGenerate
Edge
p636
(dp637
g4
I2
sg5
I7
sba(iGenerate
Edge
p638
(dp639
g4
I7
sg5
I5
sba(iGenerate
Edge
p640
(dp641
g4
I5
sg5
I6
sba(iGenerate
Edge
p642
(dp643
g4
I6
sg5
I8
sba(iGenerate
Edge
p644
(dp645
g4
I8
sg5
I9
sba(iGenerate
Edge
p646
(dp647
g4
I9
sg5
I10
sba(iGenerate
Edge
p648
(dp649
g4
I10
sg5
I11
sba(iGenerate
Edge
p650
(dp651
g4
I11
sg5
I13
sba(iGenerate
Edge
p652
(dp653
g4
I13
sg5
I14
sba(iGenerate
Edge
p654
(dp655
g4
I14
sg5
I0
sbaa(lp656
(iGenerate
Edge
p657
(dp658
g4
I0
sg5
I3
sba(iGenerate
Edge
p659
(dp660
g4
I3
sg5
g8
(g12
S'\x0c\x00\x00\x00'
p661
tp662
Rp663
sba(iGenerate
Edge
p664
(dp665
g4
g663
sg5
I1
sba(iGenerate
Edge
p666
(dp667
g4
I1
sg5
I4
sba(iGenerate
Edge
p668
(dp669
g4
I4
sg5
I2
sba(iGenerate
Edge
p670
(dp671
g4
I2
sg5
I7
sba(iGenerate
Edge
p672
(dp673
g4
I7
sg5
I5
sba(iGenerate
Edge
p674
(dp675
g4
I5
sg5
I6
sba(iGenerate
Edge
p676
(dp677
g4
I6
sg5
I8
sba(iGenerate
Edge
p678
(dp679
g4
I8
sg5
I9
sba(iGenerate
Edge
p680
(dp681
g4
I9
sg5
I10
sba(iGenerate
Edge
p682
(dp683
g4
I10
sg5
I11
sba(iGenerate
Edge
p684
(dp685
g4
I11
sg5
I13
sba(iGenerate
Edge
p686
(dp687
g4
I13
sg5
I14
sba(iGenerate
Edge
p688
(dp689
g4
I14
sg5
I0
sbaa(lp690
(iGenerate
Edge
p691
(dp692
g4
I0
sg5
I3
sba(iGenerate
Edge
p693
(dp694
g4
I3
sg5
g8
(g12
S'\x0c\x00\x00\x00'
p695
tp696
Rp697
sba(iGenerate
Edge
p698
(dp699
g4
g697
sg5
I1
sba(iGenerate
Edge
p700
(dp701
g4
I1
sg5
I4
sba(iGenerate
Edge
p702
(dp703
g4
I4
sg5
I2
sba(iGenerate
Edge
p704
(dp705
g4
I2
sg5
I7
sba(iGenerate
Edge
p706
(dp707
g4
I7
sg5
I5
sba(iGenerate
Edge
p708
(dp709
g4
I5
sg5
I6
sba(iGenerate
Edge
p710
(dp711
g4
I6
sg5
I8
sba(iGenerate
Edge
p712
(dp713
g4
I8
sg5
I9
sba(iGenerate
Edge
p714
(dp715
g4
I9
sg5
I10
sba(iGenerate
Edge
p716
(dp717
g4
I10
sg5
I11
sba(iGenerate
Edge
p718
(dp719
g4
I11
sg5
I13
sba(iGenerate
Edge
p720
(dp721
g4
I13
sg5
I14
sba(iGenerate
Edge
p722
(dp723
g4
I14
sg5
I0
sbaa(lp724
(iGenerate
Edge
p725
(dp726
g4
I0
sg5
I3
sba(iGenerate
Edge
p727
(dp728
g4
I3
sg5
g8
(g12
S'\x0c\x00\x00\x00'
p729
tp730
Rp731
sba(iGenerate
Edge
p732
(dp733
g4
g731
sg5
I1
sba(iGenerate
Edge
p734
(dp735
g4
I1
sg5
I4
sba(iGenerate
Edge
p736
(dp737
g4
I4
sg5
I2
sba(iGenerate
Edge
p738
(dp739
g4
I2
sg5
I7
sba(iGenerate
Edge
p740
(dp741
g4
I7
sg5
I5
sba(iGenerate
Edge
p742
(dp743
g4
I5
sg5
I6
sba(iGenerate
Edge
p744
(dp745
g4
I6
sg5
I8
sba(iGenerate
Edge
p746
(dp747
g4
I8
sg5
I9
sba(iGenerate
Edge
p748
(dp749
g4
I9
sg5
I10
sba(iGenerate
Edge
p750
(dp751
g4
I10
sg5
I11
sba(iGenerate
Edge
p752
(dp753
g4
I11
sg5
I13
sba(iGenerate
Edge
p754
(dp755
g4
I13
sg5
I14
sba(iGenerate
Edge
p756
(dp757
g4
I14
sg5
I0
sbaa(lp758
(iGenerate
Edge
p759
(dp760
g4
I0
sg5
I3
sba(iGenerate
Edge
p761
(dp762
g4
I3
sg5
g8
(g12
S'\x0c\x00\x00\x00'
p763
tp764
Rp765
sba(iGenerate
Edge
p766
(dp767
g4
g765
sg5
I1
sba(iGenerate
Edge
p768
(dp769
g4
I1
sg5
I4
sba(iGenerate
Edge
p770
(dp771
g4
I4
sg5
I2
sba(iGenerate
Edge
p772
(dp773
g4
I2
sg5
I7
sba(iGenerate
Edge
p774
(dp775
g4
I7
sg5
I5
sba(iGenerate
Edge
p776
(dp777
g4
I5
sg5
I6
sba(iGenerate
Edge
p778
(dp779
g4
I6
sg5
I8
sba(iGenerate
Edge
p780
(dp781
g4
I8
sg5
I9
sba(iGenerate
Edge
p782
(dp783
g4
I9
sg5
I10
sba(iGenerate
Edge
p784
(dp785
g4
I10
sg5
I11
sba(iGenerate
Edge
p786
(dp787
g4
I11
sg5
I13
sba(iGenerate
Edge
p788
(dp789
g4
I13
sg5
I14
sba(iGenerate
Edge
p790
(dp791
g4
I14
sg5
I0
sbaa(lp792
(iGenerate
Edge
p793
(dp794
g4
I0
sg5
I3
sba(iGenerate
Edge
p795
(dp796
g4
I3
sg5
g8
(g12
S'\x0c\x00\x00\x00'
p797
tp798
Rp799
sba(iGenerate
Edge
p800
(dp801
g4
g799
sg5
I1
sba(iGenerate
Edge
p802
(dp803
g4
I1
sg5
I4
sba(iGenerate
Edge
p804
(dp805
g4
I4
sg5
I2
sba(iGenerate
Edge
p806
(dp807
g4
I2
sg5
I7
sba(iGenerate
Edge
p808
(dp809
g4
I7
sg5
I5
sba(iGenerate
Edge
p810
(dp811
g4
I5
sg5
I6
sba(iGenerate
Edge
p812
(dp813
g4
I6
sg5
I8
sba(iGenerate
Edge
p814
(dp815
g4
I8
sg5
I9
sba(iGenerate
Edge
p816
(dp817
g4
I9
sg5
I10
sba(iGenerate
Edge
p818
(dp819
g4
I10
sg5
I11
sba(iGenerate
Edge
p820
(dp821
g4
I11
sg5
I13
sba(iGenerate
Edge
p822
(dp823
g4
I13
sg5
I14
sba(iGenerate
Edge
p824
(dp825
g4
I14
sg5
I0
sbaa(lp826
(iGenerate
Edge
p827
(dp828
g4
I0
sg5
I3
sba(iGenerate
Edge
p829
(dp830
g4
I3
sg5
g8
(g12
S'\x0c\x00\x00\x00'
p831
tp832
Rp833
sba(iGenerate
Edge
p834
(dp835
g4
g833
sg5
I1
sba(iGenerate
Edge
p836
(dp837
g4
I1
sg5
I4
sba(iGenerate
Edge
p838
(dp839
g4
I4
sg5
I2
sba(iGenerate
Edge
p840
(dp841
g4
I2
sg5
I7
sba(iGenerate
Edge
p842
(dp843
g4
I7
sg5
I5
sba(iGenerate
Edge
p844
(dp845
g4
I5
sg5
I6
sba(iGenerate
Edge
p846
(dp847
g4
I6
sg5
I8
sba(iGenerate
Edge
p848
(dp849
g4
I8
sg5
I9
sba(iGenerate
Edge
p850
(dp851
g4
I9
sg5
I10
sba(iGenerate
Edge
p852
(dp853
g4
I10
sg5
I11
sba(iGenerate
Edge
p854
(dp855
g4
I11
sg5
I13
sba(iGenerate
Edge
p856
(dp857
g4
I13
sg5
I14
sba(iGenerate
Edge
p858
(dp859
g4
I14
sg5
I0
sbaa(lp860
(iGenerate
Edge
p861
(dp862
g4
I0
sg5
I3
sba(iGenerate
Edge
p863
(dp864
g4
I3
sg5
g8
(g12
S'\x0c\x00\x00\x00'
p865
tp866
Rp867
sba(iGenerate
Edge
p868
(dp869
g4
g867
sg5
I1
sba(iGenerate
Edge
p870
(dp871
g4
I1
sg5
I4
sba(iGenerate
Edge
p872
(dp873
g4
I4
sg5
I2
sba(iGenerate
Edge
p874
(dp875
g4
I2
sg5
I7
sba(iGenerate
Edge
p876
(dp877
g4
I7
sg5
I5
sba(iGenerate
Edge
p878
(dp879
g4
I5
sg5
I6
sba(iGenerate
Edge
p880
(dp881
g4
I6
sg5
I8
sba(iGenerate
Edge
p882
(dp883
g4
I8
sg5
I9
sba(iGenerate
Edge
p884
(dp885
g4
I9
sg5
I10
sba(iGenerate
Edge
p886
(dp887
g4
I10
sg5
I11
sba(iGenerate
Edge
p888
(dp889
g4
I11
sg5
I13
sba(iGenerate
Edge
p890
(dp891
g4
I13
sg5
I14
sba(iGenerate
Edge
p892
(dp893
g4
I14
sg5
I0
sbaa(lp894
(iGenerate
Edge
p895
(dp896
g4
I0
sg5
I3
sba(iGenerate
Edge
p897
(dp898
g4
I3
sg5
g8
(g12
S'\x0c\x00\x00\x00'
p899
tp900
Rp901
sba(iGenerate
Edge
p902
(dp903
g4
g901
sg5
I1
sba(iGenerate
Edge
p904
(dp905
g4
I1
sg5
I4
sba(iGenerate
Edge
p906
(dp907
g4
I4
sg5
I2
sba(iGenerate
Edge
p908
(dp909
g4
I2
sg5
I7
sba(iGenerate
Edge
p910
(dp911
g4
I7
sg5
I5
sba(iGenerate
Edge
p912
(dp913
g4
I5
sg5
I6
sba(iGenerate
Edge
p914
(dp915
g4
I6
sg5
I8
sba(iGenerate
Edge
p916
(dp917
g4
I8
sg5
I9
sba(iGenerate
Edge
p918
(dp919
g4
I9
sg5
I10
sba(iGenerate
Edge
p920
(dp921
g4
I10
sg5
I11
sba(iGenerate
Edge
p922
(dp923
g4
I11
sg5
I13
sba(iGenerate
Edge
p924
(dp925
g4
I13
sg5
I14
sba(iGenerate
Edge
p926
(dp927
g4
I14
sg5
I0
sbaa(lp928
(iGenerate
Edge
p929
(dp930
g4
I0
sg5
I3
sba(iGenerate
Edge
p931
(dp932
g4
I3
sg5
g8
(g12
S'\x0c\x00\x00\x00'
p933
tp934
Rp935
sba(iGenerate
Edge
p936
(dp937
g4
g935
sg5
I1
sba(iGenerate
Edge
p938
(dp939
g4
I1
sg5
I4
sba(iGenerate
Edge
p940
(dp941
g4
I4
sg5
I2
sba(iGenerate
Edge
p942
(dp943
g4
I2
sg5
I7
sba(iGenerate
Edge
p944
(dp945
g4
I7
sg5
I5
sba(iGenerate
Edge
p946
(dp947
g4
I5
sg5
I6
sba(iGenerate
Edge
p948
(dp949
g4
I6
sg5
I8
sba(iGenerate
Edge
p950
(dp951
g4
I8
sg5
I9
sba(iGenerate
Edge
p952
(dp953
g4
I9
sg5
I10
sba(iGenerate
Edge
p954
(dp955
g4
I10
sg5
I11
sba(iGenerate
Edge
p956
(dp957
g4
I11
sg5
I13
sba(iGenerate
Edge
p958
(dp959
g4
I13
sg5
I14
sba(iGenerate
Edge
p960
(dp961
g4
I14
sg5
I0
sbaa(lp962
(iGenerate
Edge
p963
(dp964
g4
I0
sg5
I3
sba(iGenerate
Edge
p965
(dp966
g4
I3
sg5
g8
(g12
S'\x0c\x00\x00\x00'
p967
tp968
Rp969
sba(iGenerate
Edge
p970
(dp971
g4
g969
sg5
I1
sba(iGenerate
Edge
p972
(dp973
g4
I1
sg5
I4
sba(iGenerate
Edge
p974
(dp975
g4
I4
sg5
I2
sba(iGenerate
Edge
p976
(dp977
g4
I2
sg5
I7
sba(iGenerate
Edge
p978
(dp979
g4
I7
sg5
I5
sba(iGenerate
Edge
p980
(dp981
g4
I5
sg5
I6
sba(iGenerate
Edge
p982
(dp983
g4
I6
sg5
I8
sba(iGenerate
Edge
p984
(dp985
g4
I8
sg5
I9
sba(iGenerate
Edge
p986
(dp987
g4
I9
sg5
I10
sba(iGenerate
Edge
p988
(dp989
g4
I10
sg5
I11
sba(iGenerate
Edge
p990
(dp991
g4
I11
sg5
I13
sba(iGenerate
Edge
p992
(dp993
g4
I13
sg5
I14
sba(iGenerate
Edge
p994
(dp995
g4
I14
sg5
I0
sbaa(lp996
(iGenerate
Edge
p997
(dp998
g4
I0
sg5
I3
sba(iGenerate
Edge
p999
(dp1000
g4
I3
sg5
g8
(g12
S'\x0c\x00\x00\x00'
p1001
tp1002
Rp1003
sba(iGenerate
Edge
p1004
(dp1005
g4
g1003
sg5
I1
sba(iGenerate
Edge
p1006
(dp1007
g4
I1
sg5
I4
sba(iGenerate
Edge
p1008
(dp1009
g4
I4
sg5
I2
sba(iGenerate
Edge
p1010
(dp1011
g4
I2
sg5
I7
sba(iGenerate
Edge
p1012
(dp1013
g4
I7
sg5
I5
sba(iGenerate
Edge
p1014
(dp1015
g4
I5
sg5
I6
sba(iGenerate
Edge
p1016
(dp1017
g4
I6
sg5
I8
sba(iGenerate
Edge
p1018
(dp1019
g4
I8
sg5
I9
sba(iGenerate
Edge
p1020
(dp1021
g4
I9
sg5
I10
sba(iGenerate
Edge
p1022
(dp1023
g4
I10
sg5
I11
sba(iGenerate
Edge
p1024
(dp1025
g4
I11
sg5
I13
sba(iGenerate
Edge
p1026
(dp1027
g4
I13
sg5
I14
sba(iGenerate
Edge
p1028
(dp1029
g4
I14
sg5
I0
sbaa(lp1030
(iGenerate
Edge
p1031
(dp1032
g4
I0
sg5
I3
sba(iGenerate
Edge
p1033
(dp1034
g4
I3
sg5
g8
(g12
S'\x0c\x00\x00\x00'
p1035
tp1036
Rp1037
sba(iGenerate
Edge
p1038
(dp1039
g4
g1037
sg5
I1
sba(iGenerate
Edge
p1040
(dp1041
g4
I1
sg5
I4
sba(iGenerate
Edge
p1042
(dp1043
g4
I4
sg5
I2
sba(iGenerate
Edge
p1044
(dp1045
g4
I2
sg5
I7
sba(iGenerate
Edge
p1046
(dp1047
g4
I7
sg5
I5
sba(iGenerate
Edge
p1048
(dp1049
g4
I5
sg5
I6
sba(iGenerate
Edge
p1050
(dp1051
g4
I6
sg5
I8
sba(iGenerate
Edge
p1052
(dp1053
g4
I8
sg5
I9
sba(iGenerate
Edge
p1054
(dp1055
g4
I9
sg5
I10
sba(iGenerate
Edge
p1056
(dp1057
g4
I10
sg5
I11
sba(iGenerate
Edge
p1058
(dp1059
g4
I11
sg5
I13
sba(iGenerate
Edge
p1060
(dp1061
g4
I13
sg5
I14
sba(iGenerate
Edge
p1062
(dp1063
g4
I14
sg5
I0
sbaa(lp1064
(iGenerate
Edge
p1065
(dp1066
g4
I0
sg5
I3
sba(iGenerate
Edge
p1067
(dp1068
g4
I3
sg5
g8
(g12
S'\x0c\x00\x00\x00'
p1069
tp1070
Rp1071
sba(iGenerate
Edge
p1072
(dp1073
g4
g1071
sg5
I1
sba(iGenerate
Edge
p1074
(dp1075
g4
I1
sg5
I4
sba(iGenerate
Edge
p1076
(dp1077
g4
I4
sg5
I2
sba(iGenerate
Edge
p1078
(dp1079
g4
I2
sg5
I7
sba(iGenerate
Edge
p1080
(dp1081
g4
I7
sg5
I5
sba(iGenerate
Edge
p1082
(dp1083
g4
I5
sg5
I6
sba(iGenerate
Edge
p1084
(dp1085
g4
I6
sg5
I8
sba(iGenerate
Edge
p1086
(dp1087
g4
I8
sg5
I9
sba(iGenerate
Edge
p1088
(dp1089
g4
I9
sg5
I10
sba(iGenerate
Edge
p1090
(dp1091
g4
I10
sg5
I11
sba(iGenerate
Edge
p1092
(dp1093
g4
I11
sg5
I13
sba(iGenerate
Edge
p1094
(dp1095
g4
I13
sg5
I14
sba(iGenerate
Edge
p1096
(dp1097
g4
I14
sg5
I0
sbaa(lp1098
(iGenerate
Edge
p1099
(dp1100
g4
I0
sg5
I3
sba(iGenerate
Edge
p1101
(dp1102
g4
I3
sg5
g8
(g12
S'\x0c\x00\x00\x00'
p1103
tp1104
Rp1105
sba(iGenerate
Edge
p1106
(dp1107
g4
g1105
sg5
I1
sba(iGenerate
Edge
p1108
(dp1109
g4
I1
sg5
I4
sba(iGenerate
Edge
p1110
(dp1111
g4
I4
sg5
I2
sba(iGenerate
Edge
p1112
(dp1113
g4
I2
sg5
I7
sba(iGenerate
Edge
p1114
(dp1115
g4
I7
sg5
I5
sba(iGenerate
Edge
p1116
(dp1117
g4
I5
sg5
I6
sba(iGenerate
Edge
p1118
(dp1119
g4
I6
sg5
I8
sba(iGenerate
Edge
p1120
(dp1121
g4
I8
sg5
I9
sba(iGenerate
Edge
p1122
(dp1123
g4
I9
sg5
I10
sba(iGenerate
Edge
p1124
(dp1125
g4
I10
sg5
I11
sba(iGenerate
Edge
p1126
(dp1127
g4
I11
sg5
I13
sba(iGenerate
Edge
p1128
(dp1129
g4
I13
sg5
I14
sba(iGenerate
Edge
p1130
(dp1131
g4
I14
sg5
I0
sbaa(lp1132
(iGenerate
Edge
p1133
(dp1134
g4
I0
sg5
I3
sba(iGenerate
Edge
p1135
(dp1136
g4
I3
sg5
g8
(g12
S'\x0c\x00\x00\x00'
p1137
tp1138
Rp1139
sba(iGenerate
Edge
p1140
(dp1141
g4
g1139
sg5
I1
sba(iGenerate
Edge
p1142
(dp1143
g4
I1
sg5
I4
sba(iGenerate
Edge
p1144
(dp1145
g4
I4
sg5
I2
sba(iGenerate
Edge
p1146
(dp1147
g4
I2
sg5
I7
sba(iGenerate
Edge
p1148
(dp1149
g4
I7
sg5
I5
sba(iGenerate
Edge
p1150
(dp1151
g4
I5
sg5
I6
sba(iGenerate
Edge
p1152
(dp1153
g4
I6
sg5
I8
sba(iGenerate
Edge
p1154
(dp1155
g4
I8
sg5
I9
sba(iGenerate
Edge
p1156
(dp1157
g4
I9
sg5
I10
sba(iGenerate
Edge
p1158
(dp1159
g4
I10
sg5
I11
sba(iGenerate
Edge
p1160
(dp1161
g4
I11
sg5
I13
sba(iGenerate
Edge
p1162
(dp1163
g4
I13
sg5
I14
sba(iGenerate
Edge
p1164
(dp1165
g4
I14
sg5
I0
sbaa(lp1166
(iGenerate
Edge
p1167
(dp1168
g4
I0
sg5
I3
sba(iGenerate
Edge
p1169
(dp1170
g4
I3
sg5
g8
(g12
S'\x0c\x00\x00\x00'
p1171
tp1172
Rp1173
sba(iGenerate
Edge
p1174
(dp1175
g4
g1173
sg5
I1
sba(iGenerate
Edge
p1176
(dp1177
g4
I1
sg5
I4
sba(iGenerate
Edge
p1178
(dp1179
g4
I4
sg5
I2
sba(iGenerate
Edge
p1180
(dp1181
g4
I2
sg5
I7
sba(iGenerate
Edge
p1182
(dp1183
g4
I7
sg5
I5
sba(iGenerate
Edge
p1184
(dp1185
g4
I5
sg5
I6
sba(iGenerate
Edge
p1186
(dp1187
g4
I6
sg5
I8
sba(iGenerate
Edge
p1188
(dp1189
g4
I8
sg5
I9
sba(iGenerate
Edge
p1190
(dp1191
g4
I9
sg5
I10
sba(iGenerate
Edge
p1192
(dp1193
g4
I10
sg5
I11
sba(iGenerate
Edge
p1194
(dp1195
g4
I11
sg5
I13
sba(iGenerate
Edge
p1196
(dp1197
g4
I13
sg5
I14
sba(iGenerate
Edge
p1198
(dp1199
g4
I14
sg5
I0
sbaa(lp1200
(iGenerate
Edge
p1201
(dp1202
g4
I0
sg5
I3
sba(iGenerate
Edge
p1203
(dp1204
g4
I3
sg5
g8
(g12
S'\x0c\x00\x00\x00'
p1205
tp1206
Rp1207
sba(iGenerate
Edge
p1208
(dp1209
g4
g1207
sg5
I1
sba(iGenerate
Edge
p1210
(dp1211
g4
I1
sg5
I4
sba(iGenerate
Edge
p1212
(dp1213
g4
I4
sg5
I2
sba(iGenerate
Edge
p1214
(dp1215
g4
I2
sg5
I7
sba(iGenerate
Edge
p1216
(dp1217
g4
I7
sg5
I5
sba(iGenerate
Edge
p1218
(dp1219
g4
I5
sg5
I6
sba(iGenerate
Edge
p1220
(dp1221
g4
I6
sg5
I8
sba(iGenerate
Edge
p1222
(dp1223
g4
I8
sg5
I9
sba(iGenerate
Edge
p1224
(dp1225
g4
I9
sg5
I10
sba(iGenerate
Edge
p1226
(dp1227
g4
I10
sg5
I11
sba(iGenerate
Edge
p1228
(dp1229
g4
I11
sg5
I13
sba(iGenerate
Edge
p1230
(dp1231
g4
I13
sg5
I14
sba(iGenerate
Edge
p1232
(dp1233
g4
I14
sg5
I0
sbaa(lp1234
(iGenerate
Edge
p1235
(dp1236
g4
I0
sg5
I3
sba(iGenerate
Edge
p1237
(dp1238
g4
I3
sg5
g8
(g12
S'\x0c\x00\x00\x00'
p1239
tp1240
Rp1241
sba(iGenerate
Edge
p1242
(dp1243
g4
g1241
sg5
I1
sba(iGenerate
Edge
p1244
(dp1245
g4
I1
sg5
I4
sba(iGenerate
Edge
p1246
(dp1247
g4
I4
sg5
I2
sba(iGenerate
Edge
p1248
(dp1249
g4
I2
sg5
I7
sba(iGenerate
Edge
p1250
(dp1251
g4
I7
sg5
I5
sba(iGenerate
Edge
p1252
(dp1253
g4
I5
sg5
I6
sba(iGenerate
Edge
p1254
(dp1255
g4
I6
sg5
I8
sba(iGenerate
Edge
p1256
(dp1257
g4
I8
sg5
I9
sba(iGenerate
Edge
p1258
(dp1259
g4
I9
sg5
I10
sba(iGenerate
Edge
p1260
(dp1261
g4
I10
sg5
I11
sba(iGenerate
Edge
p1262
(dp1263
g4
I11
sg5
I13
sba(iGenerate
Edge
p1264
(dp1265
g4
I13
sg5
I14
sba(iGenerate
Edge
p1266
(dp1267
g4
I14
sg5
I0
sbaa(lp1268
(iGenerate
Edge
p1269
(dp1270
g4
I0
sg5
I3
sba(iGenerate
Edge
p1271
(dp1272
g4
I3
sg5
g8
(g12
S'\x0c\x00\x00\x00'
p1273
tp1274
Rp1275
sba(iGenerate
Edge
p1276
(dp1277
g4
g1275
sg5
I1
sba(iGenerate
Edge
p1278
(dp1279
g4
I1
sg5
I4
sba(iGenerate
Edge
p1280
(dp1281
g4
I4
sg5
I2
sba(iGenerate
Edge
p1282
(dp1283
g4
I2
sg5
I7
sba(iGenerate
Edge
p1284
(dp1285
g4
I7
sg5
I5
sba(iGenerate
Edge
p1286
(dp1287
g4
I5
sg5
I6
sba(iGenerate
Edge
p1288
(dp1289
g4
I6
sg5
I8
sba(iGenerate
Edge
p1290
(dp1291
g4
I8
sg5
I9
sba(iGenerate
Edge
p1292
(dp1293
g4
I9
sg5
I10
sba(iGenerate
Edge
p1294
(dp1295
g4
I10
sg5
I11
sba(iGenerate
Edge
p1296
(dp1297
g4
I11
sg5
I13
sba(iGenerate
Edge
p1298
(dp1299
g4
I13
sg5
I14
sba(iGenerate
Edge
p1300
(dp1301
g4
I14
sg5
I0
sbaa(lp1302
(iGenerate
Edge
p1303
(dp1304
g4
I0
sg5
I3
sba(iGenerate
Edge
p1305
(dp1306
g4
I3
sg5
g8
(g12
S'\x0c\x00\x00\x00'
p1307
tp1308
Rp1309
sba(iGenerate
Edge
p1310
(dp1311
g4
g1309
sg5
I1
sba(iGenerate
Edge
p1312
(dp1313
g4
I1
sg5
I4
sba(iGenerate
Edge
p1314
(dp1315
g4
I4
sg5
I2
sba(iGenerate
Edge
p1316
(dp1317
g4
I2
sg5
I7
sba(iGenerate
Edge
p1318
(dp1319
g4
I7
sg5
I5
sba(iGenerate
Edge
p1320
(dp1321
g4
I5
sg5
I6
sba(iGenerate
Edge
p1322
(dp1323
g4
I6
sg5
I8
sba(iGenerate
Edge
p1324
(dp1325
g4
I8
sg5
I9
sba(iGenerate
Edge
p1326
(dp1327
g4
I9
sg5
I10
sba(iGenerate
Edge
p1328
(dp1329
g4
I10
sg5
I11
sba(iGenerate
Edge
p1330
(dp1331
g4
I11
sg5
I13
sba(iGenerate
Edge
p1332
(dp1333
g4
I13
sg5
I14
sba(iGenerate
Edge
p1334
(dp1335
g4
I14
sg5
I0
sbaa(lp1336
(iGenerate
Edge
p1337
(dp1338
g4
I0
sg5
I3
sba(iGenerate
Edge
p1339
(dp1340
g4
I3
sg5
g8
(g12
S'\x0c\x00\x00\x00'
p1341
tp1342
Rp1343
sba(iGenerate
Edge
p1344
(dp1345
g4
g1343
sg5
I1
sba(iGenerate
Edge
p1346
(dp1347
g4
I1
sg5
I4
sba(iGenerate
Edge
p1348
(dp1349
g4
I4
sg5
I2
sba(iGenerate
Edge
p1350
(dp1351
g4
I2
sg5
I7
sba(iGenerate
Edge
p1352
(dp1353
g4
I7
sg5
I5
sba(iGenerate
Edge
p1354
(dp1355
g4
I5
sg5
I6
sba(iGenerate
Edge
p1356
(dp1357
g4
I6
sg5
I8
sba(iGenerate
Edge
p1358
(dp1359
g4
I8
sg5
I9
sba(iGenerate
Edge
p1360
(dp1361
g4
I9
sg5
I10
sba(iGenerate
Edge
p1362
(dp1363
g4
I10
sg5
I11
sba(iGenerate
Edge
p1364
(dp1365
g4
I11
sg5
I13
sba(iGenerate
Edge
p1366
(dp1367
g4
I13
sg5
I14
sba(iGenerate
Edge
p1368
(dp1369
g4
I14
sg5
I0
sbaa(lp1370
(iGenerate
Edge
p1371
(dp1372
g4
I0
sg5
I3
sba(iGenerate
Edge
p1373
(dp1374
g4
I3
sg5
g8
(g12
S'\x0c\x00\x00\x00'
p1375
tp1376
Rp1377
sba(iGenerate
Edge
p1378
(dp1379
g4
g1377
sg5
I1
sba(iGenerate
Edge
p1380
(dp1381
g4
I1
sg5
I4
sba(iGenerate
Edge
p1382
(dp1383
g4
I4
sg5
I2
sba(iGenerate
Edge
p1384
(dp1385
g4
I2
sg5
I7
sba(iGenerate
Edge
p1386
(dp1387
g4
I7
sg5
I5
sba(iGenerate
Edge
p1388
(dp1389
g4
I5
sg5
I6
sba(iGenerate
Edge
p1390
(dp1391
g4
I6
sg5
I8
sba(iGenerate
Edge
p1392
(dp1393
g4
I8
sg5
I9
sba(iGenerate
Edge
p1394
(dp1395
g4
I9
sg5
I10
sba(iGenerate
Edge
p1396
(dp1397
g4
I10
sg5
I11
sba(iGenerate
Edge
p1398
(dp1399
g4
I11
sg5
I13
sba(iGenerate
Edge
p1400
(dp1401
g4
I13
sg5
I14
sba(iGenerate
Edge
p1402
(dp1403
g4
I14
sg5
I0
sbaa(lp1404
(iGenerate
Edge
p1405
(dp1406
g4
I0
sg5
I3
sba(iGenerate
Edge
p1407
(dp1408
g4
I3
sg5
g8
(g12
S'\x0c\x00\x00\x00'
p1409
tp1410
Rp1411
sba(iGenerate
Edge
p1412
(dp1413
g4
g1411
sg5
I1
sba(iGenerate
Edge
p1414
(dp1415
g4
I1
sg5
I4
sba(iGenerate
Edge
p1416
(dp1417
g4
I4
sg5
I2
sba(iGenerate
Edge
p1418
(dp1419
g4
I2
sg5
I7
sba(iGenerate
Edge
p1420
(dp1421
g4
I7
sg5
I5
sba(iGenerate
Edge
p1422
(dp1423
g4
I5
sg5
I6
sba(iGenerate
Edge
p1424
(dp1425
g4
I6
sg5
I8
sba(iGenerate
Edge
p1426
(dp1427
g4
I8
sg5
I9
sba(iGenerate
Edge
p1428
(dp1429
g4
I9
sg5
I10
sba(iGenerate
Edge
p1430
(dp1431
g4
I10
sg5
I11
sba(iGenerate
Edge
p1432
(dp1433
g4
I11
sg5
I13
sba(iGenerate
Edge
p1434
(dp1435
g4
I13
sg5
I14
sba(iGenerate
Edge
p1436
(dp1437
g4
I14
sg5
I0
sbaa(lp1438
(iGenerate
Edge
p1439
(dp1440
g4
I0
sg5
I3
sba(iGenerate
Edge
p1441
(dp1442
g4
I3
sg5
g8
(g12
S'\x0c\x00\x00\x00'
p1443
tp1444
Rp1445
sba(iGenerate
Edge
p1446
(dp1447
g4
g1445
sg5
I1
sba(iGenerate
Edge
p1448
(dp1449
g4
I1
sg5
I4
sba(iGenerate
Edge
p1450
(dp1451
g4
I4
sg5
I2
sba(iGenerate
Edge
p1452
(dp1453
g4
I2
sg5
I7
sba(iGenerate
Edge
p1454
(dp1455
g4
I7
sg5
I5
sba(iGenerate
Edge
p1456
(dp1457
g4
I5
sg5
I6
sba(iGenerate
Edge
p1458
(dp1459
g4
I6
sg5
I8
sba(iGenerate
Edge
p1460
(dp1461
g4
I8
sg5
I9
sba(iGenerate
Edge
p1462
(dp1463
g4
I9
sg5
I10
sba(iGenerate
Edge
p1464
(dp1465
g4
I10
sg5
I11
sba(iGenerate
Edge
p1466
(dp1467
g4
I11
sg5
I13
sba(iGenerate
Edge
p1468
(dp1469
g4
I13
sg5
I14
sba(iGenerate
Edge
p1470
(dp1471
g4
I14
sg5
I0
sbaa(lp1472
(iGenerate
Edge
p1473
(dp1474
g4
I0
sg5
I3
sba(iGenerate
Edge
p1475
(dp1476
g4
I3
sg5
g8
(g12
S'\x0c\x00\x00\x00'
p1477
tp1478
Rp1479
sba(iGenerate
Edge
p1480
(dp1481
g4
g1479
sg5
I1
sba(iGenerate
Edge
p1482
(dp1483
g4
I1
sg5
I4
sba(iGenerate
Edge
p1484
(dp1485
g4
I4
sg5
I2
sba(iGenerate
Edge
p1486
(dp1487
g4
I2
sg5
I7
sba(iGenerate
Edge
p1488
(dp1489
g4
I7
sg5
I5
sba(iGenerate
Edge
p1490
(dp1491
g4
I5
sg5
I6
sba(iGenerate
Edge
p1492
(dp1493
g4
I6
sg5
I8
sba(iGenerate
Edge
p1494
(dp1495
g4
I8
sg5
I9
sba(iGenerate
Edge
p1496
(dp1497
g4
I9
sg5
I10
sba(iGenerate
Edge
p1498
(dp1499
g4
I10
sg5
I11
sba(iGenerate
Edge
p1500
(dp1501
g4
I11
sg5
I13
sba(iGenerate
Edge
p1502
(dp1503
g4
I13
sg5
I14
sba(iGenerate
Edge
p1504
(dp1505
g4
I14
sg5
I0
sbaa(lp1506
(iGenerate
Edge
p1507
(dp1508
g4
I0
sg5
I3
sba(iGenerate
Edge
p1509
(dp1510
g4
I3
sg5
g8
(g12
S'\x0c\x00\x00\x00'
p1511
tp1512
Rp1513
sba(iGenerate
Edge
p1514
(dp1515
g4
g1513
sg5
I1
sba(iGenerate
Edge
p1516
(dp1517
g4
I1
sg5
I4
sba(iGenerate
Edge
p1518
(dp1519
g4
I4
sg5
I2
sba(iGenerate
Edge
p1520
(dp1521
g4
I2
sg5
I7
sba(iGenerate
Edge
p1522
(dp1523
g4
I7
sg5
I5
sba(iGenerate
Edge
p1524
(dp1525
g4
I5
sg5
I6
sba(iGenerate
Edge
p1526
(dp1527
g4
I6
sg5
I8
sba(iGenerate
Edge
p1528
(dp1529
g4
I8
sg5
I9
sba(iGenerate
Edge
p1530
(dp1531
g4
I9
sg5
I10
sba(iGenerate
Edge
p1532
(dp1533
g4
I10
sg5
I11
sba(iGenerate
Edge
p1534
(dp1535
g4
I11
sg5
I13
sba(iGenerate
Edge
p1536
(dp1537
g4
I13
sg5
I14
sba(iGenerate
Edge
p1538
(dp1539
g4
I14
sg5
I0
sbaa(lp1540
(iGenerate
Edge
p1541
(dp1542
g4
I0
sg5
I3
sba(iGenerate
Edge
p1543
(dp1544
g4
I3
sg5
g8
(g12
S'\x0c\x00\x00\x00'
p1545
tp1546
Rp1547
sba(iGenerate
Edge
p1548
(dp1549
g4
g1547
sg5
I1
sba(iGenerate
Edge
p1550
(dp1551
g4
I1
sg5
I4
sba(iGenerate
Edge
p1552
(dp1553
g4
I4
sg5
I2
sba(iGenerate
Edge
p1554
(dp1555
g4
I2
sg5
I7
sba(iGenerate
Edge
p1556
(dp1557
g4
I7
sg5
I5
sba(iGenerate
Edge
p1558
(dp1559
g4
I5
sg5
I6
sba(iGenerate
Edge
p1560
(dp1561
g4
I6
sg5
I8
sba(iGenerate
Edge
p1562
(dp1563
g4
I8
sg5
I9
sba(iGenerate
Edge
p1564
(dp1565
g4
I9
sg5
I10
sba(iGenerate
Edge
p1566
(dp1567
g4
I10
sg5
I11
sba(iGenerate
Edge
p1568
(dp1569
g4
I11
sg5
I13
sba(iGenerate
Edge
p1570
(dp1571
g4
I13
sg5
I14
sba(iGenerate
Edge
p1572
(dp1573
g4
I14
sg5
I0
sbaa(lp1574
(iGenerate
Edge
p1575
(dp1576
g4
I0
sg5
I3
sba(iGenerate
Edge
p1577
(dp1578
g4
I3
sg5
g8
(g12
S'\x0c\x00\x00\x00'
p1579
tp1580
Rp1581
sba(iGenerate
Edge
p1582
(dp1583
g4
g1581
sg5
I1
sba(iGenerate
Edge
p1584
(dp1585
g4
I1
sg5
I4
sba(iGenerate
Edge
p1586
(dp1587
g4
I4
sg5
I2
sba(iGenerate
Edge
p1588
(dp1589
g4
I2
sg5
I7
sba(iGenerate
Edge
p1590
(dp1591
g4
I7
sg5
I5
sba(iGenerate
Edge
p1592
(dp1593
g4
I5
sg5
I6
sba(iGenerate
Edge
p1594
(dp1595
g4
I6
sg5
I8
sba(iGenerate
Edge
p1596
(dp1597
g4
I8
sg5
I9
sba(iGenerate
Edge
p1598
(dp1599
g4
I9
sg5
I10
sba(iGenerate
Edge
p1600
(dp1601
g4
I10
sg5
I11
sba(iGenerate
Edge
p1602
(dp1603
g4
I11
sg5
I13
sba(iGenerate
Edge
p1604
(dp1605
g4
I13
sg5
I14
sba(iGenerate
Edge
p1606
(dp1607
g4
I14
sg5
I0
sbaa(lp1608
(iGenerate
Edge
p1609
(dp1610
g4
I0
sg5
I3
sba(iGenerate
Edge
p1611
(dp1612
g4
I3
sg5
g8
(g12
S'\x0c\x00\x00\x00'
p1613
tp1614
Rp1615
sba(iGenerate
Edge
p1616
(dp1617
g4
g1615
sg5
I1
sba(iGenerate
Edge
p1618
(dp1619
g4
I1
sg5
I4
sba(iGenerate
Edge
p1620
(dp1621
g4
I4
sg5
I2
sba(iGenerate
Edge
p1622
(dp1623
g4
I2
sg5
I7
sba(iGenerate
Edge
p1624
(dp1625
g4
I7
sg5
I5
sba(iGenerate
Edge
p1626
(dp1627
g4
I5
sg5
I6
sba(iGenerate
Edge
p1628
(dp1629
g4
I6
sg5
I8
sba(iGenerate
Edge
p1630
(dp1631
g4
I8
sg5
I9
sba(iGenerate
Edge
p1632
(dp1633
g4
I9
sg5
I10
sba(iGenerate
Edge
p1634
(dp1635
g4
I10
sg5
I11
sba(iGenerate
Edge
p1636
(dp1637
g4
I11
sg5
I13
sba(iGenerate
Edge
p1638
(dp1639
g4
I13
sg5
I14
sba(iGenerate
Edge
p1640
(dp1641
g4
I14
sg5
I0
sbaa(lp1642
(iGenerate
Edge
p1643
(dp1644
g4
I0
sg5
I3
sba(iGenerate
Edge
p1645
(dp1646
g4
I3
sg5
g8
(g12
S'\x0c\x00\x00\x00'
p1647
tp1648
Rp1649
sba(iGenerate
Edge
p1650
(dp1651
g4
g1649
sg5
I1
sba(iGenerate
Edge
p1652
(dp1653
g4
I1
sg5
I4
sba(iGenerate
Edge
p1654
(dp1655
g4
I4
sg5
I2
sba(iGenerate
Edge
p1656
(dp1657
g4
I2
sg5
I7
sba(iGenerate
Edge
p1658
(dp1659
g4
I7
sg5
I5
sba(iGenerate
Edge
p1660
(dp1661
g4
I5
sg5
I6
sba(iGenerate
Edge
p1662
(dp1663
g4
I6
sg5
I8
sba(iGenerate
Edge
p1664
(dp1665
g4
I8
sg5
I9
sba(iGenerate
Edge
p1666
(dp1667
g4
I9
sg5
I10
sba(iGenerate
Edge
p1668
(dp1669
g4
I10
sg5
I11
sba(iGenerate
Edge
p1670
(dp1671
g4
I11
sg5
I13
sba(iGenerate
Edge
p1672
(dp1673
g4
I13
sg5
I14
sba(iGenerate
Edge
p1674
(dp1675
g4
I14
sg5
I0
sbaa(lp1676
(iGenerate
Edge
p1677
(dp1678
g4
I0
sg5
I3
sba(iGenerate
Edge
p1679
(dp1680
g4
I3
sg5
g8
(g12
S'\x0c\x00\x00\x00'
p1681
tp1682
Rp1683
sba(iGenerate
Edge
p1684
(dp1685
g4
g1683
sg5
I1
sba(iGenerate
Edge
p1686
(dp1687
g4
I1
sg5
I4
sba(iGenerate
Edge
p1688
(dp1689
g4
I4
sg5
I2
sba(iGenerate
Edge
p1690
(dp1691
g4
I2
sg5
I7
sba(iGenerate
Edge
p1692
(dp1693
g4
I7
sg5
I5
sba(iGenerate
Edge
p1694
(dp1695
g4
I5
sg5
I6
sba(iGenerate
Edge
p1696
(dp1697
g4
I6
sg5
I8
sba(iGenerate
Edge
p1698
(dp1699
g4
I8
sg5
I9
sba(iGenerate
Edge
p1700
(dp1701
g4
I9
sg5
I10
sba(iGenerate
Edge
p1702
(dp1703
g4
I10
sg5
I11
sba(iGenerate
Edge
p1704
(dp1705
g4
I11
sg5
I13
sba(iGenerate
Edge
p1706
(dp1707
g4
I13
sg5
I14
sba(iGenerate
Edge
p1708
(dp1709
g4
I14
sg5
I0
sbaa.