(lp0
(lp1
(iGenerate
Edge
p2
(dp3
S'a'
p4
I0
sS'b'
p5
I2
sba(iGenerate
Edge
p6
(dp7
g4
I2
sg5
cnumpy.core.multiarray
scalar
p8
(cnumpy
dtype
p9
(S'i4'
p10
I0
I1
tp11
Rp12
(I3
S'<'
p13
NNNI-1
I-1
I0
tp14
bS'\x06\x00\x00\x00'
p15
tp16
Rp17
sba(iGenerate
Edge
p18
(dp19
g4
g17
sg5
I1
sba(iGenerate
Edge
p20
(dp21
g4
I1
sg5
I9
sba(iGenerate
Edge
p22
(dp23
g4
I9
sg5
I3
sba(iGenerate
Edge
p24
(dp25
g4
I3
sg5
I7
sba(iGenerate
Edge
p26
(dp27
g4
I7
sg5
I4
sba(iGenerate
Edge
p28
(dp29
g4
I4
sg5
I8
sba(iGenerate
Edge
p30
(dp31
g4
I8
sg5
I5
sba(iGenerate
Edge
p32
(dp33
g4
I5
sg5
I10
sba(iGenerate
Edge
p34
(dp35
g4
I10
sg5
I0
sbaa(lp36
(iGenerate
Edge
p37
(dp38
g4
I0
sg5
I2
sba(iGenerate
Edge
p39
(dp40
g4
I2
sg5
g8
(g12
S'\x06\x00\x00\x00'
p41
tp42
Rp43
sba(iGenerate
Edge
p44
(dp45
g4
g43
sg5
I1
sba(iGenerate
Edge
p46
(dp47
g4
I1
sg5
I9
sba(iGenerate
Edge
p48
(dp49
g4
I9
sg5
I3
sba(iGenerate
Edge
p50
(dp51
g4
I3
sg5
I7
sba(iGenerate
Edge
p52
(dp53
g4
I7
sg5
I4
sba(iGenerate
Edge
p54
(dp55
g4
I4
sg5
I8
sba(iGenerate
Edge
p56
(dp57
g4
I8
sg5
I5
sba(iGenerate
Edge
p58
(dp59
g4
I5
sg5
I10
sba(iGenerate
Edge
p60
(dp61
g4
I10
sg5
I0
sbaa(lp62
(iGenerate
Edge
p63
(dp64
g4
I0
sg5
I2
sba(iGenerate
Edge
p65
(dp66
g4
I2
sg5
g8
(g12
S'\x06\x00\x00\x00'
p67
tp68
Rp69
sba(iGenerate
Edge
p70
(dp71
g4
g69
sg5
I1
sba(iGenerate
Edge
p72
(dp73
g4
I1
sg5
I9
sba(iGenerate
Edge
p74
(dp75
g4
I9
sg5
I3
sba(iGenerate
Edge
p76
(dp77
g4
I3
sg5
I7
sba(iGenerate
Edge
p78
(dp79
g4
I7
sg5
I4
sba(iGenerate
Edge
p80
(dp81
g4
I4
sg5
I8
sba(iGenerate
Edge
p82
(dp83
g4
I8
sg5
I5
sba(iGenerate
Edge
p84
(dp85
g4
I5
sg5
I10
sba(iGenerate
Edge
p86
(dp87
g4
I10
sg5
I0
sbaa(lp88
(iGenerate
Edge
p89
(dp90
g4
I0
sg5
I2
sba(iGenerate
Edge
p91
(dp92
g4
I2
sg5
g8
(g12
S'\x06\x00\x00\x00'
p93
tp94
Rp95
sba(iGenerate
Edge
p96
(dp97
g4
g95
sg5
I1
sba(iGenerate
Edge
p98
(dp99
g4
I1
sg5
I9
sba(iGenerate
Edge
p100
(dp101
g4
I9
sg5
I3
sba(iGenerate
Edge
p102
(dp103
g4
I3
sg5
I7
sba(iGenerate
Edge
p104
(dp105
g4
I7
sg5
I4
sba(iGenerate
Edge
p106
(dp107
g4
I4
sg5
I8
sba(iGenerate
Edge
p108
(dp109
g4
I8
sg5
I5
sba(iGenerate
Edge
p110
(dp111
g4
I5
sg5
I10
sba(iGenerate
Edge
p112
(dp113
g4
I10
sg5
I0
sbaa(lp114
(iGenerate
Edge
p115
(dp116
g4
I0
sg5
I2
sba(iGenerate
Edge
p117
(dp118
g4
I2
sg5
g8
(g12
S'\x06\x00\x00\x00'
p119
tp120
Rp121
sba(iGenerate
Edge
p122
(dp123
g4
g121
sg5
I1
sba(iGenerate
Edge
p124
(dp125
g4
I1
sg5
I9
sba(iGenerate
Edge
p126
(dp127
g4
I9
sg5
I3
sba(iGenerate
Edge
p128
(dp129
g4
I3
sg5
I7
sba(iGenerate
Edge
p130
(dp131
g4
I7
sg5
I4
sba(iGenerate
Edge
p132
(dp133
g4
I4
sg5
I8
sba(iGenerate
Edge
p134
(dp135
g4
I8
sg5
I5
sba(iGenerate
Edge
p136
(dp137
g4
I5
sg5
I10
sba(iGenerate
Edge
p138
(dp139
g4
I10
sg5
I0
sbaa(lp140
(iGenerate
Edge
p141
(dp142
g4
I0
sg5
I2
sba(iGenerate
Edge
p143
(dp144
g4
I2
sg5
g8
(g12
S'\x06\x00\x00\x00'
p145
tp146
Rp147
sba(iGenerate
Edge
p148
(dp149
g4
g147
sg5
I1
sba(iGenerate
Edge
p150
(dp151
g4
I1
sg5
I9
sba(iGenerate
Edge
p152
(dp153
g4
I9
sg5
I3
sba(iGenerate
Edge
p154
(dp155
g4
I3
sg5
I7
sba(iGenerate
Edge
p156
(dp157
g4
I7
sg5
I4
sba(iGenerate
Edge
p158
(dp159
g4
I4
sg5
I8
sba(iGenerate
Edge
p160
(dp161
g4
I8
sg5
I5
sba(iGenerate
Edge
p162
(dp163
g4
I5
sg5
I10
sba(iGenerate
Edge
p164
(dp165
g4
I10
sg5
I0
sbaa(lp166
(iGenerate
Edge
p167
(dp168
g4
I0
sg5
I2
sba(iGenerate
Edge
p169
(dp170
g4
I2
sg5
g8
(g12
S'\x06\x00\x00\x00'
p171
tp172
Rp173
sba(iGenerate
Edge
p174
(dp175
g4
g173
sg5
I1
sba(iGenerate
Edge
p176
(dp177
g4
I1
sg5
I9
sba(iGenerate
Edge
p178
(dp179
g4
I9
sg5
I3
sba(iGenerate
Edge
p180
(dp181
g4
I3
sg5
I7
sba(iGenerate
Edge
p182
(dp183
g4
I7
sg5
I4
sba(iGenerate
Edge
p184
(dp185
g4
I4
sg5
I8
sba(iGenerate
Edge
p186
(dp187
g4
I8
sg5
I5
sba(iGenerate
Edge
p188
(dp189
g4
I5
sg5
I10
sba(iGenerate
Edge
p190
(dp191
g4
I10
sg5
I0
sbaa(lp192
(iGenerate
Edge
p193
(dp194
g4
I0
sg5
I2
sba(iGenerate
Edge
p195
(dp196
g4
I2
sg5
g8
(g12
S'\x06\x00\x00\x00'
p197
tp198
Rp199
sba(iGenerate
Edge
p200
(dp201
g4
g199
sg5
I1
sba(iGenerate
Edge
p202
(dp203
g4
I1
sg5
I9
sba(iGenerate
Edge
p204
(dp205
g4
I9
sg5
I3
sba(iGenerate
Edge
p206
(dp207
g4
I3
sg5
I7
sba(iGenerate
Edge
p208
(dp209
g4
I7
sg5
I4
sba(iGenerate
Edge
p210
(dp211
g4
I4
sg5
I8
sba(iGenerate
Edge
p212
(dp213
g4
I8
sg5
I5
sba(iGenerate
Edge
p214
(dp215
g4
I5
sg5
I10
sba(iGenerate
Edge
p216
(dp217
g4
I10
sg5
I0
sbaa(lp218
(iGenerate
Edge
p219
(dp220
g4
I0
sg5
I2
sba(iGenerate
Edge
p221
(dp222
g4
I2
sg5
g8
(g12
S'\x06\x00\x00\x00'
p223
tp224
Rp225
sba(iGenerate
Edge
p226
(dp227
g4
g225
sg5
I1
sba(iGenerate
Edge
p228
(dp229
g4
I1
sg5
I9
sba(iGenerate
Edge
p230
(dp231
g4
I9
sg5
I3
sba(iGenerate
Edge
p232
(dp233
g4
I3
sg5
I7
sba(iGenerate
Edge
p234
(dp235
g4
I7
sg5
I4
sba(iGenerate
Edge
p236
(dp237
g4
I4
sg5
I8
sba(iGenerate
Edge
p238
(dp239
g4
I8
sg5
I5
sba(iGenerate
Edge
p240
(dp241
g4
I5
sg5
I10
sba(iGenerate
Edge
p242
(dp243
g4
I10
sg5
I0
sbaa(lp244
(iGenerate
Edge
p245
(dp246
g4
I0
sg5
I2
sba(iGenerate
Edge
p247
(dp248
g4
I2
sg5
g8
(g12
S'\x06\x00\x00\x00'
p249
tp250
Rp251
sba(iGenerate
Edge
p252
(dp253
g4
g251
sg5
I1
sba(iGenerate
Edge
p254
(dp255
g4
I1
sg5
I9
sba(iGenerate
Edge
p256
(dp257
g4
I9
sg5
I3
sba(iGenerate
Edge
p258
(dp259
g4
I3
sg5
I7
sba(iGenerate
Edge
p260
(dp261
g4
I7
sg5
I4
sba(iGenerate
Edge
p262
(dp263
g4
I4
sg5
I8
sba(iGenerate
Edge
p264
(dp265
g4
I8
sg5
I5
sba(iGenerate
Edge
p266
(dp267
g4
I5
sg5
I10
sba(iGenerate
Edge
p268
(dp269
g4
I10
sg5
I0
sbaa(lp270
(iGenerate
Edge
p271
(dp272
g4
I0
sg5
I2
sba(iGenerate
Edge
p273
(dp274
g4
I2
sg5
g8
(g12
S'\x06\x00\x00\x00'
p275
tp276
Rp277
sba(iGenerate
Edge
p278
(dp279
g4
g277
sg5
I1
sba(iGenerate
Edge
p280
(dp281
g4
I1
sg5
I9
sba(iGenerate
Edge
p282
(dp283
g4
I9
sg5
I3
sba(iGenerate
Edge
p284
(dp285
g4
I3
sg5
I7
sba(iGenerate
Edge
p286
(dp287
g4
I7
sg5
I4
sba(iGenerate
Edge
p288
(dp289
g4
I4
sg5
I8
sba(iGenerate
Edge
p290
(dp291
g4
I8
sg5
I5
sba(iGenerate
Edge
p292
(dp293
g4
I5
sg5
I10
sba(iGenerate
Edge
p294
(dp295
g4
I10
sg5
I0
sbaa(lp296
(iGenerate
Edge
p297
(dp298
g4
I0
sg5
I2
sba(iGenerate
Edge
p299
(dp300
g4
I2
sg5
g8
(g12
S'\x06\x00\x00\x00'
p301
tp302
Rp303
sba(iGenerate
Edge
p304
(dp305
g4
g303
sg5
I1
sba(iGenerate
Edge
p306
(dp307
g4
I1
sg5
I9
sba(iGenerate
Edge
p308
(dp309
g4
I9
sg5
I3
sba(iGenerate
Edge
p310
(dp311
g4
I3
sg5
I7
sba(iGenerate
Edge
p312
(dp313
g4
I7
sg5
I4
sba(iGenerate
Edge
p314
(dp315
g4
I4
sg5
I8
sba(iGenerate
Edge
p316
(dp317
g4
I8
sg5
I5
sba(iGenerate
Edge
p318
(dp319
g4
I5
sg5
I10
sba(iGenerate
Edge
p320
(dp321
g4
I10
sg5
I0
sbaa(lp322
(iGenerate
Edge
p323
(dp324
g4
I0
sg5
I2
sba(iGenerate
Edge
p325
(dp326
g4
I2
sg5
g8
(g12
S'\x06\x00\x00\x00'
p327
tp328
Rp329
sba(iGenerate
Edge
p330
(dp331
g4
g329
sg5
I1
sba(iGenerate
Edge
p332
(dp333
g4
I1
sg5
I9
sba(iGenerate
Edge
p334
(dp335
g4
I9
sg5
I3
sba(iGenerate
Edge
p336
(dp337
g4
I3
sg5
I7
sba(iGenerate
Edge
p338
(dp339
g4
I7
sg5
I4
sba(iGenerate
Edge
p340
(dp341
g4
I4
sg5
I8
sba(iGenerate
Edge
p342
(dp343
g4
I8
sg5
I5
sba(iGenerate
Edge
p344
(dp345
g4
I5
sg5
I10
sba(iGenerate
Edge
p346
(dp347
g4
I10
sg5
I0
sbaa(lp348
(iGenerate
Edge
p349
(dp350
g4
I0
sg5
I2
sba(iGenerate
Edge
p351
(dp352
g4
I2
sg5
g8
(g12
S'\x06\x00\x00\x00'
p353
tp354
Rp355
sba(iGenerate
Edge
p356
(dp357
g4
g355
sg5
I1
sba(iGenerate
Edge
p358
(dp359
g4
I1
sg5
I9
sba(iGenerate
Edge
p360
(dp361
g4
I9
sg5
I3
sba(iGenerate
Edge
p362
(dp363
g4
I3
sg5
I7
sba(iGenerate
Edge
p364
(dp365
g4
I7
sg5
I4
sba(iGenerate
Edge
p366
(dp367
g4
I4
sg5
I8
sba(iGenerate
Edge
p368
(dp369
g4
I8
sg5
I5
sba(iGenerate
Edge
p370
(dp371
g4
I5
sg5
I10
sba(iGenerate
Edge
p372
(dp373
g4
I10
sg5
I0
sbaa(lp374
(iGenerate
Edge
p375
(dp376
g4
I0
sg5
I2
sba(iGenerate
Edge
p377
(dp378
g4
I2
sg5
g8
(g12
S'\x06\x00\x00\x00'
p379
tp380
Rp381
sba(iGenerate
Edge
p382
(dp383
g4
g381
sg5
I1
sba(iGenerate
Edge
p384
(dp385
g4
I1
sg5
I9
sba(iGenerate
Edge
p386
(dp387
g4
I9
sg5
I3
sba(iGenerate
Edge
p388
(dp389
g4
I3
sg5
I7
sba(iGenerate
Edge
p390
(dp391
g4
I7
sg5
I4
sba(iGenerate
Edge
p392
(dp393
g4
I4
sg5
I8
sba(iGenerate
Edge
p394
(dp395
g4
I8
sg5
I5
sba(iGenerate
Edge
p396
(dp397
g4
I5
sg5
I10
sba(iGenerate
Edge
p398
(dp399
g4
I10
sg5
I0
sbaa(lp400
(iGenerate
Edge
p401
(dp402
g4
I0
sg5
I2
sba(iGenerate
Edge
p403
(dp404
g4
I2
sg5
g8
(g12
S'\x06\x00\x00\x00'
p405
tp406
Rp407
sba(iGenerate
Edge
p408
(dp409
g4
g407
sg5
I1
sba(iGenerate
Edge
p410
(dp411
g4
I1
sg5
I9
sba(iGenerate
Edge
p412
(dp413
g4
I9
sg5
I3
sba(iGenerate
Edge
p414
(dp415
g4
I3
sg5
I7
sba(iGenerate
Edge
p416
(dp417
g4
I7
sg5
I4
sba(iGenerate
Edge
p418
(dp419
g4
I4
sg5
I8
sba(iGenerate
Edge
p420
(dp421
g4
I8
sg5
I5
sba(iGenerate
Edge
p422
(dp423
g4
I5
sg5
I10
sba(iGenerate
Edge
p424
(dp425
g4
I10
sg5
I0
sbaa(lp426
(iGenerate
Edge
p427
(dp428
g4
I0
sg5
I2
sba(iGenerate
Edge
p429
(dp430
g4
I2
sg5
g8
(g12
S'\x06\x00\x00\x00'
p431
tp432
Rp433
sba(iGenerate
Edge
p434
(dp435
g4
g433
sg5
I1
sba(iGenerate
Edge
p436
(dp437
g4
I1
sg5
I9
sba(iGenerate
Edge
p438
(dp439
g4
I9
sg5
I3
sba(iGenerate
Edge
p440
(dp441
g4
I3
sg5
I7
sba(iGenerate
Edge
p442
(dp443
g4
I7
sg5
I4
sba(iGenerate
Edge
p444
(dp445
g4
I4
sg5
I8
sba(iGenerate
Edge
p446
(dp447
g4
I8
sg5
I5
sba(iGenerate
Edge
p448
(dp449
g4
I5
sg5
I10
sba(iGenerate
Edge
p450
(dp451
g4
I10
sg5
I0
sbaa(lp452
(iGenerate
Edge
p453
(dp454
g4
I0
sg5
I2
sba(iGenerate
Edge
p455
(dp456
g4
I2
sg5
g8
(g12
S'\x06\x00\x00\x00'
p457
tp458
Rp459
sba(iGenerate
Edge
p460
(dp461
g4
g459
sg5
I1
sba(iGenerate
Edge
p462
(dp463
g4
I1
sg5
I9
sba(iGenerate
Edge
p464
(dp465
g4
I9
sg5
I3
sba(iGenerate
Edge
p466
(dp467
g4
I3
sg5
I7
sba(iGenerate
Edge
p468
(dp469
g4
I7
sg5
I4
sba(iGenerate
Edge
p470
(dp471
g4
I4
sg5
I8
sba(iGenerate
Edge
p472
(dp473
g4
I8
sg5
I5
sba(iGenerate
Edge
p474
(dp475
g4
I5
sg5
I10
sba(iGenerate
Edge
p476
(dp477
g4
I10
sg5
I0
sbaa(lp478
(iGenerate
Edge
p479
(dp480
g4
I0
sg5
I2
sba(iGenerate
Edge
p481
(dp482
g4
I2
sg5
g8
(g12
S'\x06\x00\x00\x00'
p483
tp484
Rp485
sba(iGenerate
Edge
p486
(dp487
g4
g485
sg5
I1
sba(iGenerate
Edge
p488
(dp489
g4
I1
sg5
I9
sba(iGenerate
Edge
p490
(dp491
g4
I9
sg5
I3
sba(iGenerate
Edge
p492
(dp493
g4
I3
sg5
I7
sba(iGenerate
Edge
p494
(dp495
g4
I7
sg5
I4
sba(iGenerate
Edge
p496
(dp497
g4
I4
sg5
I8
sba(iGenerate
Edge
p498
(dp499
g4
I8
sg5
I5
sba(iGenerate
Edge
p500
(dp501
g4
I5
sg5
I10
sba(iGenerate
Edge
p502
(dp503
g4
I10
sg5
I0
sbaa(lp504
(iGenerate
Edge
p505
(dp506
g4
I0
sg5
I2
sba(iGenerate
Edge
p507
(dp508
g4
I2
sg5
g8
(g12
S'\x06\x00\x00\x00'
p509
tp510
Rp511
sba(iGenerate
Edge
p512
(dp513
g4
g511
sg5
I1
sba(iGenerate
Edge
p514
(dp515
g4
I1
sg5
I9
sba(iGenerate
Edge
p516
(dp517
g4
I9
sg5
I3
sba(iGenerate
Edge
p518
(dp519
g4
I3
sg5
I7
sba(iGenerate
Edge
p520
(dp521
g4
I7
sg5
I4
sba(iGenerate
Edge
p522
(dp523
g4
I4
sg5
I8
sba(iGenerate
Edge
p524
(dp525
g4
I8
sg5
I5
sba(iGenerate
Edge
p526
(dp527
g4
I5
sg5
I10
sba(iGenerate
Edge
p528
(dp529
g4
I10
sg5
I0
sbaa(lp530
(iGenerate
Edge
p531
(dp532
g4
I0
sg5
I2
sba(iGenerate
Edge
p533
(dp534
g4
I2
sg5
g8
(g12
S'\x06\x00\x00\x00'
p535
tp536
Rp537
sba(iGenerate
Edge
p538
(dp539
g4
g537
sg5
I1
sba(iGenerate
Edge
p540
(dp541
g4
I1
sg5
I9
sba(iGenerate
Edge
p542
(dp543
g4
I9
sg5
I3
sba(iGenerate
Edge
p544
(dp545
g4
I3
sg5
I7
sba(iGenerate
Edge
p546
(dp547
g4
I7
sg5
I4
sba(iGenerate
Edge
p548
(dp549
g4
I4
sg5
I8
sba(iGenerate
Edge
p550
(dp551
g4
I8
sg5
I5
sba(iGenerate
Edge
p552
(dp553
g4
I5
sg5
I10
sba(iGenerate
Edge
p554
(dp555
g4
I10
sg5
I0
sbaa(lp556
(iGenerate
Edge
p557
(dp558
g4
I0
sg5
I2
sba(iGenerate
Edge
p559
(dp560
g4
I2
sg5
g8
(g12
S'\x06\x00\x00\x00'
p561
tp562
Rp563
sba(iGenerate
Edge
p564
(dp565
g4
g563
sg5
I1
sba(iGenerate
Edge
p566
(dp567
g4
I1
sg5
I9
sba(iGenerate
Edge
p568
(dp569
g4
I9
sg5
I3
sba(iGenerate
Edge
p570
(dp571
g4
I3
sg5
I7
sba(iGenerate
Edge
p572
(dp573
g4
I7
sg5
I4
sba(iGenerate
Edge
p574
(dp575
g4
I4
sg5
I8
sba(iGenerate
Edge
p576
(dp577
g4
I8
sg5
I5
sba(iGenerate
Edge
p578
(dp579
g4
I5
sg5
I10
sba(iGenerate
Edge
p580
(dp581
g4
I10
sg5
I0
sbaa(lp582
(iGenerate
Edge
p583
(dp584
g4
I0
sg5
I2
sba(iGenerate
Edge
p585
(dp586
g4
I2
sg5
g8
(g12
S'\x06\x00\x00\x00'
p587
tp588
Rp589
sba(iGenerate
Edge
p590
(dp591
g4
g589
sg5
I1
sba(iGenerate
Edge
p592
(dp593
g4
I1
sg5
I9
sba(iGenerate
Edge
p594
(dp595
g4
I9
sg5
I3
sba(iGenerate
Edge
p596
(dp597
g4
I3
sg5
I7
sba(iGenerate
Edge
p598
(dp599
g4
I7
sg5
I4
sba(iGenerate
Edge
p600
(dp601
g4
I4
sg5
I8
sba(iGenerate
Edge
p602
(dp603
g4
I8
sg5
I5
sba(iGenerate
Edge
p604
(dp605
g4
I5
sg5
I10
sba(iGenerate
Edge
p606
(dp607
g4
I10
sg5
I0
sbaa(lp608
(iGenerate
Edge
p609
(dp610
g4
I0
sg5
I2
sba(iGenerate
Edge
p611
(dp612
g4
I2
sg5
g8
(g12
S'\x06\x00\x00\x00'
p613
tp614
Rp615
sba(iGenerate
Edge
p616
(dp617
g4
g615
sg5
I1
sba(iGenerate
Edge
p618
(dp619
g4
I1
sg5
I9
sba(iGenerate
Edge
p620
(dp621
g4
I9
sg5
I3
sba(iGenerate
Edge
p622
(dp623
g4
I3
sg5
I7
sba(iGenerate
Edge
p624
(dp625
g4
I7
sg5
I4
sba(iGenerate
Edge
p626
(dp627
g4
I4
sg5
I8
sba(iGenerate
Edge
p628
(dp629
g4
I8
sg5
I5
sba(iGenerate
Edge
p630
(dp631
g4
I5
sg5
I10
sba(iGenerate
Edge
p632
(dp633
g4
I10
sg5
I0
sbaa(lp634
(iGenerate
Edge
p635
(dp636
g4
I0
sg5
I2
sba(iGenerate
Edge
p637
(dp638
g4
I2
sg5
g8
(g12
S'\x06\x00\x00\x00'
p639
tp640
Rp641
sba(iGenerate
Edge
p642
(dp643
g4
g641
sg5
I1
sba(iGenerate
Edge
p644
(dp645
g4
I1
sg5
I9
sba(iGenerate
Edge
p646
(dp647
g4
I9
sg5
I3
sba(iGenerate
Edge
p648
(dp649
g4
I3
sg5
I7
sba(iGenerate
Edge
p650
(dp651
g4
I7
sg5
I4
sba(iGenerate
Edge
p652
(dp653
g4
I4
sg5
I8
sba(iGenerate
Edge
p654
(dp655
g4
I8
sg5
I5
sba(iGenerate
Edge
p656
(dp657
g4
I5
sg5
I10
sba(iGenerate
Edge
p658
(dp659
g4
I10
sg5
I0
sbaa(lp660
(iGenerate
Edge
p661
(dp662
g4
I0
sg5
I2
sba(iGenerate
Edge
p663
(dp664
g4
I2
sg5
g8
(g12
S'\x06\x00\x00\x00'
p665
tp666
Rp667
sba(iGenerate
Edge
p668
(dp669
g4
g667
sg5
I1
sba(iGenerate
Edge
p670
(dp671
g4
I1
sg5
I9
sba(iGenerate
Edge
p672
(dp673
g4
I9
sg5
I3
sba(iGenerate
Edge
p674
(dp675
g4
I3
sg5
I7
sba(iGenerate
Edge
p676
(dp677
g4
I7
sg5
I4
sba(iGenerate
Edge
p678
(dp679
g4
I4
sg5
I8
sba(iGenerate
Edge
p680
(dp681
g4
I8
sg5
I5
sba(iGenerate
Edge
p682
(dp683
g4
I5
sg5
I10
sba(iGenerate
Edge
p684
(dp685
g4
I10
sg5
I0
sbaa(lp686
(iGenerate
Edge
p687
(dp688
g4
I0
sg5
I2
sba(iGenerate
Edge
p689
(dp690
g4
I2
sg5
g8
(g12
S'\x06\x00\x00\x00'
p691
tp692
Rp693
sba(iGenerate
Edge
p694
(dp695
g4
g693
sg5
I1
sba(iGenerate
Edge
p696
(dp697
g4
I1
sg5
I9
sba(iGenerate
Edge
p698
(dp699
g4
I9
sg5
I3
sba(iGenerate
Edge
p700
(dp701
g4
I3
sg5
I7
sba(iGenerate
Edge
p702
(dp703
g4
I7
sg5
I4
sba(iGenerate
Edge
p704
(dp705
g4
I4
sg5
I8
sba(iGenerate
Edge
p706
(dp707
g4
I8
sg5
I5
sba(iGenerate
Edge
p708
(dp709
g4
I5
sg5
I10
sba(iGenerate
Edge
p710
(dp711
g4
I10
sg5
I0
sbaa(lp712
(iGenerate
Edge
p713
(dp714
g4
I0
sg5
I2
sba(iGenerate
Edge
p715
(dp716
g4
I2
sg5
g8
(g12
S'\x06\x00\x00\x00'
p717
tp718
Rp719
sba(iGenerate
Edge
p720
(dp721
g4
g719
sg5
I1
sba(iGenerate
Edge
p722
(dp723
g4
I1
sg5
I9
sba(iGenerate
Edge
p724
(dp725
g4
I9
sg5
I3
sba(iGenerate
Edge
p726
(dp727
g4
I3
sg5
I7
sba(iGenerate
Edge
p728
(dp729
g4
I7
sg5
I4
sba(iGenerate
Edge
p730
(dp731
g4
I4
sg5
I8
sba(iGenerate
Edge
p732
(dp733
g4
I8
sg5
I5
sba(iGenerate
Edge
p734
(dp735
g4
I5
sg5
I10
sba(iGenerate
Edge
p736
(dp737
g4
I10
sg5
I0
sbaa(lp738
(iGenerate
Edge
p739
(dp740
g4
I0
sg5
I2
sba(iGenerate
Edge
p741
(dp742
g4
I2
sg5
g8
(g12
S'\x06\x00\x00\x00'
p743
tp744
Rp745
sba(iGenerate
Edge
p746
(dp747
g4
g745
sg5
I1
sba(iGenerate
Edge
p748
(dp749
g4
I1
sg5
I9
sba(iGenerate
Edge
p750
(dp751
g4
I9
sg5
I3
sba(iGenerate
Edge
p752
(dp753
g4
I3
sg5
I7
sba(iGenerate
Edge
p754
(dp755
g4
I7
sg5
I4
sba(iGenerate
Edge
p756
(dp757
g4
I4
sg5
I8
sba(iGenerate
Edge
p758
(dp759
g4
I8
sg5
I5
sba(iGenerate
Edge
p760
(dp761
g4
I5
sg5
I10
sba(iGenerate
Edge
p762
(dp763
g4
I10
sg5
I0
sbaa(lp764
(iGenerate
Edge
p765
(dp766
g4
I0
sg5
I2
sba(iGenerate
Edge
p767
(dp768
g4
I2
sg5
g8
(g12
S'\x06\x00\x00\x00'
p769
tp770
Rp771
sba(iGenerate
Edge
p772
(dp773
g4
g771
sg5
I1
sba(iGenerate
Edge
p774
(dp775
g4
I1
sg5
I9
sba(iGenerate
Edge
p776
(dp777
g4
I9
sg5
I3
sba(iGenerate
Edge
p778
(dp779
g4
I3
sg5
I7
sba(iGenerate
Edge
p780
(dp781
g4
I7
sg5
I4
sba(iGenerate
Edge
p782
(dp783
g4
I4
sg5
I8
sba(iGenerate
Edge
p784
(dp785
g4
I8
sg5
I5
sba(iGenerate
Edge
p786
(dp787
g4
I5
sg5
I10
sba(iGenerate
Edge
p788
(dp789
g4
I10
sg5
I0
sbaa(lp790
(iGenerate
Edge
p791
(dp792
g4
I0
sg5
I2
sba(iGenerate
Edge
p793
(dp794
g4
I2
sg5
g8
(g12
S'\x06\x00\x00\x00'
p795
tp796
Rp797
sba(iGenerate
Edge
p798
(dp799
g4
g797
sg5
I1
sba(iGenerate
Edge
p800
(dp801
g4
I1
sg5
I9
sba(iGenerate
Edge
p802
(dp803
g4
I9
sg5
I3
sba(iGenerate
Edge
p804
(dp805
g4
I3
sg5
I7
sba(iGenerate
Edge
p806
(dp807
g4
I7
sg5
I4
sba(iGenerate
Edge
p808
(dp809
g4
I4
sg5
I8
sba(iGenerate
Edge
p810
(dp811
g4
I8
sg5
I5
sba(iGenerate
Edge
p812
(dp813
g4
I5
sg5
I10
sba(iGenerate
Edge
p814
(dp815
g4
I10
sg5
I0
sbaa(lp816
(iGenerate
Edge
p817
(dp818
g4
I0
sg5
I2
sba(iGenerate
Edge
p819
(dp820
g4
I2
sg5
g8
(g12
S'\x06\x00\x00\x00'
p821
tp822
Rp823
sba(iGenerate
Edge
p824
(dp825
g4
g823
sg5
I1
sba(iGenerate
Edge
p826
(dp827
g4
I1
sg5
I9
sba(iGenerate
Edge
p828
(dp829
g4
I9
sg5
I3
sba(iGenerate
Edge
p830
(dp831
g4
I3
sg5
I7
sba(iGenerate
Edge
p832
(dp833
g4
I7
sg5
I4
sba(iGenerate
Edge
p834
(dp835
g4
I4
sg5
I8
sba(iGenerate
Edge
p836
(dp837
g4
I8
sg5
I5
sba(iGenerate
Edge
p838
(dp839
g4
I5
sg5
I10
sba(iGenerate
Edge
p840
(dp841
g4
I10
sg5
I0
sbaa(lp842
(iGenerate
Edge
p843
(dp844
g4
I0
sg5
I2
sba(iGenerate
Edge
p845
(dp846
g4
I2
sg5
g8
(g12
S'\x06\x00\x00\x00'
p847
tp848
Rp849
sba(iGenerate
Edge
p850
(dp851
g4
g849
sg5
I1
sba(iGenerate
Edge
p852
(dp853
g4
I1
sg5
I9
sba(iGenerate
Edge
p854
(dp855
g4
I9
sg5
I3
sba(iGenerate
Edge
p856
(dp857
g4
I3
sg5
I7
sba(iGenerate
Edge
p858
(dp859
g4
I7
sg5
I4
sba(iGenerate
Edge
p860
(dp861
g4
I4
sg5
I8
sba(iGenerate
Edge
p862
(dp863
g4
I8
sg5
I5
sba(iGenerate
Edge
p864
(dp865
g4
I5
sg5
I10
sba(iGenerate
Edge
p866
(dp867
g4
I10
sg5
I0
sbaa(lp868
(iGenerate
Edge
p869
(dp870
g4
I0
sg5
I2
sba(iGenerate
Edge
p871
(dp872
g4
I2
sg5
g8
(g12
S'\x06\x00\x00\x00'
p873
tp874
Rp875
sba(iGenerate
Edge
p876
(dp877
g4
g875
sg5
I1
sba(iGenerate
Edge
p878
(dp879
g4
I1
sg5
I9
sba(iGenerate
Edge
p880
(dp881
g4
I9
sg5
I3
sba(iGenerate
Edge
p882
(dp883
g4
I3
sg5
I7
sba(iGenerate
Edge
p884
(dp885
g4
I7
sg5
I4
sba(iGenerate
Edge
p886
(dp887
g4
I4
sg5
I8
sba(iGenerate
Edge
p888
(dp889
g4
I8
sg5
I5
sba(iGenerate
Edge
p890
(dp891
g4
I5
sg5
I10
sba(iGenerate
Edge
p892
(dp893
g4
I10
sg5
I0
sbaa(lp894
(iGenerate
Edge
p895
(dp896
g4
I0
sg5
I2
sba(iGenerate
Edge
p897
(dp898
g4
I2
sg5
g8
(g12
S'\x06\x00\x00\x00'
p899
tp900
Rp901
sba(iGenerate
Edge
p902
(dp903
g4
g901
sg5
I1
sba(iGenerate
Edge
p904
(dp905
g4
I1
sg5
I9
sba(iGenerate
Edge
p906
(dp907
g4
I9
sg5
I3
sba(iGenerate
Edge
p908
(dp909
g4
I3
sg5
I7
sba(iGenerate
Edge
p910
(dp911
g4
I7
sg5
I4
sba(iGenerate
Edge
p912
(dp913
g4
I4
sg5
I8
sba(iGenerate
Edge
p914
(dp915
g4
I8
sg5
I5
sba(iGenerate
Edge
p916
(dp917
g4
I5
sg5
I10
sba(iGenerate
Edge
p918
(dp919
g4
I10
sg5
I0
sbaa(lp920
(iGenerate
Edge
p921
(dp922
g4
I0
sg5
I2
sba(iGenerate
Edge
p923
(dp924
g4
I2
sg5
g8
(g12
S'\x06\x00\x00\x00'
p925
tp926
Rp927
sba(iGenerate
Edge
p928
(dp929
g4
g927
sg5
I1
sba(iGenerate
Edge
p930
(dp931
g4
I1
sg5
I9
sba(iGenerate
Edge
p932
(dp933
g4
I9
sg5
I3
sba(iGenerate
Edge
p934
(dp935
g4
I3
sg5
I7
sba(iGenerate
Edge
p936
(dp937
g4
I7
sg5
I4
sba(iGenerate
Edge
p938
(dp939
g4
I4
sg5
I8
sba(iGenerate
Edge
p940
(dp941
g4
I8
sg5
I5
sba(iGenerate
Edge
p942
(dp943
g4
I5
sg5
I10
sba(iGenerate
Edge
p944
(dp945
g4
I10
sg5
I0
sbaa(lp946
(iGenerate
Edge
p947
(dp948
g4
I0
sg5
I2
sba(iGenerate
Edge
p949
(dp950
g4
I2
sg5
g8
(g12
S'\x06\x00\x00\x00'
p951
tp952
Rp953
sba(iGenerate
Edge
p954
(dp955
g4
g953
sg5
I1
sba(iGenerate
Edge
p956
(dp957
g4
I1
sg5
I9
sba(iGenerate
Edge
p958
(dp959
g4
I9
sg5
I3
sba(iGenerate
Edge
p960
(dp961
g4
I3
sg5
I7
sba(iGenerate
Edge
p962
(dp963
g4
I7
sg5
I4
sba(iGenerate
Edge
p964
(dp965
g4
I4
sg5
I8
sba(iGenerate
Edge
p966
(dp967
g4
I8
sg5
I5
sba(iGenerate
Edge
p968
(dp969
g4
I5
sg5
I10
sba(iGenerate
Edge
p970
(dp971
g4
I10
sg5
I0
sbaa(lp972
(iGenerate
Edge
p973
(dp974
g4
I0
sg5
I2
sba(iGenerate
Edge
p975
(dp976
g4
I2
sg5
g8
(g12
S'\x06\x00\x00\x00'
p977
tp978
Rp979
sba(iGenerate
Edge
p980
(dp981
g4
g979
sg5
I1
sba(iGenerate
Edge
p982
(dp983
g4
I1
sg5
I9
sba(iGenerate
Edge
p984
(dp985
g4
I9
sg5
I3
sba(iGenerate
Edge
p986
(dp987
g4
I3
sg5
I7
sba(iGenerate
Edge
p988
(dp989
g4
I7
sg5
I4
sba(iGenerate
Edge
p990
(dp991
g4
I4
sg5
I8
sba(iGenerate
Edge
p992
(dp993
g4
I8
sg5
I5
sba(iGenerate
Edge
p994
(dp995
g4
I5
sg5
I10
sba(iGenerate
Edge
p996
(dp997
g4
I10
sg5
I0
sbaa(lp998
(iGenerate
Edge
p999
(dp1000
g4
I0
sg5
I2
sba(iGenerate
Edge
p1001
(dp1002
g4
I2
sg5
g8
(g12
S'\x06\x00\x00\x00'
p1003
tp1004
Rp1005
sba(iGenerate
Edge
p1006
(dp1007
g4
g1005
sg5
I1
sba(iGenerate
Edge
p1008
(dp1009
g4
I1
sg5
I9
sba(iGenerate
Edge
p1010
(dp1011
g4
I9
sg5
I3
sba(iGenerate
Edge
p1012
(dp1013
g4
I3
sg5
I7
sba(iGenerate
Edge
p1014
(dp1015
g4
I7
sg5
I4
sba(iGenerate
Edge
p1016
(dp1017
g4
I4
sg5
I8
sba(iGenerate
Edge
p1018
(dp1019
g4
I8
sg5
I5
sba(iGenerate
Edge
p1020
(dp1021
g4
I5
sg5
I10
sba(iGenerate
Edge
p1022
(dp1023
g4
I10
sg5
I0
sbaa(lp1024
(iGenerate
Edge
p1025
(dp1026
g4
I0
sg5
I2
sba(iGenerate
Edge
p1027
(dp1028
g4
I2
sg5
g8
(g12
S'\x06\x00\x00\x00'
p1029
tp1030
Rp1031
sba(iGenerate
Edge
p1032
(dp1033
g4
g1031
sg5
I1
sba(iGenerate
Edge
p1034
(dp1035
g4
I1
sg5
I9
sba(iGenerate
Edge
p1036
(dp1037
g4
I9
sg5
I3
sba(iGenerate
Edge
p1038
(dp1039
g4
I3
sg5
I7
sba(iGenerate
Edge
p1040
(dp1041
g4
I7
sg5
I4
sba(iGenerate
Edge
p1042
(dp1043
g4
I4
sg5
I8
sba(iGenerate
Edge
p1044
(dp1045
g4
I8
sg5
I5
sba(iGenerate
Edge
p1046
(dp1047
g4
I5
sg5
I10
sba(iGenerate
Edge
p1048
(dp1049
g4
I10
sg5
I0
sbaa(lp1050
(iGenerate
Edge
p1051
(dp1052
g4
I0
sg5
I2
sba(iGenerate
Edge
p1053
(dp1054
g4
I2
sg5
g8
(g12
S'\x06\x00\x00\x00'
p1055
tp1056
Rp1057
sba(iGenerate
Edge
p1058
(dp1059
g4
g1057
sg5
I1
sba(iGenerate
Edge
p1060
(dp1061
g4
I1
sg5
I9
sba(iGenerate
Edge
p1062
(dp1063
g4
I9
sg5
I3
sba(iGenerate
Edge
p1064
(dp1065
g4
I3
sg5
I7
sba(iGenerate
Edge
p1066
(dp1067
g4
I7
sg5
I4
sba(iGenerate
Edge
p1068
(dp1069
g4
I4
sg5
I8
sba(iGenerate
Edge
p1070
(dp1071
g4
I8
sg5
I5
sba(iGenerate
Edge
p1072
(dp1073
g4
I5
sg5
I10
sba(iGenerate
Edge
p1074
(dp1075
g4
I10
sg5
I0
sbaa(lp1076
(iGenerate
Edge
p1077
(dp1078
g4
I0
sg5
I2
sba(iGenerate
Edge
p1079
(dp1080
g4
I2
sg5
g8
(g12
S'\x06\x00\x00\x00'
p1081
tp1082
Rp1083
sba(iGenerate
Edge
p1084
(dp1085
g4
g1083
sg5
I1
sba(iGenerate
Edge
p1086
(dp1087
g4
I1
sg5
I9
sba(iGenerate
Edge
p1088
(dp1089
g4
I9
sg5
I3
sba(iGenerate
Edge
p1090
(dp1091
g4
I3
sg5
I7
sba(iGenerate
Edge
p1092
(dp1093
g4
I7
sg5
I4
sba(iGenerate
Edge
p1094
(dp1095
g4
I4
sg5
I8
sba(iGenerate
Edge
p1096
(dp1097
g4
I8
sg5
I5
sba(iGenerate
Edge
p1098
(dp1099
g4
I5
sg5
I10
sba(iGenerate
Edge
p1100
(dp1101
g4
I10
sg5
I0
sbaa(lp1102
(iGenerate
Edge
p1103
(dp1104
g4
I0
sg5
I2
sba(iGenerate
Edge
p1105
(dp1106
g4
I2
sg5
g8
(g12
S'\x06\x00\x00\x00'
p1107
tp1108
Rp1109
sba(iGenerate
Edge
p1110
(dp1111
g4
g1109
sg5
I1
sba(iGenerate
Edge
p1112
(dp1113
g4
I1
sg5
I9
sba(iGenerate
Edge
p1114
(dp1115
g4
I9
sg5
I3
sba(iGenerate
Edge
p1116
(dp1117
g4
I3
sg5
I7
sba(iGenerate
Edge
p1118
(dp1119
g4
I7
sg5
I4
sba(iGenerate
Edge
p1120
(dp1121
g4
I4
sg5
I8
sba(iGenerate
Edge
p1122
(dp1123
g4
I8
sg5
I5
sba(iGenerate
Edge
p1124
(dp1125
g4
I5
sg5
I10
sba(iGenerate
Edge
p1126
(dp1127
g4
I10
sg5
I0
sbaa(lp1128
(iGenerate
Edge
p1129
(dp1130
g4
I0
sg5
I2
sba(iGenerate
Edge
p1131
(dp1132
g4
I2
sg5
g8
(g12
S'\x06\x00\x00\x00'
p1133
tp1134
Rp1135
sba(iGenerate
Edge
p1136
(dp1137
g4
g1135
sg5
I1
sba(iGenerate
Edge
p1138
(dp1139
g4
I1
sg5
I9
sba(iGenerate
Edge
p1140
(dp1141
g4
I9
sg5
I3
sba(iGenerate
Edge
p1142
(dp1143
g4
I3
sg5
I7
sba(iGenerate
Edge
p1144
(dp1145
g4
I7
sg5
I4
sba(iGenerate
Edge
p1146
(dp1147
g4
I4
sg5
I8
sba(iGenerate
Edge
p1148
(dp1149
g4
I8
sg5
I5
sba(iGenerate
Edge
p1150
(dp1151
g4
I5
sg5
I10
sba(iGenerate
Edge
p1152
(dp1153
g4
I10
sg5
I0
sbaa(lp1154
(iGenerate
Edge
p1155
(dp1156
g4
I0
sg5
I2
sba(iGenerate
Edge
p1157
(dp1158
g4
I2
sg5
g8
(g12
S'\x06\x00\x00\x00'
p1159
tp1160
Rp1161
sba(iGenerate
Edge
p1162
(dp1163
g4
g1161
sg5
I1
sba(iGenerate
Edge
p1164
(dp1165
g4
I1
sg5
I9
sba(iGenerate
Edge
p1166
(dp1167
g4
I9
sg5
I3
sba(iGenerate
Edge
p1168
(dp1169
g4
I3
sg5
I7
sba(iGenerate
Edge
p1170
(dp1171
g4
I7
sg5
I4
sba(iGenerate
Edge
p1172
(dp1173
g4
I4
sg5
I8
sba(iGenerate
Edge
p1174
(dp1175
g4
I8
sg5
I5
sba(iGenerate
Edge
p1176
(dp1177
g4
I5
sg5
I10
sba(iGenerate
Edge
p1178
(dp1179
g4
I10
sg5
I0
sbaa(lp1180
(iGenerate
Edge
p1181
(dp1182
g4
I0
sg5
I2
sba(iGenerate
Edge
p1183
(dp1184
g4
I2
sg5
g8
(g12
S'\x06\x00\x00\x00'
p1185
tp1186
Rp1187
sba(iGenerate
Edge
p1188
(dp1189
g4
g1187
sg5
I1
sba(iGenerate
Edge
p1190
(dp1191
g4
I1
sg5
I9
sba(iGenerate
Edge
p1192
(dp1193
g4
I9
sg5
I3
sba(iGenerate
Edge
p1194
(dp1195
g4
I3
sg5
I7
sba(iGenerate
Edge
p1196
(dp1197
g4
I7
sg5
I4
sba(iGenerate
Edge
p1198
(dp1199
g4
I4
sg5
I8
sba(iGenerate
Edge
p1200
(dp1201
g4
I8
sg5
I5
sba(iGenerate
Edge
p1202
(dp1203
g4
I5
sg5
I10
sba(iGenerate
Edge
p1204
(dp1205
g4
I10
sg5
I0
sbaa(lp1206
(iGenerate
Edge
p1207
(dp1208
g4
I0
sg5
I2
sba(iGenerate
Edge
p1209
(dp1210
g4
I2
sg5
g8
(g12
S'\x06\x00\x00\x00'
p1211
tp1212
Rp1213
sba(iGenerate
Edge
p1214
(dp1215
g4
g1213
sg5
I1
sba(iGenerate
Edge
p1216
(dp1217
g4
I1
sg5
I9
sba(iGenerate
Edge
p1218
(dp1219
g4
I9
sg5
I3
sba(iGenerate
Edge
p1220
(dp1221
g4
I3
sg5
I7
sba(iGenerate
Edge
p1222
(dp1223
g4
I7
sg5
I4
sba(iGenerate
Edge
p1224
(dp1225
g4
I4
sg5
I8
sba(iGenerate
Edge
p1226
(dp1227
g4
I8
sg5
I5
sba(iGenerate
Edge
p1228
(dp1229
g4
I5
sg5
I10
sba(iGenerate
Edge
p1230
(dp1231
g4
I10
sg5
I0
sbaa(lp1232
(iGenerate
Edge
p1233
(dp1234
g4
I0
sg5
I2
sba(iGenerate
Edge
p1235
(dp1236
g4
I2
sg5
g8
(g12
S'\x06\x00\x00\x00'
p1237
tp1238
Rp1239
sba(iGenerate
Edge
p1240
(dp1241
g4
g1239
sg5
I1
sba(iGenerate
Edge
p1242
(dp1243
g4
I1
sg5
I9
sba(iGenerate
Edge
p1244
(dp1245
g4
I9
sg5
I3
sba(iGenerate
Edge
p1246
(dp1247
g4
I3
sg5
I7
sba(iGenerate
Edge
p1248
(dp1249
g4
I7
sg5
I4
sba(iGenerate
Edge
p1250
(dp1251
g4
I4
sg5
I8
sba(iGenerate
Edge
p1252
(dp1253
g4
I8
sg5
I5
sba(iGenerate
Edge
p1254
(dp1255
g4
I5
sg5
I10
sba(iGenerate
Edge
p1256
(dp1257
g4
I10
sg5
I0
sbaa(lp1258
(iGenerate
Edge
p1259
(dp1260
g4
I0
sg5
I2
sba(iGenerate
Edge
p1261
(dp1262
g4
I2
sg5
g8
(g12
S'\x06\x00\x00\x00'
p1263
tp1264
Rp1265
sba(iGenerate
Edge
p1266
(dp1267
g4
g1265
sg5
I1
sba(iGenerate
Edge
p1268
(dp1269
g4
I1
sg5
I9
sba(iGenerate
Edge
p1270
(dp1271
g4
I9
sg5
I3
sba(iGenerate
Edge
p1272
(dp1273
g4
I3
sg5
I7
sba(iGenerate
Edge
p1274
(dp1275
g4
I7
sg5
I4
sba(iGenerate
Edge
p1276
(dp1277
g4
I4
sg5
I8
sba(iGenerate
Edge
p1278
(dp1279
g4
I8
sg5
I5
sba(iGenerate
Edge
p1280
(dp1281
g4
I5
sg5
I10
sba(iGenerate
Edge
p1282
(dp1283
g4
I10
sg5
I0
sbaa(lp1284
(iGenerate
Edge
p1285
(dp1286
g4
I0
sg5
I2
sba(iGenerate
Edge
p1287
(dp1288
g4
I2
sg5
g8
(g12
S'\x06\x00\x00\x00'
p1289
tp1290
Rp1291
sba(iGenerate
Edge
p1292
(dp1293
g4
g1291
sg5
I1
sba(iGenerate
Edge
p1294
(dp1295
g4
I1
sg5
I9
sba(iGenerate
Edge
p1296
(dp1297
g4
I9
sg5
I3
sba(iGenerate
Edge
p1298
(dp1299
g4
I3
sg5
I7
sba(iGenerate
Edge
p1300
(dp1301
g4
I7
sg5
I4
sba(iGenerate
Edge
p1302
(dp1303
g4
I4
sg5
I8
sba(iGenerate
Edge
p1304
(dp1305
g4
I8
sg5
I5
sba(iGenerate
Edge
p1306
(dp1307
g4
I5
sg5
I10
sba(iGenerate
Edge
p1308
(dp1309
g4
I10
sg5
I0
sbaa.