(lp0
(lp1
(iGenerate
Edge
p2
(dp3
S'a'
p4
I0
sS'b'
p5
I3
sba(iGenerate
Edge
p6
(dp7
g4
I3
sg5
cnumpy.core.multiarray
scalar
p8
(cnumpy
dtype
p9
(S'i4'
p10
I0
I1
tp11
Rp12
(I3
S'<'
p13
NNNI-1
I-1
I0
tp14
bS'\x06\x00\x00\x00'
p15
tp16
Rp17
sba(iGenerate
Edge
p18
(dp19
g4
g17
sg5
I1
sba(iGenerate
Edge
p20
(dp21
g4
I1
sg5
I4
sba(iGenerate
Edge
p22
(dp23
g4
I4
sg5
I2
sba(iGenerate
Edge
p24
(dp25
g4
I2
sg5
I5
sba(iGenerate
Edge
p26
(dp27
g4
I5
sg5
I7
sba(iGenerate
Edge
p28
(dp29
g4
I7
sg5
I8
sba(iGenerate
Edge
p30
(dp31
g4
I8
sg5
I10
sba(iGenerate
Edge
p32
(dp33
g4
I10
sg5
I9
sba(iGenerate
Edge
p34
(dp35
g4
I9
sg5
I11
sba(iGenerate
Edge
p36
(dp37
g4
I11
sg5
I12
sba(iGenerate
Edge
p38
(dp39
g4
I12
sg5
I14
sba(iGenerate
Edge
p40
(dp41
g4
I14
sg5
I13
sba(iGenerate
Edge
p42
(dp43
g4
I13
sg5
I15
sba(iGenerate
Edge
p44
(dp45
g4
I15
sg5
I16
sba(iGenerate
Edge
p46
(dp47
g4
I16
sg5
I17
sba(iGenerate
Edge
p48
(dp49
g4
I17
sg5
I0
sbaa(lp50
(iGenerate
Edge
p51
(dp52
g4
I0
sg5
I3
sba(iGenerate
Edge
p53
(dp54
g4
I3
sg5
g8
(g12
S'\x06\x00\x00\x00'
p55
tp56
Rp57
sba(iGenerate
Edge
p58
(dp59
g4
g57
sg5
I1
sba(iGenerate
Edge
p60
(dp61
g4
I1
sg5
I4
sba(iGenerate
Edge
p62
(dp63
g4
I4
sg5
I2
sba(iGenerate
Edge
p64
(dp65
g4
I2
sg5
I5
sba(iGenerate
Edge
p66
(dp67
g4
I5
sg5
I7
sba(iGenerate
Edge
p68
(dp69
g4
I7
sg5
I8
sba(iGenerate
Edge
p70
(dp71
g4
I8
sg5
I10
sba(iGenerate
Edge
p72
(dp73
g4
I10
sg5
I9
sba(iGenerate
Edge
p74
(dp75
g4
I9
sg5
I11
sba(iGenerate
Edge
p76
(dp77
g4
I11
sg5
I12
sba(iGenerate
Edge
p78
(dp79
g4
I12
sg5
I14
sba(iGenerate
Edge
p80
(dp81
g4
I14
sg5
I13
sba(iGenerate
Edge
p82
(dp83
g4
I13
sg5
I15
sba(iGenerate
Edge
p84
(dp85
g4
I15
sg5
I16
sba(iGenerate
Edge
p86
(dp87
g4
I16
sg5
I17
sba(iGenerate
Edge
p88
(dp89
g4
I17
sg5
I0
sbaa(lp90
(iGenerate
Edge
p91
(dp92
g4
I0
sg5
I3
sba(iGenerate
Edge
p93
(dp94
g4
I3
sg5
g8
(g12
S'\x06\x00\x00\x00'
p95
tp96
Rp97
sba(iGenerate
Edge
p98
(dp99
g4
g97
sg5
I1
sba(iGenerate
Edge
p100
(dp101
g4
I1
sg5
I4
sba(iGenerate
Edge
p102
(dp103
g4
I4
sg5
I2
sba(iGenerate
Edge
p104
(dp105
g4
I2
sg5
I5
sba(iGenerate
Edge
p106
(dp107
g4
I5
sg5
I7
sba(iGenerate
Edge
p108
(dp109
g4
I7
sg5
I8
sba(iGenerate
Edge
p110
(dp111
g4
I8
sg5
I10
sba(iGenerate
Edge
p112
(dp113
g4
I10
sg5
I9
sba(iGenerate
Edge
p114
(dp115
g4
I9
sg5
I11
sba(iGenerate
Edge
p116
(dp117
g4
I11
sg5
I12
sba(iGenerate
Edge
p118
(dp119
g4
I12
sg5
I14
sba(iGenerate
Edge
p120
(dp121
g4
I14
sg5
I13
sba(iGenerate
Edge
p122
(dp123
g4
I13
sg5
I15
sba(iGenerate
Edge
p124
(dp125
g4
I15
sg5
I16
sba(iGenerate
Edge
p126
(dp127
g4
I16
sg5
I17
sba(iGenerate
Edge
p128
(dp129
g4
I17
sg5
I0
sbaa(lp130
(iGenerate
Edge
p131
(dp132
g4
I0
sg5
I3
sba(iGenerate
Edge
p133
(dp134
g4
I3
sg5
g8
(g12
S'\x06\x00\x00\x00'
p135
tp136
Rp137
sba(iGenerate
Edge
p138
(dp139
g4
g137
sg5
I1
sba(iGenerate
Edge
p140
(dp141
g4
I1
sg5
I4
sba(iGenerate
Edge
p142
(dp143
g4
I4
sg5
I2
sba(iGenerate
Edge
p144
(dp145
g4
I2
sg5
I5
sba(iGenerate
Edge
p146
(dp147
g4
I5
sg5
I7
sba(iGenerate
Edge
p148
(dp149
g4
I7
sg5
I8
sba(iGenerate
Edge
p150
(dp151
g4
I8
sg5
I10
sba(iGenerate
Edge
p152
(dp153
g4
I10
sg5
I9
sba(iGenerate
Edge
p154
(dp155
g4
I9
sg5
I11
sba(iGenerate
Edge
p156
(dp157
g4
I11
sg5
I12
sba(iGenerate
Edge
p158
(dp159
g4
I12
sg5
I14
sba(iGenerate
Edge
p160
(dp161
g4
I14
sg5
I13
sba(iGenerate
Edge
p162
(dp163
g4
I13
sg5
I15
sba(iGenerate
Edge
p164
(dp165
g4
I15
sg5
I16
sba(iGenerate
Edge
p166
(dp167
g4
I16
sg5
I17
sba(iGenerate
Edge
p168
(dp169
g4
I17
sg5
I0
sbaa(lp170
(iGenerate
Edge
p171
(dp172
g4
I0
sg5
I3
sba(iGenerate
Edge
p173
(dp174
g4
I3
sg5
g8
(g12
S'\x06\x00\x00\x00'
p175
tp176
Rp177
sba(iGenerate
Edge
p178
(dp179
g4
g177
sg5
I1
sba(iGenerate
Edge
p180
(dp181
g4
I1
sg5
I4
sba(iGenerate
Edge
p182
(dp183
g4
I4
sg5
I2
sba(iGenerate
Edge
p184
(dp185
g4
I2
sg5
I5
sba(iGenerate
Edge
p186
(dp187
g4
I5
sg5
I7
sba(iGenerate
Edge
p188
(dp189
g4
I7
sg5
I8
sba(iGenerate
Edge
p190
(dp191
g4
I8
sg5
I10
sba(iGenerate
Edge
p192
(dp193
g4
I10
sg5
I9
sba(iGenerate
Edge
p194
(dp195
g4
I9
sg5
I11
sba(iGenerate
Edge
p196
(dp197
g4
I11
sg5
I12
sba(iGenerate
Edge
p198
(dp199
g4
I12
sg5
I14
sba(iGenerate
Edge
p200
(dp201
g4
I14
sg5
I13
sba(iGenerate
Edge
p202
(dp203
g4
I13
sg5
I15
sba(iGenerate
Edge
p204
(dp205
g4
I15
sg5
I16
sba(iGenerate
Edge
p206
(dp207
g4
I16
sg5
I17
sba(iGenerate
Edge
p208
(dp209
g4
I17
sg5
I0
sbaa(lp210
(iGenerate
Edge
p211
(dp212
g4
I0
sg5
I3
sba(iGenerate
Edge
p213
(dp214
g4
I3
sg5
g8
(g12
S'\x06\x00\x00\x00'
p215
tp216
Rp217
sba(iGenerate
Edge
p218
(dp219
g4
g217
sg5
I1
sba(iGenerate
Edge
p220
(dp221
g4
I1
sg5
I4
sba(iGenerate
Edge
p222
(dp223
g4
I4
sg5
I2
sba(iGenerate
Edge
p224
(dp225
g4
I2
sg5
I5
sba(iGenerate
Edge
p226
(dp227
g4
I5
sg5
I7
sba(iGenerate
Edge
p228
(dp229
g4
I7
sg5
I8
sba(iGenerate
Edge
p230
(dp231
g4
I8
sg5
I10
sba(iGenerate
Edge
p232
(dp233
g4
I10
sg5
I9
sba(iGenerate
Edge
p234
(dp235
g4
I9
sg5
I11
sba(iGenerate
Edge
p236
(dp237
g4
I11
sg5
I12
sba(iGenerate
Edge
p238
(dp239
g4
I12
sg5
I14
sba(iGenerate
Edge
p240
(dp241
g4
I14
sg5
I13
sba(iGenerate
Edge
p242
(dp243
g4
I13
sg5
I15
sba(iGenerate
Edge
p244
(dp245
g4
I15
sg5
I16
sba(iGenerate
Edge
p246
(dp247
g4
I16
sg5
I17
sba(iGenerate
Edge
p248
(dp249
g4
I17
sg5
I0
sbaa(lp250
(iGenerate
Edge
p251
(dp252
g4
I0
sg5
I3
sba(iGenerate
Edge
p253
(dp254
g4
I3
sg5
g8
(g12
S'\x06\x00\x00\x00'
p255
tp256
Rp257
sba(iGenerate
Edge
p258
(dp259
g4
g257
sg5
I1
sba(iGenerate
Edge
p260
(dp261
g4
I1
sg5
I4
sba(iGenerate
Edge
p262
(dp263
g4
I4
sg5
I2
sba(iGenerate
Edge
p264
(dp265
g4
I2
sg5
I5
sba(iGenerate
Edge
p266
(dp267
g4
I5
sg5
I7
sba(iGenerate
Edge
p268
(dp269
g4
I7
sg5
I8
sba(iGenerate
Edge
p270
(dp271
g4
I8
sg5
I10
sba(iGenerate
Edge
p272
(dp273
g4
I10
sg5
I9
sba(iGenerate
Edge
p274
(dp275
g4
I9
sg5
I11
sba(iGenerate
Edge
p276
(dp277
g4
I11
sg5
I12
sba(iGenerate
Edge
p278
(dp279
g4
I12
sg5
I14
sba(iGenerate
Edge
p280
(dp281
g4
I14
sg5
I13
sba(iGenerate
Edge
p282
(dp283
g4
I13
sg5
I15
sba(iGenerate
Edge
p284
(dp285
g4
I15
sg5
I16
sba(iGenerate
Edge
p286
(dp287
g4
I16
sg5
I17
sba(iGenerate
Edge
p288
(dp289
g4
I17
sg5
I0
sbaa(lp290
(iGenerate
Edge
p291
(dp292
g4
I0
sg5
I3
sba(iGenerate
Edge
p293
(dp294
g4
I3
sg5
g8
(g12
S'\x06\x00\x00\x00'
p295
tp296
Rp297
sba(iGenerate
Edge
p298
(dp299
g4
g297
sg5
I1
sba(iGenerate
Edge
p300
(dp301
g4
I1
sg5
I4
sba(iGenerate
Edge
p302
(dp303
g4
I4
sg5
I2
sba(iGenerate
Edge
p304
(dp305
g4
I2
sg5
I5
sba(iGenerate
Edge
p306
(dp307
g4
I5
sg5
I7
sba(iGenerate
Edge
p308
(dp309
g4
I7
sg5
I8
sba(iGenerate
Edge
p310
(dp311
g4
I8
sg5
I10
sba(iGenerate
Edge
p312
(dp313
g4
I10
sg5
I9
sba(iGenerate
Edge
p314
(dp315
g4
I9
sg5
I11
sba(iGenerate
Edge
p316
(dp317
g4
I11
sg5
I12
sba(iGenerate
Edge
p318
(dp319
g4
I12
sg5
I14
sba(iGenerate
Edge
p320
(dp321
g4
I14
sg5
I13
sba(iGenerate
Edge
p322
(dp323
g4
I13
sg5
I15
sba(iGenerate
Edge
p324
(dp325
g4
I15
sg5
I16
sba(iGenerate
Edge
p326
(dp327
g4
I16
sg5
I17
sba(iGenerate
Edge
p328
(dp329
g4
I17
sg5
I0
sbaa(lp330
(iGenerate
Edge
p331
(dp332
g4
I0
sg5
I3
sba(iGenerate
Edge
p333
(dp334
g4
I3
sg5
g8
(g12
S'\x06\x00\x00\x00'
p335
tp336
Rp337
sba(iGenerate
Edge
p338
(dp339
g4
g337
sg5
I1
sba(iGenerate
Edge
p340
(dp341
g4
I1
sg5
I4
sba(iGenerate
Edge
p342
(dp343
g4
I4
sg5
I2
sba(iGenerate
Edge
p344
(dp345
g4
I2
sg5
I5
sba(iGenerate
Edge
p346
(dp347
g4
I5
sg5
I7
sba(iGenerate
Edge
p348
(dp349
g4
I7
sg5
I8
sba(iGenerate
Edge
p350
(dp351
g4
I8
sg5
I10
sba(iGenerate
Edge
p352
(dp353
g4
I10
sg5
I9
sba(iGenerate
Edge
p354
(dp355
g4
I9
sg5
I11
sba(iGenerate
Edge
p356
(dp357
g4
I11
sg5
I12
sba(iGenerate
Edge
p358
(dp359
g4
I12
sg5
I14
sba(iGenerate
Edge
p360
(dp361
g4
I14
sg5
I13
sba(iGenerate
Edge
p362
(dp363
g4
I13
sg5
I15
sba(iGenerate
Edge
p364
(dp365
g4
I15
sg5
I16
sba(iGenerate
Edge
p366
(dp367
g4
I16
sg5
I17
sba(iGenerate
Edge
p368
(dp369
g4
I17
sg5
I0
sbaa(lp370
(iGenerate
Edge
p371
(dp372
g4
I0
sg5
I3
sba(iGenerate
Edge
p373
(dp374
g4
I3
sg5
g8
(g12
S'\x06\x00\x00\x00'
p375
tp376
Rp377
sba(iGenerate
Edge
p378
(dp379
g4
g377
sg5
I1
sba(iGenerate
Edge
p380
(dp381
g4
I1
sg5
I4
sba(iGenerate
Edge
p382
(dp383
g4
I4
sg5
I2
sba(iGenerate
Edge
p384
(dp385
g4
I2
sg5
I5
sba(iGenerate
Edge
p386
(dp387
g4
I5
sg5
I7
sba(iGenerate
Edge
p388
(dp389
g4
I7
sg5
I8
sba(iGenerate
Edge
p390
(dp391
g4
I8
sg5
I10
sba(iGenerate
Edge
p392
(dp393
g4
I10
sg5
I9
sba(iGenerate
Edge
p394
(dp395
g4
I9
sg5
I11
sba(iGenerate
Edge
p396
(dp397
g4
I11
sg5
I12
sba(iGenerate
Edge
p398
(dp399
g4
I12
sg5
I14
sba(iGenerate
Edge
p400
(dp401
g4
I14
sg5
I13
sba(iGenerate
Edge
p402
(dp403
g4
I13
sg5
I15
sba(iGenerate
Edge
p404
(dp405
g4
I15
sg5
I16
sba(iGenerate
Edge
p406
(dp407
g4
I16
sg5
I17
sba(iGenerate
Edge
p408
(dp409
g4
I17
sg5
I0
sbaa(lp410
(iGenerate
Edge
p411
(dp412
g4
I0
sg5
I3
sba(iGenerate
Edge
p413
(dp414
g4
I3
sg5
g8
(g12
S'\x06\x00\x00\x00'
p415
tp416
Rp417
sba(iGenerate
Edge
p418
(dp419
g4
g417
sg5
I1
sba(iGenerate
Edge
p420
(dp421
g4
I1
sg5
I4
sba(iGenerate
Edge
p422
(dp423
g4
I4
sg5
I2
sba(iGenerate
Edge
p424
(dp425
g4
I2
sg5
I5
sba(iGenerate
Edge
p426
(dp427
g4
I5
sg5
I7
sba(iGenerate
Edge
p428
(dp429
g4
I7
sg5
I8
sba(iGenerate
Edge
p430
(dp431
g4
I8
sg5
I10
sba(iGenerate
Edge
p432
(dp433
g4
I10
sg5
I9
sba(iGenerate
Edge
p434
(dp435
g4
I9
sg5
I11
sba(iGenerate
Edge
p436
(dp437
g4
I11
sg5
I12
sba(iGenerate
Edge
p438
(dp439
g4
I12
sg5
I14
sba(iGenerate
Edge
p440
(dp441
g4
I14
sg5
I13
sba(iGenerate
Edge
p442
(dp443
g4
I13
sg5
I15
sba(iGenerate
Edge
p444
(dp445
g4
I15
sg5
I16
sba(iGenerate
Edge
p446
(dp447
g4
I16
sg5
I17
sba(iGenerate
Edge
p448
(dp449
g4
I17
sg5
I0
sbaa(lp450
(iGenerate
Edge
p451
(dp452
g4
I0
sg5
I3
sba(iGenerate
Edge
p453
(dp454
g4
I3
sg5
g8
(g12
S'\x06\x00\x00\x00'
p455
tp456
Rp457
sba(iGenerate
Edge
p458
(dp459
g4
g457
sg5
I1
sba(iGenerate
Edge
p460
(dp461
g4
I1
sg5
I4
sba(iGenerate
Edge
p462
(dp463
g4
I4
sg5
I2
sba(iGenerate
Edge
p464
(dp465
g4
I2
sg5
I5
sba(iGenerate
Edge
p466
(dp467
g4
I5
sg5
I7
sba(iGenerate
Edge
p468
(dp469
g4
I7
sg5
I8
sba(iGenerate
Edge
p470
(dp471
g4
I8
sg5
I10
sba(iGenerate
Edge
p472
(dp473
g4
I10
sg5
I9
sba(iGenerate
Edge
p474
(dp475
g4
I9
sg5
I11
sba(iGenerate
Edge
p476
(dp477
g4
I11
sg5
I12
sba(iGenerate
Edge
p478
(dp479
g4
I12
sg5
I14
sba(iGenerate
Edge
p480
(dp481
g4
I14
sg5
I13
sba(iGenerate
Edge
p482
(dp483
g4
I13
sg5
I15
sba(iGenerate
Edge
p484
(dp485
g4
I15
sg5
I16
sba(iGenerate
Edge
p486
(dp487
g4
I16
sg5
I17
sba(iGenerate
Edge
p488
(dp489
g4
I17
sg5
I0
sbaa(lp490
(iGenerate
Edge
p491
(dp492
g4
I0
sg5
I3
sba(iGenerate
Edge
p493
(dp494
g4
I3
sg5
g8
(g12
S'\x06\x00\x00\x00'
p495
tp496
Rp497
sba(iGenerate
Edge
p498
(dp499
g4
g497
sg5
I1
sba(iGenerate
Edge
p500
(dp501
g4
I1
sg5
I4
sba(iGenerate
Edge
p502
(dp503
g4
I4
sg5
I2
sba(iGenerate
Edge
p504
(dp505
g4
I2
sg5
I5
sba(iGenerate
Edge
p506
(dp507
g4
I5
sg5
I7
sba(iGenerate
Edge
p508
(dp509
g4
I7
sg5
I8
sba(iGenerate
Edge
p510
(dp511
g4
I8
sg5
I10
sba(iGenerate
Edge
p512
(dp513
g4
I10
sg5
I9
sba(iGenerate
Edge
p514
(dp515
g4
I9
sg5
I11
sba(iGenerate
Edge
p516
(dp517
g4
I11
sg5
I12
sba(iGenerate
Edge
p518
(dp519
g4
I12
sg5
I14
sba(iGenerate
Edge
p520
(dp521
g4
I14
sg5
I13
sba(iGenerate
Edge
p522
(dp523
g4
I13
sg5
I15
sba(iGenerate
Edge
p524
(dp525
g4
I15
sg5
I16
sba(iGenerate
Edge
p526
(dp527
g4
I16
sg5
I17
sba(iGenerate
Edge
p528
(dp529
g4
I17
sg5
I0
sbaa(lp530
(iGenerate
Edge
p531
(dp532
g4
I0
sg5
I3
sba(iGenerate
Edge
p533
(dp534
g4
I3
sg5
g8
(g12
S'\x06\x00\x00\x00'
p535
tp536
Rp537
sba(iGenerate
Edge
p538
(dp539
g4
g537
sg5
I1
sba(iGenerate
Edge
p540
(dp541
g4
I1
sg5
I4
sba(iGenerate
Edge
p542
(dp543
g4
I4
sg5
I2
sba(iGenerate
Edge
p544
(dp545
g4
I2
sg5
I5
sba(iGenerate
Edge
p546
(dp547
g4
I5
sg5
I7
sba(iGenerate
Edge
p548
(dp549
g4
I7
sg5
I8
sba(iGenerate
Edge
p550
(dp551
g4
I8
sg5
I10
sba(iGenerate
Edge
p552
(dp553
g4
I10
sg5
I9
sba(iGenerate
Edge
p554
(dp555
g4
I9
sg5
I11
sba(iGenerate
Edge
p556
(dp557
g4
I11
sg5
I12
sba(iGenerate
Edge
p558
(dp559
g4
I12
sg5
I14
sba(iGenerate
Edge
p560
(dp561
g4
I14
sg5
I13
sba(iGenerate
Edge
p562
(dp563
g4
I13
sg5
I15
sba(iGenerate
Edge
p564
(dp565
g4
I15
sg5
I16
sba(iGenerate
Edge
p566
(dp567
g4
I16
sg5
I17
sba(iGenerate
Edge
p568
(dp569
g4
I17
sg5
I0
sbaa(lp570
(iGenerate
Edge
p571
(dp572
g4
I0
sg5
I3
sba(iGenerate
Edge
p573
(dp574
g4
I3
sg5
g8
(g12
S'\x06\x00\x00\x00'
p575
tp576
Rp577
sba(iGenerate
Edge
p578
(dp579
g4
g577
sg5
I1
sba(iGenerate
Edge
p580
(dp581
g4
I1
sg5
I4
sba(iGenerate
Edge
p582
(dp583
g4
I4
sg5
I2
sba(iGenerate
Edge
p584
(dp585
g4
I2
sg5
I5
sba(iGenerate
Edge
p586
(dp587
g4
I5
sg5
I7
sba(iGenerate
Edge
p588
(dp589
g4
I7
sg5
I8
sba(iGenerate
Edge
p590
(dp591
g4
I8
sg5
I10
sba(iGenerate
Edge
p592
(dp593
g4
I10
sg5
I9
sba(iGenerate
Edge
p594
(dp595
g4
I9
sg5
I11
sba(iGenerate
Edge
p596
(dp597
g4
I11
sg5
I12
sba(iGenerate
Edge
p598
(dp599
g4
I12
sg5
I14
sba(iGenerate
Edge
p600
(dp601
g4
I14
sg5
I13
sba(iGenerate
Edge
p602
(dp603
g4
I13
sg5
I15
sba(iGenerate
Edge
p604
(dp605
g4
I15
sg5
I16
sba(iGenerate
Edge
p606
(dp607
g4
I16
sg5
I17
sba(iGenerate
Edge
p608
(dp609
g4
I17
sg5
I0
sbaa(lp610
(iGenerate
Edge
p611
(dp612
g4
I0
sg5
I3
sba(iGenerate
Edge
p613
(dp614
g4
I3
sg5
g8
(g12
S'\x06\x00\x00\x00'
p615
tp616
Rp617
sba(iGenerate
Edge
p618
(dp619
g4
g617
sg5
I1
sba(iGenerate
Edge
p620
(dp621
g4
I1
sg5
I4
sba(iGenerate
Edge
p622
(dp623
g4
I4
sg5
I2
sba(iGenerate
Edge
p624
(dp625
g4
I2
sg5
I5
sba(iGenerate
Edge
p626
(dp627
g4
I5
sg5
I7
sba(iGenerate
Edge
p628
(dp629
g4
I7
sg5
I8
sba(iGenerate
Edge
p630
(dp631
g4
I8
sg5
I10
sba(iGenerate
Edge
p632
(dp633
g4
I10
sg5
I9
sba(iGenerate
Edge
p634
(dp635
g4
I9
sg5
I11
sba(iGenerate
Edge
p636
(dp637
g4
I11
sg5
I12
sba(iGenerate
Edge
p638
(dp639
g4
I12
sg5
I14
sba(iGenerate
Edge
p640
(dp641
g4
I14
sg5
I13
sba(iGenerate
Edge
p642
(dp643
g4
I13
sg5
I15
sba(iGenerate
Edge
p644
(dp645
g4
I15
sg5
I16
sba(iGenerate
Edge
p646
(dp647
g4
I16
sg5
I17
sba(iGenerate
Edge
p648
(dp649
g4
I17
sg5
I0
sbaa(lp650
(iGenerate
Edge
p651
(dp652
g4
I0
sg5
I3
sba(iGenerate
Edge
p653
(dp654
g4
I3
sg5
g8
(g12
S'\x06\x00\x00\x00'
p655
tp656
Rp657
sba(iGenerate
Edge
p658
(dp659
g4
g657
sg5
I1
sba(iGenerate
Edge
p660
(dp661
g4
I1
sg5
I4
sba(iGenerate
Edge
p662
(dp663
g4
I4
sg5
I2
sba(iGenerate
Edge
p664
(dp665
g4
I2
sg5
I5
sba(iGenerate
Edge
p666
(dp667
g4
I5
sg5
I7
sba(iGenerate
Edge
p668
(dp669
g4
I7
sg5
I8
sba(iGenerate
Edge
p670
(dp671
g4
I8
sg5
I10
sba(iGenerate
Edge
p672
(dp673
g4
I10
sg5
I9
sba(iGenerate
Edge
p674
(dp675
g4
I9
sg5
I11
sba(iGenerate
Edge
p676
(dp677
g4
I11
sg5
I12
sba(iGenerate
Edge
p678
(dp679
g4
I12
sg5
I14
sba(iGenerate
Edge
p680
(dp681
g4
I14
sg5
I13
sba(iGenerate
Edge
p682
(dp683
g4
I13
sg5
I15
sba(iGenerate
Edge
p684
(dp685
g4
I15
sg5
I16
sba(iGenerate
Edge
p686
(dp687
g4
I16
sg5
I17
sba(iGenerate
Edge
p688
(dp689
g4
I17
sg5
I0
sbaa(lp690
(iGenerate
Edge
p691
(dp692
g4
I0
sg5
I3
sba(iGenerate
Edge
p693
(dp694
g4
I3
sg5
g8
(g12
S'\x06\x00\x00\x00'
p695
tp696
Rp697
sba(iGenerate
Edge
p698
(dp699
g4
g697
sg5
I1
sba(iGenerate
Edge
p700
(dp701
g4
I1
sg5
I4
sba(iGenerate
Edge
p702
(dp703
g4
I4
sg5
I2
sba(iGenerate
Edge
p704
(dp705
g4
I2
sg5
I5
sba(iGenerate
Edge
p706
(dp707
g4
I5
sg5
I7
sba(iGenerate
Edge
p708
(dp709
g4
I7
sg5
I8
sba(iGenerate
Edge
p710
(dp711
g4
I8
sg5
I10
sba(iGenerate
Edge
p712
(dp713
g4
I10
sg5
I9
sba(iGenerate
Edge
p714
(dp715
g4
I9
sg5
I11
sba(iGenerate
Edge
p716
(dp717
g4
I11
sg5
I12
sba(iGenerate
Edge
p718
(dp719
g4
I12
sg5
I14
sba(iGenerate
Edge
p720
(dp721
g4
I14
sg5
I13
sba(iGenerate
Edge
p722
(dp723
g4
I13
sg5
I15
sba(iGenerate
Edge
p724
(dp725
g4
I15
sg5
I16
sba(iGenerate
Edge
p726
(dp727
g4
I16
sg5
I17
sba(iGenerate
Edge
p728
(dp729
g4
I17
sg5
I0
sbaa(lp730
(iGenerate
Edge
p731
(dp732
g4
I0
sg5
I3
sba(iGenerate
Edge
p733
(dp734
g4
I3
sg5
g8
(g12
S'\x06\x00\x00\x00'
p735
tp736
Rp737
sba(iGenerate
Edge
p738
(dp739
g4
g737
sg5
I1
sba(iGenerate
Edge
p740
(dp741
g4
I1
sg5
I4
sba(iGenerate
Edge
p742
(dp743
g4
I4
sg5
I2
sba(iGenerate
Edge
p744
(dp745
g4
I2
sg5
I5
sba(iGenerate
Edge
p746
(dp747
g4
I5
sg5
I7
sba(iGenerate
Edge
p748
(dp749
g4
I7
sg5
I8
sba(iGenerate
Edge
p750
(dp751
g4
I8
sg5
I10
sba(iGenerate
Edge
p752
(dp753
g4
I10
sg5
I9
sba(iGenerate
Edge
p754
(dp755
g4
I9
sg5
I11
sba(iGenerate
Edge
p756
(dp757
g4
I11
sg5
I12
sba(iGenerate
Edge
p758
(dp759
g4
I12
sg5
I14
sba(iGenerate
Edge
p760
(dp761
g4
I14
sg5
I13
sba(iGenerate
Edge
p762
(dp763
g4
I13
sg5
I15
sba(iGenerate
Edge
p764
(dp765
g4
I15
sg5
I16
sba(iGenerate
Edge
p766
(dp767
g4
I16
sg5
I17
sba(iGenerate
Edge
p768
(dp769
g4
I17
sg5
I0
sbaa(lp770
(iGenerate
Edge
p771
(dp772
g4
I0
sg5
I3
sba(iGenerate
Edge
p773
(dp774
g4
I3
sg5
g8
(g12
S'\x06\x00\x00\x00'
p775
tp776
Rp777
sba(iGenerate
Edge
p778
(dp779
g4
g777
sg5
I1
sba(iGenerate
Edge
p780
(dp781
g4
I1
sg5
I4
sba(iGenerate
Edge
p782
(dp783
g4
I4
sg5
I2
sba(iGenerate
Edge
p784
(dp785
g4
I2
sg5
I5
sba(iGenerate
Edge
p786
(dp787
g4
I5
sg5
I7
sba(iGenerate
Edge
p788
(dp789
g4
I7
sg5
I8
sba(iGenerate
Edge
p790
(dp791
g4
I8
sg5
I10
sba(iGenerate
Edge
p792
(dp793
g4
I10
sg5
I9
sba(iGenerate
Edge
p794
(dp795
g4
I9
sg5
I11
sba(iGenerate
Edge
p796
(dp797
g4
I11
sg5
I12
sba(iGenerate
Edge
p798
(dp799
g4
I12
sg5
I14
sba(iGenerate
Edge
p800
(dp801
g4
I14
sg5
I13
sba(iGenerate
Edge
p802
(dp803
g4
I13
sg5
I15
sba(iGenerate
Edge
p804
(dp805
g4
I15
sg5
I16
sba(iGenerate
Edge
p806
(dp807
g4
I16
sg5
I17
sba(iGenerate
Edge
p808
(dp809
g4
I17
sg5
I0
sbaa(lp810
(iGenerate
Edge
p811
(dp812
g4
I0
sg5
I3
sba(iGenerate
Edge
p813
(dp814
g4
I3
sg5
g8
(g12
S'\x06\x00\x00\x00'
p815
tp816
Rp817
sba(iGenerate
Edge
p818
(dp819
g4
g817
sg5
I1
sba(iGenerate
Edge
p820
(dp821
g4
I1
sg5
I4
sba(iGenerate
Edge
p822
(dp823
g4
I4
sg5
I2
sba(iGenerate
Edge
p824
(dp825
g4
I2
sg5
I5
sba(iGenerate
Edge
p826
(dp827
g4
I5
sg5
I7
sba(iGenerate
Edge
p828
(dp829
g4
I7
sg5
I8
sba(iGenerate
Edge
p830
(dp831
g4
I8
sg5
I10
sba(iGenerate
Edge
p832
(dp833
g4
I10
sg5
I9
sba(iGenerate
Edge
p834
(dp835
g4
I9
sg5
I11
sba(iGenerate
Edge
p836
(dp837
g4
I11
sg5
I12
sba(iGenerate
Edge
p838
(dp839
g4
I12
sg5
I14
sba(iGenerate
Edge
p840
(dp841
g4
I14
sg5
I13
sba(iGenerate
Edge
p842
(dp843
g4
I13
sg5
I15
sba(iGenerate
Edge
p844
(dp845
g4
I15
sg5
I16
sba(iGenerate
Edge
p846
(dp847
g4
I16
sg5
I17
sba(iGenerate
Edge
p848
(dp849
g4
I17
sg5
I0
sbaa(lp850
(iGenerate
Edge
p851
(dp852
g4
I0
sg5
I3
sba(iGenerate
Edge
p853
(dp854
g4
I3
sg5
g8
(g12
S'\x06\x00\x00\x00'
p855
tp856
Rp857
sba(iGenerate
Edge
p858
(dp859
g4
g857
sg5
I1
sba(iGenerate
Edge
p860
(dp861
g4
I1
sg5
I4
sba(iGenerate
Edge
p862
(dp863
g4
I4
sg5
I2
sba(iGenerate
Edge
p864
(dp865
g4
I2
sg5
I5
sba(iGenerate
Edge
p866
(dp867
g4
I5
sg5
I7
sba(iGenerate
Edge
p868
(dp869
g4
I7
sg5
I8
sba(iGenerate
Edge
p870
(dp871
g4
I8
sg5
I10
sba(iGenerate
Edge
p872
(dp873
g4
I10
sg5
I9
sba(iGenerate
Edge
p874
(dp875
g4
I9
sg5
I11
sba(iGenerate
Edge
p876
(dp877
g4
I11
sg5
I12
sba(iGenerate
Edge
p878
(dp879
g4
I12
sg5
I14
sba(iGenerate
Edge
p880
(dp881
g4
I14
sg5
I13
sba(iGenerate
Edge
p882
(dp883
g4
I13
sg5
I15
sba(iGenerate
Edge
p884
(dp885
g4
I15
sg5
I16
sba(iGenerate
Edge
p886
(dp887
g4
I16
sg5
I17
sba(iGenerate
Edge
p888
(dp889
g4
I17
sg5
I0
sbaa(lp890
(iGenerate
Edge
p891
(dp892
g4
I0
sg5
I3
sba(iGenerate
Edge
p893
(dp894
g4
I3
sg5
g8
(g12
S'\x06\x00\x00\x00'
p895
tp896
Rp897
sba(iGenerate
Edge
p898
(dp899
g4
g897
sg5
I1
sba(iGenerate
Edge
p900
(dp901
g4
I1
sg5
I4
sba(iGenerate
Edge
p902
(dp903
g4
I4
sg5
I2
sba(iGenerate
Edge
p904
(dp905
g4
I2
sg5
I5
sba(iGenerate
Edge
p906
(dp907
g4
I5
sg5
I7
sba(iGenerate
Edge
p908
(dp909
g4
I7
sg5
I8
sba(iGenerate
Edge
p910
(dp911
g4
I8
sg5
I10
sba(iGenerate
Edge
p912
(dp913
g4
I10
sg5
I9
sba(iGenerate
Edge
p914
(dp915
g4
I9
sg5
I11
sba(iGenerate
Edge
p916
(dp917
g4
I11
sg5
I12
sba(iGenerate
Edge
p918
(dp919
g4
I12
sg5
I14
sba(iGenerate
Edge
p920
(dp921
g4
I14
sg5
I13
sba(iGenerate
Edge
p922
(dp923
g4
I13
sg5
I15
sba(iGenerate
Edge
p924
(dp925
g4
I15
sg5
I16
sba(iGenerate
Edge
p926
(dp927
g4
I16
sg5
I17
sba(iGenerate
Edge
p928
(dp929
g4
I17
sg5
I0
sbaa(lp930
(iGenerate
Edge
p931
(dp932
g4
I0
sg5
I3
sba(iGenerate
Edge
p933
(dp934
g4
I3
sg5
g8
(g12
S'\x06\x00\x00\x00'
p935
tp936
Rp937
sba(iGenerate
Edge
p938
(dp939
g4
g937
sg5
I1
sba(iGenerate
Edge
p940
(dp941
g4
I1
sg5
I4
sba(iGenerate
Edge
p942
(dp943
g4
I4
sg5
I2
sba(iGenerate
Edge
p944
(dp945
g4
I2
sg5
I5
sba(iGenerate
Edge
p946
(dp947
g4
I5
sg5
I7
sba(iGenerate
Edge
p948
(dp949
g4
I7
sg5
I8
sba(iGenerate
Edge
p950
(dp951
g4
I8
sg5
I10
sba(iGenerate
Edge
p952
(dp953
g4
I10
sg5
I9
sba(iGenerate
Edge
p954
(dp955
g4
I9
sg5
I11
sba(iGenerate
Edge
p956
(dp957
g4
I11
sg5
I12
sba(iGenerate
Edge
p958
(dp959
g4
I12
sg5
I14
sba(iGenerate
Edge
p960
(dp961
g4
I14
sg5
I13
sba(iGenerate
Edge
p962
(dp963
g4
I13
sg5
I15
sba(iGenerate
Edge
p964
(dp965
g4
I15
sg5
I16
sba(iGenerate
Edge
p966
(dp967
g4
I16
sg5
I17
sba(iGenerate
Edge
p968
(dp969
g4
I17
sg5
I0
sbaa(lp970
(iGenerate
Edge
p971
(dp972
g4
I0
sg5
I3
sba(iGenerate
Edge
p973
(dp974
g4
I3
sg5
g8
(g12
S'\x06\x00\x00\x00'
p975
tp976
Rp977
sba(iGenerate
Edge
p978
(dp979
g4
g977
sg5
I1
sba(iGenerate
Edge
p980
(dp981
g4
I1
sg5
I4
sba(iGenerate
Edge
p982
(dp983
g4
I4
sg5
I2
sba(iGenerate
Edge
p984
(dp985
g4
I2
sg5
I5
sba(iGenerate
Edge
p986
(dp987
g4
I5
sg5
I7
sba(iGenerate
Edge
p988
(dp989
g4
I7
sg5
I8
sba(iGenerate
Edge
p990
(dp991
g4
I8
sg5
I10
sba(iGenerate
Edge
p992
(dp993
g4
I10
sg5
I9
sba(iGenerate
Edge
p994
(dp995
g4
I9
sg5
I11
sba(iGenerate
Edge
p996
(dp997
g4
I11
sg5
I12
sba(iGenerate
Edge
p998
(dp999
g4
I12
sg5
I14
sba(iGenerate
Edge
p1000
(dp1001
g4
I14
sg5
I13
sba(iGenerate
Edge
p1002
(dp1003
g4
I13
sg5
I15
sba(iGenerate
Edge
p1004
(dp1005
g4
I15
sg5
I16
sba(iGenerate
Edge
p1006
(dp1007
g4
I16
sg5
I17
sba(iGenerate
Edge
p1008
(dp1009
g4
I17
sg5
I0
sbaa(lp1010
(iGenerate
Edge
p1011
(dp1012
g4
I0
sg5
I3
sba(iGenerate
Edge
p1013
(dp1014
g4
I3
sg5
g8
(g12
S'\x06\x00\x00\x00'
p1015
tp1016
Rp1017
sba(iGenerate
Edge
p1018
(dp1019
g4
g1017
sg5
I1
sba(iGenerate
Edge
p1020
(dp1021
g4
I1
sg5
I4
sba(iGenerate
Edge
p1022
(dp1023
g4
I4
sg5
I2
sba(iGenerate
Edge
p1024
(dp1025
g4
I2
sg5
I5
sba(iGenerate
Edge
p1026
(dp1027
g4
I5
sg5
I7
sba(iGenerate
Edge
p1028
(dp1029
g4
I7
sg5
I8
sba(iGenerate
Edge
p1030
(dp1031
g4
I8
sg5
I10
sba(iGenerate
Edge
p1032
(dp1033
g4
I10
sg5
I9
sba(iGenerate
Edge
p1034
(dp1035
g4
I9
sg5
I11
sba(iGenerate
Edge
p1036
(dp1037
g4
I11
sg5
I12
sba(iGenerate
Edge
p1038
(dp1039
g4
I12
sg5
I14
sba(iGenerate
Edge
p1040
(dp1041
g4
I14
sg5
I13
sba(iGenerate
Edge
p1042
(dp1043
g4
I13
sg5
I15
sba(iGenerate
Edge
p1044
(dp1045
g4
I15
sg5
I16
sba(iGenerate
Edge
p1046
(dp1047
g4
I16
sg5
I17
sba(iGenerate
Edge
p1048
(dp1049
g4
I17
sg5
I0
sbaa(lp1050
(iGenerate
Edge
p1051
(dp1052
g4
I0
sg5
I3
sba(iGenerate
Edge
p1053
(dp1054
g4
I3
sg5
g8
(g12
S'\x06\x00\x00\x00'
p1055
tp1056
Rp1057
sba(iGenerate
Edge
p1058
(dp1059
g4
g1057
sg5
I1
sba(iGenerate
Edge
p1060
(dp1061
g4
I1
sg5
I4
sba(iGenerate
Edge
p1062
(dp1063
g4
I4
sg5
I2
sba(iGenerate
Edge
p1064
(dp1065
g4
I2
sg5
I5
sba(iGenerate
Edge
p1066
(dp1067
g4
I5
sg5
I7
sba(iGenerate
Edge
p1068
(dp1069
g4
I7
sg5
I8
sba(iGenerate
Edge
p1070
(dp1071
g4
I8
sg5
I10
sba(iGenerate
Edge
p1072
(dp1073
g4
I10
sg5
I9
sba(iGenerate
Edge
p1074
(dp1075
g4
I9
sg5
I11
sba(iGenerate
Edge
p1076
(dp1077
g4
I11
sg5
I12
sba(iGenerate
Edge
p1078
(dp1079
g4
I12
sg5
I14
sba(iGenerate
Edge
p1080
(dp1081
g4
I14
sg5
I13
sba(iGenerate
Edge
p1082
(dp1083
g4
I13
sg5
I15
sba(iGenerate
Edge
p1084
(dp1085
g4
I15
sg5
I16
sba(iGenerate
Edge
p1086
(dp1087
g4
I16
sg5
I17
sba(iGenerate
Edge
p1088
(dp1089
g4
I17
sg5
I0
sbaa(lp1090
(iGenerate
Edge
p1091
(dp1092
g4
I0
sg5
I3
sba(iGenerate
Edge
p1093
(dp1094
g4
I3
sg5
g8
(g12
S'\x06\x00\x00\x00'
p1095
tp1096
Rp1097
sba(iGenerate
Edge
p1098
(dp1099
g4
g1097
sg5
I1
sba(iGenerate
Edge
p1100
(dp1101
g4
I1
sg5
I4
sba(iGenerate
Edge
p1102
(dp1103
g4
I4
sg5
I2
sba(iGenerate
Edge
p1104
(dp1105
g4
I2
sg5
I5
sba(iGenerate
Edge
p1106
(dp1107
g4
I5
sg5
I7
sba(iGenerate
Edge
p1108
(dp1109
g4
I7
sg5
I8
sba(iGenerate
Edge
p1110
(dp1111
g4
I8
sg5
I10
sba(iGenerate
Edge
p1112
(dp1113
g4
I10
sg5
I9
sba(iGenerate
Edge
p1114
(dp1115
g4
I9
sg5
I11
sba(iGenerate
Edge
p1116
(dp1117
g4
I11
sg5
I12
sba(iGenerate
Edge
p1118
(dp1119
g4
I12
sg5
I14
sba(iGenerate
Edge
p1120
(dp1121
g4
I14
sg5
I13
sba(iGenerate
Edge
p1122
(dp1123
g4
I13
sg5
I15
sba(iGenerate
Edge
p1124
(dp1125
g4
I15
sg5
I16
sba(iGenerate
Edge
p1126
(dp1127
g4
I16
sg5
I17
sba(iGenerate
Edge
p1128
(dp1129
g4
I17
sg5
I0
sbaa(lp1130
(iGenerate
Edge
p1131
(dp1132
g4
I0
sg5
I3
sba(iGenerate
Edge
p1133
(dp1134
g4
I3
sg5
g8
(g12
S'\x06\x00\x00\x00'
p1135
tp1136
Rp1137
sba(iGenerate
Edge
p1138
(dp1139
g4
g1137
sg5
I1
sba(iGenerate
Edge
p1140
(dp1141
g4
I1
sg5
I4
sba(iGenerate
Edge
p1142
(dp1143
g4
I4
sg5
I2
sba(iGenerate
Edge
p1144
(dp1145
g4
I2
sg5
I5
sba(iGenerate
Edge
p1146
(dp1147
g4
I5
sg5
I7
sba(iGenerate
Edge
p1148
(dp1149
g4
I7
sg5
I8
sba(iGenerate
Edge
p1150
(dp1151
g4
I8
sg5
I10
sba(iGenerate
Edge
p1152
(dp1153
g4
I10
sg5
I9
sba(iGenerate
Edge
p1154
(dp1155
g4
I9
sg5
I11
sba(iGenerate
Edge
p1156
(dp1157
g4
I11
sg5
I12
sba(iGenerate
Edge
p1158
(dp1159
g4
I12
sg5
I14
sba(iGenerate
Edge
p1160
(dp1161
g4
I14
sg5
I13
sba(iGenerate
Edge
p1162
(dp1163
g4
I13
sg5
I15
sba(iGenerate
Edge
p1164
(dp1165
g4
I15
sg5
I16
sba(iGenerate
Edge
p1166
(dp1167
g4
I16
sg5
I17
sba(iGenerate
Edge
p1168
(dp1169
g4
I17
sg5
I0
sbaa(lp1170
(iGenerate
Edge
p1171
(dp1172
g4
I0
sg5
I3
sba(iGenerate
Edge
p1173
(dp1174
g4
I3
sg5
g8
(g12
S'\x06\x00\x00\x00'
p1175
tp1176
Rp1177
sba(iGenerate
Edge
p1178
(dp1179
g4
g1177
sg5
I1
sba(iGenerate
Edge
p1180
(dp1181
g4
I1
sg5
I4
sba(iGenerate
Edge
p1182
(dp1183
g4
I4
sg5
I2
sba(iGenerate
Edge
p1184
(dp1185
g4
I2
sg5
I5
sba(iGenerate
Edge
p1186
(dp1187
g4
I5
sg5
I7
sba(iGenerate
Edge
p1188
(dp1189
g4
I7
sg5
I8
sba(iGenerate
Edge
p1190
(dp1191
g4
I8
sg5
I10
sba(iGenerate
Edge
p1192
(dp1193
g4
I10
sg5
I9
sba(iGenerate
Edge
p1194
(dp1195
g4
I9
sg5
I11
sba(iGenerate
Edge
p1196
(dp1197
g4
I11
sg5
I12
sba(iGenerate
Edge
p1198
(dp1199
g4
I12
sg5
I14
sba(iGenerate
Edge
p1200
(dp1201
g4
I14
sg5
I13
sba(iGenerate
Edge
p1202
(dp1203
g4
I13
sg5
I15
sba(iGenerate
Edge
p1204
(dp1205
g4
I15
sg5
I16
sba(iGenerate
Edge
p1206
(dp1207
g4
I16
sg5
I17
sba(iGenerate
Edge
p1208
(dp1209
g4
I17
sg5
I0
sbaa(lp1210
(iGenerate
Edge
p1211
(dp1212
g4
I0
sg5
I3
sba(iGenerate
Edge
p1213
(dp1214
g4
I3
sg5
g8
(g12
S'\x06\x00\x00\x00'
p1215
tp1216
Rp1217
sba(iGenerate
Edge
p1218
(dp1219
g4
g1217
sg5
I1
sba(iGenerate
Edge
p1220
(dp1221
g4
I1
sg5
I4
sba(iGenerate
Edge
p1222
(dp1223
g4
I4
sg5
I2
sba(iGenerate
Edge
p1224
(dp1225
g4
I2
sg5
I5
sba(iGenerate
Edge
p1226
(dp1227
g4
I5
sg5
I7
sba(iGenerate
Edge
p1228
(dp1229
g4
I7
sg5
I8
sba(iGenerate
Edge
p1230
(dp1231
g4
I8
sg5
I10
sba(iGenerate
Edge
p1232
(dp1233
g4
I10
sg5
I9
sba(iGenerate
Edge
p1234
(dp1235
g4
I9
sg5
I11
sba(iGenerate
Edge
p1236
(dp1237
g4
I11
sg5
I12
sba(iGenerate
Edge
p1238
(dp1239
g4
I12
sg5
I14
sba(iGenerate
Edge
p1240
(dp1241
g4
I14
sg5
I13
sba(iGenerate
Edge
p1242
(dp1243
g4
I13
sg5
I15
sba(iGenerate
Edge
p1244
(dp1245
g4
I15
sg5
I16
sba(iGenerate
Edge
p1246
(dp1247
g4
I16
sg5
I17
sba(iGenerate
Edge
p1248
(dp1249
g4
I17
sg5
I0
sbaa(lp1250
(iGenerate
Edge
p1251
(dp1252
g4
I0
sg5
I3
sba(iGenerate
Edge
p1253
(dp1254
g4
I3
sg5
g8
(g12
S'\x06\x00\x00\x00'
p1255
tp1256
Rp1257
sba(iGenerate
Edge
p1258
(dp1259
g4
g1257
sg5
I1
sba(iGenerate
Edge
p1260
(dp1261
g4
I1
sg5
I4
sba(iGenerate
Edge
p1262
(dp1263
g4
I4
sg5
I2
sba(iGenerate
Edge
p1264
(dp1265
g4
I2
sg5
I5
sba(iGenerate
Edge
p1266
(dp1267
g4
I5
sg5
I7
sba(iGenerate
Edge
p1268
(dp1269
g4
I7
sg5
I8
sba(iGenerate
Edge
p1270
(dp1271
g4
I8
sg5
I10
sba(iGenerate
Edge
p1272
(dp1273
g4
I10
sg5
I9
sba(iGenerate
Edge
p1274
(dp1275
g4
I9
sg5
I11
sba(iGenerate
Edge
p1276
(dp1277
g4
I11
sg5
I12
sba(iGenerate
Edge
p1278
(dp1279
g4
I12
sg5
I14
sba(iGenerate
Edge
p1280
(dp1281
g4
I14
sg5
I13
sba(iGenerate
Edge
p1282
(dp1283
g4
I13
sg5
I15
sba(iGenerate
Edge
p1284
(dp1285
g4
I15
sg5
I16
sba(iGenerate
Edge
p1286
(dp1287
g4
I16
sg5
I17
sba(iGenerate
Edge
p1288
(dp1289
g4
I17
sg5
I0
sbaa(lp1290
(iGenerate
Edge
p1291
(dp1292
g4
I0
sg5
I3
sba(iGenerate
Edge
p1293
(dp1294
g4
I3
sg5
g8
(g12
S'\x06\x00\x00\x00'
p1295
tp1296
Rp1297
sba(iGenerate
Edge
p1298
(dp1299
g4
g1297
sg5
I1
sba(iGenerate
Edge
p1300
(dp1301
g4
I1
sg5
I4
sba(iGenerate
Edge
p1302
(dp1303
g4
I4
sg5
I2
sba(iGenerate
Edge
p1304
(dp1305
g4
I2
sg5
I5
sba(iGenerate
Edge
p1306
(dp1307
g4
I5
sg5
I7
sba(iGenerate
Edge
p1308
(dp1309
g4
I7
sg5
I8
sba(iGenerate
Edge
p1310
(dp1311
g4
I8
sg5
I10
sba(iGenerate
Edge
p1312
(dp1313
g4
I10
sg5
I9
sba(iGenerate
Edge
p1314
(dp1315
g4
I9
sg5
I11
sba(iGenerate
Edge
p1316
(dp1317
g4
I11
sg5
I12
sba(iGenerate
Edge
p1318
(dp1319
g4
I12
sg5
I14
sba(iGenerate
Edge
p1320
(dp1321
g4
I14
sg5
I13
sba(iGenerate
Edge
p1322
(dp1323
g4
I13
sg5
I15
sba(iGenerate
Edge
p1324
(dp1325
g4
I15
sg5
I16
sba(iGenerate
Edge
p1326
(dp1327
g4
I16
sg5
I17
sba(iGenerate
Edge
p1328
(dp1329
g4
I17
sg5
I0
sbaa(lp1330
(iGenerate
Edge
p1331
(dp1332
g4
I0
sg5
I3
sba(iGenerate
Edge
p1333
(dp1334
g4
I3
sg5
g8
(g12
S'\x06\x00\x00\x00'
p1335
tp1336
Rp1337
sba(iGenerate
Edge
p1338
(dp1339
g4
g1337
sg5
I1
sba(iGenerate
Edge
p1340
(dp1341
g4
I1
sg5
I4
sba(iGenerate
Edge
p1342
(dp1343
g4
I4
sg5
I2
sba(iGenerate
Edge
p1344
(dp1345
g4
I2
sg5
I5
sba(iGenerate
Edge
p1346
(dp1347
g4
I5
sg5
I7
sba(iGenerate
Edge
p1348
(dp1349
g4
I7
sg5
I8
sba(iGenerate
Edge
p1350
(dp1351
g4
I8
sg5
I10
sba(iGenerate
Edge
p1352
(dp1353
g4
I10
sg5
I9
sba(iGenerate
Edge
p1354
(dp1355
g4
I9
sg5
I11
sba(iGenerate
Edge
p1356
(dp1357
g4
I11
sg5
I12
sba(iGenerate
Edge
p1358
(dp1359
g4
I12
sg5
I14
sba(iGenerate
Edge
p1360
(dp1361
g4
I14
sg5
I13
sba(iGenerate
Edge
p1362
(dp1363
g4
I13
sg5
I15
sba(iGenerate
Edge
p1364
(dp1365
g4
I15
sg5
I16
sba(iGenerate
Edge
p1366
(dp1367
g4
I16
sg5
I17
sba(iGenerate
Edge
p1368
(dp1369
g4
I17
sg5
I0
sbaa(lp1370
(iGenerate
Edge
p1371
(dp1372
g4
I0
sg5
I3
sba(iGenerate
Edge
p1373
(dp1374
g4
I3
sg5
g8
(g12
S'\x06\x00\x00\x00'
p1375
tp1376
Rp1377
sba(iGenerate
Edge
p1378
(dp1379
g4
g1377
sg5
I1
sba(iGenerate
Edge
p1380
(dp1381
g4
I1
sg5
I4
sba(iGenerate
Edge
p1382
(dp1383
g4
I4
sg5
I2
sba(iGenerate
Edge
p1384
(dp1385
g4
I2
sg5
I5
sba(iGenerate
Edge
p1386
(dp1387
g4
I5
sg5
I7
sba(iGenerate
Edge
p1388
(dp1389
g4
I7
sg5
I8
sba(iGenerate
Edge
p1390
(dp1391
g4
I8
sg5
I10
sba(iGenerate
Edge
p1392
(dp1393
g4
I10
sg5
I9
sba(iGenerate
Edge
p1394
(dp1395
g4
I9
sg5
I11
sba(iGenerate
Edge
p1396
(dp1397
g4
I11
sg5
I12
sba(iGenerate
Edge
p1398
(dp1399
g4
I12
sg5
I14
sba(iGenerate
Edge
p1400
(dp1401
g4
I14
sg5
I13
sba(iGenerate
Edge
p1402
(dp1403
g4
I13
sg5
I15
sba(iGenerate
Edge
p1404
(dp1405
g4
I15
sg5
I16
sba(iGenerate
Edge
p1406
(dp1407
g4
I16
sg5
I17
sba(iGenerate
Edge
p1408
(dp1409
g4
I17
sg5
I0
sbaa(lp1410
(iGenerate
Edge
p1411
(dp1412
g4
I0
sg5
I3
sba(iGenerate
Edge
p1413
(dp1414
g4
I3
sg5
g8
(g12
S'\x06\x00\x00\x00'
p1415
tp1416
Rp1417
sba(iGenerate
Edge
p1418
(dp1419
g4
g1417
sg5
I1
sba(iGenerate
Edge
p1420
(dp1421
g4
I1
sg5
I4
sba(iGenerate
Edge
p1422
(dp1423
g4
I4
sg5
I2
sba(iGenerate
Edge
p1424
(dp1425
g4
I2
sg5
I5
sba(iGenerate
Edge
p1426
(dp1427
g4
I5
sg5
I7
sba(iGenerate
Edge
p1428
(dp1429
g4
I7
sg5
I8
sba(iGenerate
Edge
p1430
(dp1431
g4
I8
sg5
I10
sba(iGenerate
Edge
p1432
(dp1433
g4
I10
sg5
I9
sba(iGenerate
Edge
p1434
(dp1435
g4
I9
sg5
I11
sba(iGenerate
Edge
p1436
(dp1437
g4
I11
sg5
I12
sba(iGenerate
Edge
p1438
(dp1439
g4
I12
sg5
I14
sba(iGenerate
Edge
p1440
(dp1441
g4
I14
sg5
I13
sba(iGenerate
Edge
p1442
(dp1443
g4
I13
sg5
I15
sba(iGenerate
Edge
p1444
(dp1445
g4
I15
sg5
I16
sba(iGenerate
Edge
p1446
(dp1447
g4
I16
sg5
I17
sba(iGenerate
Edge
p1448
(dp1449
g4
I17
sg5
I0
sbaa(lp1450
(iGenerate
Edge
p1451
(dp1452
g4
I0
sg5
I3
sba(iGenerate
Edge
p1453
(dp1454
g4
I3
sg5
g8
(g12
S'\x06\x00\x00\x00'
p1455
tp1456
Rp1457
sba(iGenerate
Edge
p1458
(dp1459
g4
g1457
sg5
I1
sba(iGenerate
Edge
p1460
(dp1461
g4
I1
sg5
I4
sba(iGenerate
Edge
p1462
(dp1463
g4
I4
sg5
I2
sba(iGenerate
Edge
p1464
(dp1465
g4
I2
sg5
I5
sba(iGenerate
Edge
p1466
(dp1467
g4
I5
sg5
I7
sba(iGenerate
Edge
p1468
(dp1469
g4
I7
sg5
I8
sba(iGenerate
Edge
p1470
(dp1471
g4
I8
sg5
I10
sba(iGenerate
Edge
p1472
(dp1473
g4
I10
sg5
I9
sba(iGenerate
Edge
p1474
(dp1475
g4
I9
sg5
I11
sba(iGenerate
Edge
p1476
(dp1477
g4
I11
sg5
I12
sba(iGenerate
Edge
p1478
(dp1479
g4
I12
sg5
I14
sba(iGenerate
Edge
p1480
(dp1481
g4
I14
sg5
I13
sba(iGenerate
Edge
p1482
(dp1483
g4
I13
sg5
I15
sba(iGenerate
Edge
p1484
(dp1485
g4
I15
sg5
I16
sba(iGenerate
Edge
p1486
(dp1487
g4
I16
sg5
I17
sba(iGenerate
Edge
p1488
(dp1489
g4
I17
sg5
I0
sbaa(lp1490
(iGenerate
Edge
p1491
(dp1492
g4
I0
sg5
I3
sba(iGenerate
Edge
p1493
(dp1494
g4
I3
sg5
g8
(g12
S'\x06\x00\x00\x00'
p1495
tp1496
Rp1497
sba(iGenerate
Edge
p1498
(dp1499
g4
g1497
sg5
I1
sba(iGenerate
Edge
p1500
(dp1501
g4
I1
sg5
I4
sba(iGenerate
Edge
p1502
(dp1503
g4
I4
sg5
I2
sba(iGenerate
Edge
p1504
(dp1505
g4
I2
sg5
I5
sba(iGenerate
Edge
p1506
(dp1507
g4
I5
sg5
I7
sba(iGenerate
Edge
p1508
(dp1509
g4
I7
sg5
I8
sba(iGenerate
Edge
p1510
(dp1511
g4
I8
sg5
I10
sba(iGenerate
Edge
p1512
(dp1513
g4
I10
sg5
I9
sba(iGenerate
Edge
p1514
(dp1515
g4
I9
sg5
I11
sba(iGenerate
Edge
p1516
(dp1517
g4
I11
sg5
I12
sba(iGenerate
Edge
p1518
(dp1519
g4
I12
sg5
I14
sba(iGenerate
Edge
p1520
(dp1521
g4
I14
sg5
I13
sba(iGenerate
Edge
p1522
(dp1523
g4
I13
sg5
I15
sba(iGenerate
Edge
p1524
(dp1525
g4
I15
sg5
I16
sba(iGenerate
Edge
p1526
(dp1527
g4
I16
sg5
I17
sba(iGenerate
Edge
p1528
(dp1529
g4
I17
sg5
I0
sbaa(lp1530
(iGenerate
Edge
p1531
(dp1532
g4
I0
sg5
I3
sba(iGenerate
Edge
p1533
(dp1534
g4
I3
sg5
g8
(g12
S'\x06\x00\x00\x00'
p1535
tp1536
Rp1537
sba(iGenerate
Edge
p1538
(dp1539
g4
g1537
sg5
I1
sba(iGenerate
Edge
p1540
(dp1541
g4
I1
sg5
I4
sba(iGenerate
Edge
p1542
(dp1543
g4
I4
sg5
I2
sba(iGenerate
Edge
p1544
(dp1545
g4
I2
sg5
I5
sba(iGenerate
Edge
p1546
(dp1547
g4
I5
sg5
I7
sba(iGenerate
Edge
p1548
(dp1549
g4
I7
sg5
I8
sba(iGenerate
Edge
p1550
(dp1551
g4
I8
sg5
I10
sba(iGenerate
Edge
p1552
(dp1553
g4
I10
sg5
I9
sba(iGenerate
Edge
p1554
(dp1555
g4
I9
sg5
I11
sba(iGenerate
Edge
p1556
(dp1557
g4
I11
sg5
I12
sba(iGenerate
Edge
p1558
(dp1559
g4
I12
sg5
I14
sba(iGenerate
Edge
p1560
(dp1561
g4
I14
sg5
I13
sba(iGenerate
Edge
p1562
(dp1563
g4
I13
sg5
I15
sba(iGenerate
Edge
p1564
(dp1565
g4
I15
sg5
I16
sba(iGenerate
Edge
p1566
(dp1567
g4
I16
sg5
I17
sba(iGenerate
Edge
p1568
(dp1569
g4
I17
sg5
I0
sbaa(lp1570
(iGenerate
Edge
p1571
(dp1572
g4
I0
sg5
I3
sba(iGenerate
Edge
p1573
(dp1574
g4
I3
sg5
g8
(g12
S'\x06\x00\x00\x00'
p1575
tp1576
Rp1577
sba(iGenerate
Edge
p1578
(dp1579
g4
g1577
sg5
I1
sba(iGenerate
Edge
p1580
(dp1581
g4
I1
sg5
I4
sba(iGenerate
Edge
p1582
(dp1583
g4
I4
sg5
I2
sba(iGenerate
Edge
p1584
(dp1585
g4
I2
sg5
I5
sba(iGenerate
Edge
p1586
(dp1587
g4
I5
sg5
I7
sba(iGenerate
Edge
p1588
(dp1589
g4
I7
sg5
I8
sba(iGenerate
Edge
p1590
(dp1591
g4
I8
sg5
I10
sba(iGenerate
Edge
p1592
(dp1593
g4
I10
sg5
I9
sba(iGenerate
Edge
p1594
(dp1595
g4
I9
sg5
I11
sba(iGenerate
Edge
p1596
(dp1597
g4
I11
sg5
I12
sba(iGenerate
Edge
p1598
(dp1599
g4
I12
sg5
I14
sba(iGenerate
Edge
p1600
(dp1601
g4
I14
sg5
I13
sba(iGenerate
Edge
p1602
(dp1603
g4
I13
sg5
I15
sba(iGenerate
Edge
p1604
(dp1605
g4
I15
sg5
I16
sba(iGenerate
Edge
p1606
(dp1607
g4
I16
sg5
I17
sba(iGenerate
Edge
p1608
(dp1609
g4
I17
sg5
I0
sbaa(lp1610
(iGenerate
Edge
p1611
(dp1612
g4
I0
sg5
I3
sba(iGenerate
Edge
p1613
(dp1614
g4
I3
sg5
g8
(g12
S'\x06\x00\x00\x00'
p1615
tp1616
Rp1617
sba(iGenerate
Edge
p1618
(dp1619
g4
g1617
sg5
I1
sba(iGenerate
Edge
p1620
(dp1621
g4
I1
sg5
I4
sba(iGenerate
Edge
p1622
(dp1623
g4
I4
sg5
I2
sba(iGenerate
Edge
p1624
(dp1625
g4
I2
sg5
I5
sba(iGenerate
Edge
p1626
(dp1627
g4
I5
sg5
I7
sba(iGenerate
Edge
p1628
(dp1629
g4
I7
sg5
I8
sba(iGenerate
Edge
p1630
(dp1631
g4
I8
sg5
I10
sba(iGenerate
Edge
p1632
(dp1633
g4
I10
sg5
I9
sba(iGenerate
Edge
p1634
(dp1635
g4
I9
sg5
I11
sba(iGenerate
Edge
p1636
(dp1637
g4
I11
sg5
I12
sba(iGenerate
Edge
p1638
(dp1639
g4
I12
sg5
I14
sba(iGenerate
Edge
p1640
(dp1641
g4
I14
sg5
I13
sba(iGenerate
Edge
p1642
(dp1643
g4
I13
sg5
I15
sba(iGenerate
Edge
p1644
(dp1645
g4
I15
sg5
I16
sba(iGenerate
Edge
p1646
(dp1647
g4
I16
sg5
I17
sba(iGenerate
Edge
p1648
(dp1649
g4
I17
sg5
I0
sbaa(lp1650
(iGenerate
Edge
p1651
(dp1652
g4
I0
sg5
I3
sba(iGenerate
Edge
p1653
(dp1654
g4
I3
sg5
g8
(g12
S'\x06\x00\x00\x00'
p1655
tp1656
Rp1657
sba(iGenerate
Edge
p1658
(dp1659
g4
g1657
sg5
I1
sba(iGenerate
Edge
p1660
(dp1661
g4
I1
sg5
I4
sba(iGenerate
Edge
p1662
(dp1663
g4
I4
sg5
I2
sba(iGenerate
Edge
p1664
(dp1665
g4
I2
sg5
I5
sba(iGenerate
Edge
p1666
(dp1667
g4
I5
sg5
I7
sba(iGenerate
Edge
p1668
(dp1669
g4
I7
sg5
I8
sba(iGenerate
Edge
p1670
(dp1671
g4
I8
sg5
I10
sba(iGenerate
Edge
p1672
(dp1673
g4
I10
sg5
I9
sba(iGenerate
Edge
p1674
(dp1675
g4
I9
sg5
I11
sba(iGenerate
Edge
p1676
(dp1677
g4
I11
sg5
I12
sba(iGenerate
Edge
p1678
(dp1679
g4
I12
sg5
I14
sba(iGenerate
Edge
p1680
(dp1681
g4
I14
sg5
I13
sba(iGenerate
Edge
p1682
(dp1683
g4
I13
sg5
I15
sba(iGenerate
Edge
p1684
(dp1685
g4
I15
sg5
I16
sba(iGenerate
Edge
p1686
(dp1687
g4
I16
sg5
I17
sba(iGenerate
Edge
p1688
(dp1689
g4
I17
sg5
I0
sbaa(lp1690
(iGenerate
Edge
p1691
(dp1692
g4
I0
sg5
I3
sba(iGenerate
Edge
p1693
(dp1694
g4
I3
sg5
g8
(g12
S'\x06\x00\x00\x00'
p1695
tp1696
Rp1697
sba(iGenerate
Edge
p1698
(dp1699
g4
g1697
sg5
I1
sba(iGenerate
Edge
p1700
(dp1701
g4
I1
sg5
I4
sba(iGenerate
Edge
p1702
(dp1703
g4
I4
sg5
I2
sba(iGenerate
Edge
p1704
(dp1705
g4
I2
sg5
I5
sba(iGenerate
Edge
p1706
(dp1707
g4
I5
sg5
I7
sba(iGenerate
Edge
p1708
(dp1709
g4
I7
sg5
I8
sba(iGenerate
Edge
p1710
(dp1711
g4
I8
sg5
I10
sba(iGenerate
Edge
p1712
(dp1713
g4
I10
sg5
I9
sba(iGenerate
Edge
p1714
(dp1715
g4
I9
sg5
I11
sba(iGenerate
Edge
p1716
(dp1717
g4
I11
sg5
I12
sba(iGenerate
Edge
p1718
(dp1719
g4
I12
sg5
I14
sba(iGenerate
Edge
p1720
(dp1721
g4
I14
sg5
I13
sba(iGenerate
Edge
p1722
(dp1723
g4
I13
sg5
I15
sba(iGenerate
Edge
p1724
(dp1725
g4
I15
sg5
I16
sba(iGenerate
Edge
p1726
(dp1727
g4
I16
sg5
I17
sba(iGenerate
Edge
p1728
(dp1729
g4
I17
sg5
I0
sbaa(lp1730
(iGenerate
Edge
p1731
(dp1732
g4
I0
sg5
I3
sba(iGenerate
Edge
p1733
(dp1734
g4
I3
sg5
g8
(g12
S'\x06\x00\x00\x00'
p1735
tp1736
Rp1737
sba(iGenerate
Edge
p1738
(dp1739
g4
g1737
sg5
I1
sba(iGenerate
Edge
p1740
(dp1741
g4
I1
sg5
I4
sba(iGenerate
Edge
p1742
(dp1743
g4
I4
sg5
I2
sba(iGenerate
Edge
p1744
(dp1745
g4
I2
sg5
I5
sba(iGenerate
Edge
p1746
(dp1747
g4
I5
sg5
I7
sba(iGenerate
Edge
p1748
(dp1749
g4
I7
sg5
I8
sba(iGenerate
Edge
p1750
(dp1751
g4
I8
sg5
I10
sba(iGenerate
Edge
p1752
(dp1753
g4
I10
sg5
I9
sba(iGenerate
Edge
p1754
(dp1755
g4
I9
sg5
I11
sba(iGenerate
Edge
p1756
(dp1757
g4
I11
sg5
I12
sba(iGenerate
Edge
p1758
(dp1759
g4
I12
sg5
I14
sba(iGenerate
Edge
p1760
(dp1761
g4
I14
sg5
I13
sba(iGenerate
Edge
p1762
(dp1763
g4
I13
sg5
I15
sba(iGenerate
Edge
p1764
(dp1765
g4
I15
sg5
I16
sba(iGenerate
Edge
p1766
(dp1767
g4
I16
sg5
I17
sba(iGenerate
Edge
p1768
(dp1769
g4
I17
sg5
I0
sbaa(lp1770
(iGenerate
Edge
p1771
(dp1772
g4
I0
sg5
I3
sba(iGenerate
Edge
p1773
(dp1774
g4
I3
sg5
g8
(g12
S'\x06\x00\x00\x00'
p1775
tp1776
Rp1777
sba(iGenerate
Edge
p1778
(dp1779
g4
g1777
sg5
I1
sba(iGenerate
Edge
p1780
(dp1781
g4
I1
sg5
I4
sba(iGenerate
Edge
p1782
(dp1783
g4
I4
sg5
I2
sba(iGenerate
Edge
p1784
(dp1785
g4
I2
sg5
I5
sba(iGenerate
Edge
p1786
(dp1787
g4
I5
sg5
I7
sba(iGenerate
Edge
p1788
(dp1789
g4
I7
sg5
I8
sba(iGenerate
Edge
p1790
(dp1791
g4
I8
sg5
I10
sba(iGenerate
Edge
p1792
(dp1793
g4
I10
sg5
I9
sba(iGenerate
Edge
p1794
(dp1795
g4
I9
sg5
I11
sba(iGenerate
Edge
p1796
(dp1797
g4
I11
sg5
I12
sba(iGenerate
Edge
p1798
(dp1799
g4
I12
sg5
I14
sba(iGenerate
Edge
p1800
(dp1801
g4
I14
sg5
I13
sba(iGenerate
Edge
p1802
(dp1803
g4
I13
sg5
I15
sba(iGenerate
Edge
p1804
(dp1805
g4
I15
sg5
I16
sba(iGenerate
Edge
p1806
(dp1807
g4
I16
sg5
I17
sba(iGenerate
Edge
p1808
(dp1809
g4
I17
sg5
I0
sbaa(lp1810
(iGenerate
Edge
p1811
(dp1812
g4
I0
sg5
I3
sba(iGenerate
Edge
p1813
(dp1814
g4
I3
sg5
g8
(g12
S'\x06\x00\x00\x00'
p1815
tp1816
Rp1817
sba(iGenerate
Edge
p1818
(dp1819
g4
g1817
sg5
I1
sba(iGenerate
Edge
p1820
(dp1821
g4
I1
sg5
I4
sba(iGenerate
Edge
p1822
(dp1823
g4
I4
sg5
I2
sba(iGenerate
Edge
p1824
(dp1825
g4
I2
sg5
I5
sba(iGenerate
Edge
p1826
(dp1827
g4
I5
sg5
I7
sba(iGenerate
Edge
p1828
(dp1829
g4
I7
sg5
I8
sba(iGenerate
Edge
p1830
(dp1831
g4
I8
sg5
I10
sba(iGenerate
Edge
p1832
(dp1833
g4
I10
sg5
I9
sba(iGenerate
Edge
p1834
(dp1835
g4
I9
sg5
I11
sba(iGenerate
Edge
p1836
(dp1837
g4
I11
sg5
I12
sba(iGenerate
Edge
p1838
(dp1839
g4
I12
sg5
I14
sba(iGenerate
Edge
p1840
(dp1841
g4
I14
sg5
I13
sba(iGenerate
Edge
p1842
(dp1843
g4
I13
sg5
I15
sba(iGenerate
Edge
p1844
(dp1845
g4
I15
sg5
I16
sba(iGenerate
Edge
p1846
(dp1847
g4
I16
sg5
I17
sba(iGenerate
Edge
p1848
(dp1849
g4
I17
sg5
I0
sbaa(lp1850
(iGenerate
Edge
p1851
(dp1852
g4
I0
sg5
I3
sba(iGenerate
Edge
p1853
(dp1854
g4
I3
sg5
g8
(g12
S'\x06\x00\x00\x00'
p1855
tp1856
Rp1857
sba(iGenerate
Edge
p1858
(dp1859
g4
g1857
sg5
I1
sba(iGenerate
Edge
p1860
(dp1861
g4
I1
sg5
I4
sba(iGenerate
Edge
p1862
(dp1863
g4
I4
sg5
I2
sba(iGenerate
Edge
p1864
(dp1865
g4
I2
sg5
I5
sba(iGenerate
Edge
p1866
(dp1867
g4
I5
sg5
I7
sba(iGenerate
Edge
p1868
(dp1869
g4
I7
sg5
I8
sba(iGenerate
Edge
p1870
(dp1871
g4
I8
sg5
I10
sba(iGenerate
Edge
p1872
(dp1873
g4
I10
sg5
I9
sba(iGenerate
Edge
p1874
(dp1875
g4
I9
sg5
I11
sba(iGenerate
Edge
p1876
(dp1877
g4
I11
sg5
I12
sba(iGenerate
Edge
p1878
(dp1879
g4
I12
sg5
I14
sba(iGenerate
Edge
p1880
(dp1881
g4
I14
sg5
I13
sba(iGenerate
Edge
p1882
(dp1883
g4
I13
sg5
I15
sba(iGenerate
Edge
p1884
(dp1885
g4
I15
sg5
I16
sba(iGenerate
Edge
p1886
(dp1887
g4
I16
sg5
I17
sba(iGenerate
Edge
p1888
(dp1889
g4
I17
sg5
I0
sbaa(lp1890
(iGenerate
Edge
p1891
(dp1892
g4
I0
sg5
I3
sba(iGenerate
Edge
p1893
(dp1894
g4
I3
sg5
g8
(g12
S'\x06\x00\x00\x00'
p1895
tp1896
Rp1897
sba(iGenerate
Edge
p1898
(dp1899
g4
g1897
sg5
I1
sba(iGenerate
Edge
p1900
(dp1901
g4
I1
sg5
I4
sba(iGenerate
Edge
p1902
(dp1903
g4
I4
sg5
I2
sba(iGenerate
Edge
p1904
(dp1905
g4
I2
sg5
I5
sba(iGenerate
Edge
p1906
(dp1907
g4
I5
sg5
I7
sba(iGenerate
Edge
p1908
(dp1909
g4
I7
sg5
I8
sba(iGenerate
Edge
p1910
(dp1911
g4
I8
sg5
I10
sba(iGenerate
Edge
p1912
(dp1913
g4
I10
sg5
I9
sba(iGenerate
Edge
p1914
(dp1915
g4
I9
sg5
I11
sba(iGenerate
Edge
p1916
(dp1917
g4
I11
sg5
I12
sba(iGenerate
Edge
p1918
(dp1919
g4
I12
sg5
I14
sba(iGenerate
Edge
p1920
(dp1921
g4
I14
sg5
I13
sba(iGenerate
Edge
p1922
(dp1923
g4
I13
sg5
I15
sba(iGenerate
Edge
p1924
(dp1925
g4
I15
sg5
I16
sba(iGenerate
Edge
p1926
(dp1927
g4
I16
sg5
I17
sba(iGenerate
Edge
p1928
(dp1929
g4
I17
sg5
I0
sbaa(lp1930
(iGenerate
Edge
p1931
(dp1932
g4
I0
sg5
I3
sba(iGenerate
Edge
p1933
(dp1934
g4
I3
sg5
g8
(g12
S'\x06\x00\x00\x00'
p1935
tp1936
Rp1937
sba(iGenerate
Edge
p1938
(dp1939
g4
g1937
sg5
I1
sba(iGenerate
Edge
p1940
(dp1941
g4
I1
sg5
I4
sba(iGenerate
Edge
p1942
(dp1943
g4
I4
sg5
I2
sba(iGenerate
Edge
p1944
(dp1945
g4
I2
sg5
I5
sba(iGenerate
Edge
p1946
(dp1947
g4
I5
sg5
I7
sba(iGenerate
Edge
p1948
(dp1949
g4
I7
sg5
I8
sba(iGenerate
Edge
p1950
(dp1951
g4
I8
sg5
I10
sba(iGenerate
Edge
p1952
(dp1953
g4
I10
sg5
I9
sba(iGenerate
Edge
p1954
(dp1955
g4
I9
sg5
I11
sba(iGenerate
Edge
p1956
(dp1957
g4
I11
sg5
I12
sba(iGenerate
Edge
p1958
(dp1959
g4
I12
sg5
I14
sba(iGenerate
Edge
p1960
(dp1961
g4
I14
sg5
I13
sba(iGenerate
Edge
p1962
(dp1963
g4
I13
sg5
I15
sba(iGenerate
Edge
p1964
(dp1965
g4
I15
sg5
I16
sba(iGenerate
Edge
p1966
(dp1967
g4
I16
sg5
I17
sba(iGenerate
Edge
p1968
(dp1969
g4
I17
sg5
I0
sbaa(lp1970
(iGenerate
Edge
p1971
(dp1972
g4
I0
sg5
I3
sba(iGenerate
Edge
p1973
(dp1974
g4
I3
sg5
g8
(g12
S'\x06\x00\x00\x00'
p1975
tp1976
Rp1977
sba(iGenerate
Edge
p1978
(dp1979
g4
g1977
sg5
I1
sba(iGenerate
Edge
p1980
(dp1981
g4
I1
sg5
I4
sba(iGenerate
Edge
p1982
(dp1983
g4
I4
sg5
I2
sba(iGenerate
Edge
p1984
(dp1985
g4
I2
sg5
I5
sba(iGenerate
Edge
p1986
(dp1987
g4
I5
sg5
I7
sba(iGenerate
Edge
p1988
(dp1989
g4
I7
sg5
I8
sba(iGenerate
Edge
p1990
(dp1991
g4
I8
sg5
I10
sba(iGenerate
Edge
p1992
(dp1993
g4
I10
sg5
I9
sba(iGenerate
Edge
p1994
(dp1995
g4
I9
sg5
I11
sba(iGenerate
Edge
p1996
(dp1997
g4
I11
sg5
I12
sba(iGenerate
Edge
p1998
(dp1999
g4
I12
sg5
I14
sba(iGenerate
Edge
p2000
(dp2001
g4
I14
sg5
I13
sba(iGenerate
Edge
p2002
(dp2003
g4
I13
sg5
I15
sba(iGenerate
Edge
p2004
(dp2005
g4
I15
sg5
I16
sba(iGenerate
Edge
p2006
(dp2007
g4
I16
sg5
I17
sba(iGenerate
Edge
p2008
(dp2009
g4
I17
sg5
I0
sbaa.