(lp0
(lp1
(iGenerate
Edge
p2
(dp3
S'a'
p4
I0
sS'b'
p5
I2
sba(iGenerate
Edge
p6
(dp7
g4
I2
sg5
cnumpy.core.multiarray
scalar
p8
(cnumpy
dtype
p9
(S'i4'
p10
I0
I1
tp11
Rp12
(I3
S'<'
p13
NNNI-1
I-1
I0
tp14
bS'\x04\x00\x00\x00'
p15
tp16
Rp17
sba(iGenerate
Edge
p18
(dp19
g4
g17
sg5
I1
sba(iGenerate
Edge
p20
(dp21
g4
I1
sg5
I3
sba(iGenerate
Edge
p22
(dp23
g4
I3
sg5
I5
sba(iGenerate
Edge
p24
(dp25
g4
I5
sg5
I6
sba(iGenerate
Edge
p26
(dp27
g4
I6
sg5
I7
sba(iGenerate
Edge
p28
(dp29
g4
I7
sg5
I8
sba(iGenerate
Edge
p30
(dp31
g4
I8
sg5
I11
sba(iGenerate
Edge
p32
(dp33
g4
I11
sg5
I9
sba(iGenerate
Edge
p34
(dp35
g4
I9
sg5
I10
sba(iGenerate
Edge
p36
(dp37
g4
I10
sg5
I0
sbaa(lp38
(iGenerate
Edge
p39
(dp40
g4
I0
sg5
I2
sba(iGenerate
Edge
p41
(dp42
g4
I2
sg5
g8
(g12
S'\x04\x00\x00\x00'
p43
tp44
Rp45
sba(iGenerate
Edge
p46
(dp47
g4
g45
sg5
I1
sba(iGenerate
Edge
p48
(dp49
g4
I1
sg5
I3
sba(iGenerate
Edge
p50
(dp51
g4
I3
sg5
I5
sba(iGenerate
Edge
p52
(dp53
g4
I5
sg5
I6
sba(iGenerate
Edge
p54
(dp55
g4
I6
sg5
I7
sba(iGenerate
Edge
p56
(dp57
g4
I7
sg5
I8
sba(iGenerate
Edge
p58
(dp59
g4
I8
sg5
I11
sba(iGenerate
Edge
p60
(dp61
g4
I11
sg5
I9
sba(iGenerate
Edge
p62
(dp63
g4
I9
sg5
I10
sba(iGenerate
Edge
p64
(dp65
g4
I10
sg5
I0
sbaa(lp66
(iGenerate
Edge
p67
(dp68
g4
I0
sg5
I2
sba(iGenerate
Edge
p69
(dp70
g4
I2
sg5
g8
(g12
S'\x04\x00\x00\x00'
p71
tp72
Rp73
sba(iGenerate
Edge
p74
(dp75
g4
g73
sg5
I1
sba(iGenerate
Edge
p76
(dp77
g4
I1
sg5
I3
sba(iGenerate
Edge
p78
(dp79
g4
I3
sg5
I5
sba(iGenerate
Edge
p80
(dp81
g4
I5
sg5
I6
sba(iGenerate
Edge
p82
(dp83
g4
I6
sg5
I7
sba(iGenerate
Edge
p84
(dp85
g4
I7
sg5
I8
sba(iGenerate
Edge
p86
(dp87
g4
I8
sg5
I11
sba(iGenerate
Edge
p88
(dp89
g4
I11
sg5
I9
sba(iGenerate
Edge
p90
(dp91
g4
I9
sg5
I10
sba(iGenerate
Edge
p92
(dp93
g4
I10
sg5
I0
sbaa(lp94
(iGenerate
Edge
p95
(dp96
g4
I0
sg5
I2
sba(iGenerate
Edge
p97
(dp98
g4
I2
sg5
g8
(g12
S'\x04\x00\x00\x00'
p99
tp100
Rp101
sba(iGenerate
Edge
p102
(dp103
g4
g101
sg5
I1
sba(iGenerate
Edge
p104
(dp105
g4
I1
sg5
I3
sba(iGenerate
Edge
p106
(dp107
g4
I3
sg5
I5
sba(iGenerate
Edge
p108
(dp109
g4
I5
sg5
I6
sba(iGenerate
Edge
p110
(dp111
g4
I6
sg5
I7
sba(iGenerate
Edge
p112
(dp113
g4
I7
sg5
I8
sba(iGenerate
Edge
p114
(dp115
g4
I8
sg5
I11
sba(iGenerate
Edge
p116
(dp117
g4
I11
sg5
I9
sba(iGenerate
Edge
p118
(dp119
g4
I9
sg5
I10
sba(iGenerate
Edge
p120
(dp121
g4
I10
sg5
I0
sbaa(lp122
(iGenerate
Edge
p123
(dp124
g4
I0
sg5
I2
sba(iGenerate
Edge
p125
(dp126
g4
I2
sg5
g8
(g12
S'\x04\x00\x00\x00'
p127
tp128
Rp129
sba(iGenerate
Edge
p130
(dp131
g4
g129
sg5
I1
sba(iGenerate
Edge
p132
(dp133
g4
I1
sg5
I3
sba(iGenerate
Edge
p134
(dp135
g4
I3
sg5
I5
sba(iGenerate
Edge
p136
(dp137
g4
I5
sg5
I6
sba(iGenerate
Edge
p138
(dp139
g4
I6
sg5
I7
sba(iGenerate
Edge
p140
(dp141
g4
I7
sg5
I8
sba(iGenerate
Edge
p142
(dp143
g4
I8
sg5
I11
sba(iGenerate
Edge
p144
(dp145
g4
I11
sg5
I9
sba(iGenerate
Edge
p146
(dp147
g4
I9
sg5
I10
sba(iGenerate
Edge
p148
(dp149
g4
I10
sg5
I0
sbaa(lp150
(iGenerate
Edge
p151
(dp152
g4
I0
sg5
I2
sba(iGenerate
Edge
p153
(dp154
g4
I2
sg5
g8
(g12
S'\x04\x00\x00\x00'
p155
tp156
Rp157
sba(iGenerate
Edge
p158
(dp159
g4
g157
sg5
I1
sba(iGenerate
Edge
p160
(dp161
g4
I1
sg5
I3
sba(iGenerate
Edge
p162
(dp163
g4
I3
sg5
I5
sba(iGenerate
Edge
p164
(dp165
g4
I5
sg5
I6
sba(iGenerate
Edge
p166
(dp167
g4
I6
sg5
I7
sba(iGenerate
Edge
p168
(dp169
g4
I7
sg5
I8
sba(iGenerate
Edge
p170
(dp171
g4
I8
sg5
I11
sba(iGenerate
Edge
p172
(dp173
g4
I11
sg5
I9
sba(iGenerate
Edge
p174
(dp175
g4
I9
sg5
I10
sba(iGenerate
Edge
p176
(dp177
g4
I10
sg5
I0
sbaa(lp178
(iGenerate
Edge
p179
(dp180
g4
I0
sg5
I2
sba(iGenerate
Edge
p181
(dp182
g4
I2
sg5
g8
(g12
S'\x04\x00\x00\x00'
p183
tp184
Rp185
sba(iGenerate
Edge
p186
(dp187
g4
g185
sg5
I1
sba(iGenerate
Edge
p188
(dp189
g4
I1
sg5
I3
sba(iGenerate
Edge
p190
(dp191
g4
I3
sg5
I5
sba(iGenerate
Edge
p192
(dp193
g4
I5
sg5
I6
sba(iGenerate
Edge
p194
(dp195
g4
I6
sg5
I7
sba(iGenerate
Edge
p196
(dp197
g4
I7
sg5
I8
sba(iGenerate
Edge
p198
(dp199
g4
I8
sg5
I11
sba(iGenerate
Edge
p200
(dp201
g4
I11
sg5
I9
sba(iGenerate
Edge
p202
(dp203
g4
I9
sg5
I10
sba(iGenerate
Edge
p204
(dp205
g4
I10
sg5
I0
sbaa(lp206
(iGenerate
Edge
p207
(dp208
g4
I0
sg5
I2
sba(iGenerate
Edge
p209
(dp210
g4
I2
sg5
g8
(g12
S'\x04\x00\x00\x00'
p211
tp212
Rp213
sba(iGenerate
Edge
p214
(dp215
g4
g213
sg5
I1
sba(iGenerate
Edge
p216
(dp217
g4
I1
sg5
I3
sba(iGenerate
Edge
p218
(dp219
g4
I3
sg5
I5
sba(iGenerate
Edge
p220
(dp221
g4
I5
sg5
I6
sba(iGenerate
Edge
p222
(dp223
g4
I6
sg5
I7
sba(iGenerate
Edge
p224
(dp225
g4
I7
sg5
I8
sba(iGenerate
Edge
p226
(dp227
g4
I8
sg5
I11
sba(iGenerate
Edge
p228
(dp229
g4
I11
sg5
I9
sba(iGenerate
Edge
p230
(dp231
g4
I9
sg5
I10
sba(iGenerate
Edge
p232
(dp233
g4
I10
sg5
I0
sbaa(lp234
(iGenerate
Edge
p235
(dp236
g4
I0
sg5
I2
sba(iGenerate
Edge
p237
(dp238
g4
I2
sg5
g8
(g12
S'\x04\x00\x00\x00'
p239
tp240
Rp241
sba(iGenerate
Edge
p242
(dp243
g4
g241
sg5
I1
sba(iGenerate
Edge
p244
(dp245
g4
I1
sg5
I3
sba(iGenerate
Edge
p246
(dp247
g4
I3
sg5
I5
sba(iGenerate
Edge
p248
(dp249
g4
I5
sg5
I6
sba(iGenerate
Edge
p250
(dp251
g4
I6
sg5
I7
sba(iGenerate
Edge
p252
(dp253
g4
I7
sg5
I8
sba(iGenerate
Edge
p254
(dp255
g4
I8
sg5
I11
sba(iGenerate
Edge
p256
(dp257
g4
I11
sg5
I9
sba(iGenerate
Edge
p258
(dp259
g4
I9
sg5
I10
sba(iGenerate
Edge
p260
(dp261
g4
I10
sg5
I0
sbaa(lp262
(iGenerate
Edge
p263
(dp264
g4
I0
sg5
I2
sba(iGenerate
Edge
p265
(dp266
g4
I2
sg5
g8
(g12
S'\x04\x00\x00\x00'
p267
tp268
Rp269
sba(iGenerate
Edge
p270
(dp271
g4
g269
sg5
I1
sba(iGenerate
Edge
p272
(dp273
g4
I1
sg5
I3
sba(iGenerate
Edge
p274
(dp275
g4
I3
sg5
I5
sba(iGenerate
Edge
p276
(dp277
g4
I5
sg5
I6
sba(iGenerate
Edge
p278
(dp279
g4
I6
sg5
I7
sba(iGenerate
Edge
p280
(dp281
g4
I7
sg5
I8
sba(iGenerate
Edge
p282
(dp283
g4
I8
sg5
I11
sba(iGenerate
Edge
p284
(dp285
g4
I11
sg5
I9
sba(iGenerate
Edge
p286
(dp287
g4
I9
sg5
I10
sba(iGenerate
Edge
p288
(dp289
g4
I10
sg5
I0
sbaa(lp290
(iGenerate
Edge
p291
(dp292
g4
I0
sg5
I2
sba(iGenerate
Edge
p293
(dp294
g4
I2
sg5
g8
(g12
S'\x04\x00\x00\x00'
p295
tp296
Rp297
sba(iGenerate
Edge
p298
(dp299
g4
g297
sg5
I1
sba(iGenerate
Edge
p300
(dp301
g4
I1
sg5
I3
sba(iGenerate
Edge
p302
(dp303
g4
I3
sg5
I5
sba(iGenerate
Edge
p304
(dp305
g4
I5
sg5
I6
sba(iGenerate
Edge
p306
(dp307
g4
I6
sg5
I7
sba(iGenerate
Edge
p308
(dp309
g4
I7
sg5
I8
sba(iGenerate
Edge
p310
(dp311
g4
I8
sg5
I11
sba(iGenerate
Edge
p312
(dp313
g4
I11
sg5
I9
sba(iGenerate
Edge
p314
(dp315
g4
I9
sg5
I10
sba(iGenerate
Edge
p316
(dp317
g4
I10
sg5
I0
sbaa(lp318
(iGenerate
Edge
p319
(dp320
g4
I0
sg5
I2
sba(iGenerate
Edge
p321
(dp322
g4
I2
sg5
g8
(g12
S'\x04\x00\x00\x00'
p323
tp324
Rp325
sba(iGenerate
Edge
p326
(dp327
g4
g325
sg5
I1
sba(iGenerate
Edge
p328
(dp329
g4
I1
sg5
I3
sba(iGenerate
Edge
p330
(dp331
g4
I3
sg5
I5
sba(iGenerate
Edge
p332
(dp333
g4
I5
sg5
I6
sba(iGenerate
Edge
p334
(dp335
g4
I6
sg5
I7
sba(iGenerate
Edge
p336
(dp337
g4
I7
sg5
I8
sba(iGenerate
Edge
p338
(dp339
g4
I8
sg5
I11
sba(iGenerate
Edge
p340
(dp341
g4
I11
sg5
I9
sba(iGenerate
Edge
p342
(dp343
g4
I9
sg5
I10
sba(iGenerate
Edge
p344
(dp345
g4
I10
sg5
I0
sbaa(lp346
(iGenerate
Edge
p347
(dp348
g4
I0
sg5
I2
sba(iGenerate
Edge
p349
(dp350
g4
I2
sg5
g8
(g12
S'\x04\x00\x00\x00'
p351
tp352
Rp353
sba(iGenerate
Edge
p354
(dp355
g4
g353
sg5
I1
sba(iGenerate
Edge
p356
(dp357
g4
I1
sg5
I3
sba(iGenerate
Edge
p358
(dp359
g4
I3
sg5
I5
sba(iGenerate
Edge
p360
(dp361
g4
I5
sg5
I6
sba(iGenerate
Edge
p362
(dp363
g4
I6
sg5
I7
sba(iGenerate
Edge
p364
(dp365
g4
I7
sg5
I8
sba(iGenerate
Edge
p366
(dp367
g4
I8
sg5
I11
sba(iGenerate
Edge
p368
(dp369
g4
I11
sg5
I9
sba(iGenerate
Edge
p370
(dp371
g4
I9
sg5
I10
sba(iGenerate
Edge
p372
(dp373
g4
I10
sg5
I0
sbaa(lp374
(iGenerate
Edge
p375
(dp376
g4
I0
sg5
I2
sba(iGenerate
Edge
p377
(dp378
g4
I2
sg5
g8
(g12
S'\x04\x00\x00\x00'
p379
tp380
Rp381
sba(iGenerate
Edge
p382
(dp383
g4
g381
sg5
I1
sba(iGenerate
Edge
p384
(dp385
g4
I1
sg5
I3
sba(iGenerate
Edge
p386
(dp387
g4
I3
sg5
I5
sba(iGenerate
Edge
p388
(dp389
g4
I5
sg5
I6
sba(iGenerate
Edge
p390
(dp391
g4
I6
sg5
I7
sba(iGenerate
Edge
p392
(dp393
g4
I7
sg5
I8
sba(iGenerate
Edge
p394
(dp395
g4
I8
sg5
I11
sba(iGenerate
Edge
p396
(dp397
g4
I11
sg5
I9
sba(iGenerate
Edge
p398
(dp399
g4
I9
sg5
I10
sba(iGenerate
Edge
p400
(dp401
g4
I10
sg5
I0
sbaa(lp402
(iGenerate
Edge
p403
(dp404
g4
I0
sg5
I2
sba(iGenerate
Edge
p405
(dp406
g4
I2
sg5
g8
(g12
S'\x04\x00\x00\x00'
p407
tp408
Rp409
sba(iGenerate
Edge
p410
(dp411
g4
g409
sg5
I1
sba(iGenerate
Edge
p412
(dp413
g4
I1
sg5
I3
sba(iGenerate
Edge
p414
(dp415
g4
I3
sg5
I5
sba(iGenerate
Edge
p416
(dp417
g4
I5
sg5
I6
sba(iGenerate
Edge
p418
(dp419
g4
I6
sg5
I7
sba(iGenerate
Edge
p420
(dp421
g4
I7
sg5
I8
sba(iGenerate
Edge
p422
(dp423
g4
I8
sg5
I11
sba(iGenerate
Edge
p424
(dp425
g4
I11
sg5
I9
sba(iGenerate
Edge
p426
(dp427
g4
I9
sg5
I10
sba(iGenerate
Edge
p428
(dp429
g4
I10
sg5
I0
sbaa(lp430
(iGenerate
Edge
p431
(dp432
g4
I0
sg5
I2
sba(iGenerate
Edge
p433
(dp434
g4
I2
sg5
g8
(g12
S'\x04\x00\x00\x00'
p435
tp436
Rp437
sba(iGenerate
Edge
p438
(dp439
g4
g437
sg5
I1
sba(iGenerate
Edge
p440
(dp441
g4
I1
sg5
I3
sba(iGenerate
Edge
p442
(dp443
g4
I3
sg5
I5
sba(iGenerate
Edge
p444
(dp445
g4
I5
sg5
I6
sba(iGenerate
Edge
p446
(dp447
g4
I6
sg5
I7
sba(iGenerate
Edge
p448
(dp449
g4
I7
sg5
I8
sba(iGenerate
Edge
p450
(dp451
g4
I8
sg5
I11
sba(iGenerate
Edge
p452
(dp453
g4
I11
sg5
I9
sba(iGenerate
Edge
p454
(dp455
g4
I9
sg5
I10
sba(iGenerate
Edge
p456
(dp457
g4
I10
sg5
I0
sbaa(lp458
(iGenerate
Edge
p459
(dp460
g4
I0
sg5
I2
sba(iGenerate
Edge
p461
(dp462
g4
I2
sg5
g8
(g12
S'\x04\x00\x00\x00'
p463
tp464
Rp465
sba(iGenerate
Edge
p466
(dp467
g4
g465
sg5
I1
sba(iGenerate
Edge
p468
(dp469
g4
I1
sg5
I3
sba(iGenerate
Edge
p470
(dp471
g4
I3
sg5
I5
sba(iGenerate
Edge
p472
(dp473
g4
I5
sg5
I6
sba(iGenerate
Edge
p474
(dp475
g4
I6
sg5
I7
sba(iGenerate
Edge
p476
(dp477
g4
I7
sg5
I8
sba(iGenerate
Edge
p478
(dp479
g4
I8
sg5
I11
sba(iGenerate
Edge
p480
(dp481
g4
I11
sg5
I9
sba(iGenerate
Edge
p482
(dp483
g4
I9
sg5
I10
sba(iGenerate
Edge
p484
(dp485
g4
I10
sg5
I0
sbaa(lp486
(iGenerate
Edge
p487
(dp488
g4
I0
sg5
I2
sba(iGenerate
Edge
p489
(dp490
g4
I2
sg5
g8
(g12
S'\x04\x00\x00\x00'
p491
tp492
Rp493
sba(iGenerate
Edge
p494
(dp495
g4
g493
sg5
I1
sba(iGenerate
Edge
p496
(dp497
g4
I1
sg5
I3
sba(iGenerate
Edge
p498
(dp499
g4
I3
sg5
I5
sba(iGenerate
Edge
p500
(dp501
g4
I5
sg5
I6
sba(iGenerate
Edge
p502
(dp503
g4
I6
sg5
I7
sba(iGenerate
Edge
p504
(dp505
g4
I7
sg5
I8
sba(iGenerate
Edge
p506
(dp507
g4
I8
sg5
I11
sba(iGenerate
Edge
p508
(dp509
g4
I11
sg5
I9
sba(iGenerate
Edge
p510
(dp511
g4
I9
sg5
I10
sba(iGenerate
Edge
p512
(dp513
g4
I10
sg5
I0
sbaa(lp514
(iGenerate
Edge
p515
(dp516
g4
I0
sg5
I2
sba(iGenerate
Edge
p517
(dp518
g4
I2
sg5
g8
(g12
S'\x04\x00\x00\x00'
p519
tp520
Rp521
sba(iGenerate
Edge
p522
(dp523
g4
g521
sg5
I1
sba(iGenerate
Edge
p524
(dp525
g4
I1
sg5
I3
sba(iGenerate
Edge
p526
(dp527
g4
I3
sg5
I5
sba(iGenerate
Edge
p528
(dp529
g4
I5
sg5
I6
sba(iGenerate
Edge
p530
(dp531
g4
I6
sg5
I7
sba(iGenerate
Edge
p532
(dp533
g4
I7
sg5
I8
sba(iGenerate
Edge
p534
(dp535
g4
I8
sg5
I11
sba(iGenerate
Edge
p536
(dp537
g4
I11
sg5
I9
sba(iGenerate
Edge
p538
(dp539
g4
I9
sg5
I10
sba(iGenerate
Edge
p540
(dp541
g4
I10
sg5
I0
sbaa(lp542
(iGenerate
Edge
p543
(dp544
g4
I0
sg5
I2
sba(iGenerate
Edge
p545
(dp546
g4
I2
sg5
g8
(g12
S'\x04\x00\x00\x00'
p547
tp548
Rp549
sba(iGenerate
Edge
p550
(dp551
g4
g549
sg5
I1
sba(iGenerate
Edge
p552
(dp553
g4
I1
sg5
I3
sba(iGenerate
Edge
p554
(dp555
g4
I3
sg5
I5
sba(iGenerate
Edge
p556
(dp557
g4
I5
sg5
I6
sba(iGenerate
Edge
p558
(dp559
g4
I6
sg5
I7
sba(iGenerate
Edge
p560
(dp561
g4
I7
sg5
I8
sba(iGenerate
Edge
p562
(dp563
g4
I8
sg5
I11
sba(iGenerate
Edge
p564
(dp565
g4
I11
sg5
I9
sba(iGenerate
Edge
p566
(dp567
g4
I9
sg5
I10
sba(iGenerate
Edge
p568
(dp569
g4
I10
sg5
I0
sbaa(lp570
(iGenerate
Edge
p571
(dp572
g4
I0
sg5
I2
sba(iGenerate
Edge
p573
(dp574
g4
I2
sg5
g8
(g12
S'\x04\x00\x00\x00'
p575
tp576
Rp577
sba(iGenerate
Edge
p578
(dp579
g4
g577
sg5
I1
sba(iGenerate
Edge
p580
(dp581
g4
I1
sg5
I3
sba(iGenerate
Edge
p582
(dp583
g4
I3
sg5
I5
sba(iGenerate
Edge
p584
(dp585
g4
I5
sg5
I6
sba(iGenerate
Edge
p586
(dp587
g4
I6
sg5
I7
sba(iGenerate
Edge
p588
(dp589
g4
I7
sg5
I8
sba(iGenerate
Edge
p590
(dp591
g4
I8
sg5
I11
sba(iGenerate
Edge
p592
(dp593
g4
I11
sg5
I9
sba(iGenerate
Edge
p594
(dp595
g4
I9
sg5
I10
sba(iGenerate
Edge
p596
(dp597
g4
I10
sg5
I0
sbaa(lp598
(iGenerate
Edge
p599
(dp600
g4
I0
sg5
I2
sba(iGenerate
Edge
p601
(dp602
g4
I2
sg5
g8
(g12
S'\x04\x00\x00\x00'
p603
tp604
Rp605
sba(iGenerate
Edge
p606
(dp607
g4
g605
sg5
I1
sba(iGenerate
Edge
p608
(dp609
g4
I1
sg5
I3
sba(iGenerate
Edge
p610
(dp611
g4
I3
sg5
I5
sba(iGenerate
Edge
p612
(dp613
g4
I5
sg5
I6
sba(iGenerate
Edge
p614
(dp615
g4
I6
sg5
I7
sba(iGenerate
Edge
p616
(dp617
g4
I7
sg5
I8
sba(iGenerate
Edge
p618
(dp619
g4
I8
sg5
I11
sba(iGenerate
Edge
p620
(dp621
g4
I11
sg5
I9
sba(iGenerate
Edge
p622
(dp623
g4
I9
sg5
I10
sba(iGenerate
Edge
p624
(dp625
g4
I10
sg5
I0
sbaa(lp626
(iGenerate
Edge
p627
(dp628
g4
I0
sg5
I2
sba(iGenerate
Edge
p629
(dp630
g4
I2
sg5
g8
(g12
S'\x04\x00\x00\x00'
p631
tp632
Rp633
sba(iGenerate
Edge
p634
(dp635
g4
g633
sg5
I1
sba(iGenerate
Edge
p636
(dp637
g4
I1
sg5
I3
sba(iGenerate
Edge
p638
(dp639
g4
I3
sg5
I5
sba(iGenerate
Edge
p640
(dp641
g4
I5
sg5
I6
sba(iGenerate
Edge
p642
(dp643
g4
I6
sg5
I7
sba(iGenerate
Edge
p644
(dp645
g4
I7
sg5
I8
sba(iGenerate
Edge
p646
(dp647
g4
I8
sg5
I11
sba(iGenerate
Edge
p648
(dp649
g4
I11
sg5
I9
sba(iGenerate
Edge
p650
(dp651
g4
I9
sg5
I10
sba(iGenerate
Edge
p652
(dp653
g4
I10
sg5
I0
sbaa(lp654
(iGenerate
Edge
p655
(dp656
g4
I0
sg5
I2
sba(iGenerate
Edge
p657
(dp658
g4
I2
sg5
g8
(g12
S'\x04\x00\x00\x00'
p659
tp660
Rp661
sba(iGenerate
Edge
p662
(dp663
g4
g661
sg5
I1
sba(iGenerate
Edge
p664
(dp665
g4
I1
sg5
I3
sba(iGenerate
Edge
p666
(dp667
g4
I3
sg5
I5
sba(iGenerate
Edge
p668
(dp669
g4
I5
sg5
I6
sba(iGenerate
Edge
p670
(dp671
g4
I6
sg5
I7
sba(iGenerate
Edge
p672
(dp673
g4
I7
sg5
I8
sba(iGenerate
Edge
p674
(dp675
g4
I8
sg5
I11
sba(iGenerate
Edge
p676
(dp677
g4
I11
sg5
I9
sba(iGenerate
Edge
p678
(dp679
g4
I9
sg5
I10
sba(iGenerate
Edge
p680
(dp681
g4
I10
sg5
I0
sbaa(lp682
(iGenerate
Edge
p683
(dp684
g4
I0
sg5
I2
sba(iGenerate
Edge
p685
(dp686
g4
I2
sg5
g8
(g12
S'\x04\x00\x00\x00'
p687
tp688
Rp689
sba(iGenerate
Edge
p690
(dp691
g4
g689
sg5
I1
sba(iGenerate
Edge
p692
(dp693
g4
I1
sg5
I3
sba(iGenerate
Edge
p694
(dp695
g4
I3
sg5
I5
sba(iGenerate
Edge
p696
(dp697
g4
I5
sg5
I6
sba(iGenerate
Edge
p698
(dp699
g4
I6
sg5
I7
sba(iGenerate
Edge
p700
(dp701
g4
I7
sg5
I8
sba(iGenerate
Edge
p702
(dp703
g4
I8
sg5
I11
sba(iGenerate
Edge
p704
(dp705
g4
I11
sg5
I9
sba(iGenerate
Edge
p706
(dp707
g4
I9
sg5
I10
sba(iGenerate
Edge
p708
(dp709
g4
I10
sg5
I0
sbaa(lp710
(iGenerate
Edge
p711
(dp712
g4
I0
sg5
I2
sba(iGenerate
Edge
p713
(dp714
g4
I2
sg5
g8
(g12
S'\x04\x00\x00\x00'
p715
tp716
Rp717
sba(iGenerate
Edge
p718
(dp719
g4
g717
sg5
I1
sba(iGenerate
Edge
p720
(dp721
g4
I1
sg5
I3
sba(iGenerate
Edge
p722
(dp723
g4
I3
sg5
I5
sba(iGenerate
Edge
p724
(dp725
g4
I5
sg5
I6
sba(iGenerate
Edge
p726
(dp727
g4
I6
sg5
I7
sba(iGenerate
Edge
p728
(dp729
g4
I7
sg5
I8
sba(iGenerate
Edge
p730
(dp731
g4
I8
sg5
I11
sba(iGenerate
Edge
p732
(dp733
g4
I11
sg5
I9
sba(iGenerate
Edge
p734
(dp735
g4
I9
sg5
I10
sba(iGenerate
Edge
p736
(dp737
g4
I10
sg5
I0
sbaa(lp738
(iGenerate
Edge
p739
(dp740
g4
I0
sg5
I2
sba(iGenerate
Edge
p741
(dp742
g4
I2
sg5
g8
(g12
S'\x04\x00\x00\x00'
p743
tp744
Rp745
sba(iGenerate
Edge
p746
(dp747
g4
g745
sg5
I1
sba(iGenerate
Edge
p748
(dp749
g4
I1
sg5
I3
sba(iGenerate
Edge
p750
(dp751
g4
I3
sg5
I5
sba(iGenerate
Edge
p752
(dp753
g4
I5
sg5
I6
sba(iGenerate
Edge
p754
(dp755
g4
I6
sg5
I7
sba(iGenerate
Edge
p756
(dp757
g4
I7
sg5
I8
sba(iGenerate
Edge
p758
(dp759
g4
I8
sg5
I11
sba(iGenerate
Edge
p760
(dp761
g4
I11
sg5
I9
sba(iGenerate
Edge
p762
(dp763
g4
I9
sg5
I10
sba(iGenerate
Edge
p764
(dp765
g4
I10
sg5
I0
sbaa(lp766
(iGenerate
Edge
p767
(dp768
g4
I0
sg5
I2
sba(iGenerate
Edge
p769
(dp770
g4
I2
sg5
g8
(g12
S'\x04\x00\x00\x00'
p771
tp772
Rp773
sba(iGenerate
Edge
p774
(dp775
g4
g773
sg5
I1
sba(iGenerate
Edge
p776
(dp777
g4
I1
sg5
I3
sba(iGenerate
Edge
p778
(dp779
g4
I3
sg5
I5
sba(iGenerate
Edge
p780
(dp781
g4
I5
sg5
I6
sba(iGenerate
Edge
p782
(dp783
g4
I6
sg5
I7
sba(iGenerate
Edge
p784
(dp785
g4
I7
sg5
I8
sba(iGenerate
Edge
p786
(dp787
g4
I8
sg5
I11
sba(iGenerate
Edge
p788
(dp789
g4
I11
sg5
I9
sba(iGenerate
Edge
p790
(dp791
g4
I9
sg5
I10
sba(iGenerate
Edge
p792
(dp793
g4
I10
sg5
I0
sbaa(lp794
(iGenerate
Edge
p795
(dp796
g4
I0
sg5
I2
sba(iGenerate
Edge
p797
(dp798
g4
I2
sg5
g8
(g12
S'\x04\x00\x00\x00'
p799
tp800
Rp801
sba(iGenerate
Edge
p802
(dp803
g4
g801
sg5
I1
sba(iGenerate
Edge
p804
(dp805
g4
I1
sg5
I3
sba(iGenerate
Edge
p806
(dp807
g4
I3
sg5
I5
sba(iGenerate
Edge
p808
(dp809
g4
I5
sg5
I6
sba(iGenerate
Edge
p810
(dp811
g4
I6
sg5
I7
sba(iGenerate
Edge
p812
(dp813
g4
I7
sg5
I8
sba(iGenerate
Edge
p814
(dp815
g4
I8
sg5
I11
sba(iGenerate
Edge
p816
(dp817
g4
I11
sg5
I9
sba(iGenerate
Edge
p818
(dp819
g4
I9
sg5
I10
sba(iGenerate
Edge
p820
(dp821
g4
I10
sg5
I0
sbaa(lp822
(iGenerate
Edge
p823
(dp824
g4
I0
sg5
I2
sba(iGenerate
Edge
p825
(dp826
g4
I2
sg5
g8
(g12
S'\x04\x00\x00\x00'
p827
tp828
Rp829
sba(iGenerate
Edge
p830
(dp831
g4
g829
sg5
I1
sba(iGenerate
Edge
p832
(dp833
g4
I1
sg5
I3
sba(iGenerate
Edge
p834
(dp835
g4
I3
sg5
I5
sba(iGenerate
Edge
p836
(dp837
g4
I5
sg5
I6
sba(iGenerate
Edge
p838
(dp839
g4
I6
sg5
I7
sba(iGenerate
Edge
p840
(dp841
g4
I7
sg5
I8
sba(iGenerate
Edge
p842
(dp843
g4
I8
sg5
I11
sba(iGenerate
Edge
p844
(dp845
g4
I11
sg5
I9
sba(iGenerate
Edge
p846
(dp847
g4
I9
sg5
I10
sba(iGenerate
Edge
p848
(dp849
g4
I10
sg5
I0
sbaa(lp850
(iGenerate
Edge
p851
(dp852
g4
I0
sg5
I2
sba(iGenerate
Edge
p853
(dp854
g4
I2
sg5
g8
(g12
S'\x04\x00\x00\x00'
p855
tp856
Rp857
sba(iGenerate
Edge
p858
(dp859
g4
g857
sg5
I1
sba(iGenerate
Edge
p860
(dp861
g4
I1
sg5
I3
sba(iGenerate
Edge
p862
(dp863
g4
I3
sg5
I5
sba(iGenerate
Edge
p864
(dp865
g4
I5
sg5
I6
sba(iGenerate
Edge
p866
(dp867
g4
I6
sg5
I7
sba(iGenerate
Edge
p868
(dp869
g4
I7
sg5
I8
sba(iGenerate
Edge
p870
(dp871
g4
I8
sg5
I11
sba(iGenerate
Edge
p872
(dp873
g4
I11
sg5
I9
sba(iGenerate
Edge
p874
(dp875
g4
I9
sg5
I10
sba(iGenerate
Edge
p876
(dp877
g4
I10
sg5
I0
sbaa(lp878
(iGenerate
Edge
p879
(dp880
g4
I0
sg5
I2
sba(iGenerate
Edge
p881
(dp882
g4
I2
sg5
g8
(g12
S'\x04\x00\x00\x00'
p883
tp884
Rp885
sba(iGenerate
Edge
p886
(dp887
g4
g885
sg5
I1
sba(iGenerate
Edge
p888
(dp889
g4
I1
sg5
I3
sba(iGenerate
Edge
p890
(dp891
g4
I3
sg5
I5
sba(iGenerate
Edge
p892
(dp893
g4
I5
sg5
I6
sba(iGenerate
Edge
p894
(dp895
g4
I6
sg5
I7
sba(iGenerate
Edge
p896
(dp897
g4
I7
sg5
I8
sba(iGenerate
Edge
p898
(dp899
g4
I8
sg5
I11
sba(iGenerate
Edge
p900
(dp901
g4
I11
sg5
I9
sba(iGenerate
Edge
p902
(dp903
g4
I9
sg5
I10
sba(iGenerate
Edge
p904
(dp905
g4
I10
sg5
I0
sbaa(lp906
(iGenerate
Edge
p907
(dp908
g4
I0
sg5
I2
sba(iGenerate
Edge
p909
(dp910
g4
I2
sg5
g8
(g12
S'\x04\x00\x00\x00'
p911
tp912
Rp913
sba(iGenerate
Edge
p914
(dp915
g4
g913
sg5
I1
sba(iGenerate
Edge
p916
(dp917
g4
I1
sg5
I3
sba(iGenerate
Edge
p918
(dp919
g4
I3
sg5
I5
sba(iGenerate
Edge
p920
(dp921
g4
I5
sg5
I6
sba(iGenerate
Edge
p922
(dp923
g4
I6
sg5
I7
sba(iGenerate
Edge
p924
(dp925
g4
I7
sg5
I8
sba(iGenerate
Edge
p926
(dp927
g4
I8
sg5
I11
sba(iGenerate
Edge
p928
(dp929
g4
I11
sg5
I9
sba(iGenerate
Edge
p930
(dp931
g4
I9
sg5
I10
sba(iGenerate
Edge
p932
(dp933
g4
I10
sg5
I0
sbaa(lp934
(iGenerate
Edge
p935
(dp936
g4
I0
sg5
I2
sba(iGenerate
Edge
p937
(dp938
g4
I2
sg5
g8
(g12
S'\x04\x00\x00\x00'
p939
tp940
Rp941
sba(iGenerate
Edge
p942
(dp943
g4
g941
sg5
I1
sba(iGenerate
Edge
p944
(dp945
g4
I1
sg5
I3
sba(iGenerate
Edge
p946
(dp947
g4
I3
sg5
I5
sba(iGenerate
Edge
p948
(dp949
g4
I5
sg5
I6
sba(iGenerate
Edge
p950
(dp951
g4
I6
sg5
I7
sba(iGenerate
Edge
p952
(dp953
g4
I7
sg5
I8
sba(iGenerate
Edge
p954
(dp955
g4
I8
sg5
I11
sba(iGenerate
Edge
p956
(dp957
g4
I11
sg5
I9
sba(iGenerate
Edge
p958
(dp959
g4
I9
sg5
I10
sba(iGenerate
Edge
p960
(dp961
g4
I10
sg5
I0
sbaa(lp962
(iGenerate
Edge
p963
(dp964
g4
I0
sg5
I2
sba(iGenerate
Edge
p965
(dp966
g4
I2
sg5
g8
(g12
S'\x04\x00\x00\x00'
p967
tp968
Rp969
sba(iGenerate
Edge
p970
(dp971
g4
g969
sg5
I1
sba(iGenerate
Edge
p972
(dp973
g4
I1
sg5
I3
sba(iGenerate
Edge
p974
(dp975
g4
I3
sg5
I5
sba(iGenerate
Edge
p976
(dp977
g4
I5
sg5
I6
sba(iGenerate
Edge
p978
(dp979
g4
I6
sg5
I7
sba(iGenerate
Edge
p980
(dp981
g4
I7
sg5
I8
sba(iGenerate
Edge
p982
(dp983
g4
I8
sg5
I11
sba(iGenerate
Edge
p984
(dp985
g4
I11
sg5
I9
sba(iGenerate
Edge
p986
(dp987
g4
I9
sg5
I10
sba(iGenerate
Edge
p988
(dp989
g4
I10
sg5
I0
sbaa(lp990
(iGenerate
Edge
p991
(dp992
g4
I0
sg5
I2
sba(iGenerate
Edge
p993
(dp994
g4
I2
sg5
g8
(g12
S'\x04\x00\x00\x00'
p995
tp996
Rp997
sba(iGenerate
Edge
p998
(dp999
g4
g997
sg5
I1
sba(iGenerate
Edge
p1000
(dp1001
g4
I1
sg5
I3
sba(iGenerate
Edge
p1002
(dp1003
g4
I3
sg5
I5
sba(iGenerate
Edge
p1004
(dp1005
g4
I5
sg5
I6
sba(iGenerate
Edge
p1006
(dp1007
g4
I6
sg5
I7
sba(iGenerate
Edge
p1008
(dp1009
g4
I7
sg5
I8
sba(iGenerate
Edge
p1010
(dp1011
g4
I8
sg5
I11
sba(iGenerate
Edge
p1012
(dp1013
g4
I11
sg5
I9
sba(iGenerate
Edge
p1014
(dp1015
g4
I9
sg5
I10
sba(iGenerate
Edge
p1016
(dp1017
g4
I10
sg5
I0
sbaa(lp1018
(iGenerate
Edge
p1019
(dp1020
g4
I0
sg5
I2
sba(iGenerate
Edge
p1021
(dp1022
g4
I2
sg5
g8
(g12
S'\x04\x00\x00\x00'
p1023
tp1024
Rp1025
sba(iGenerate
Edge
p1026
(dp1027
g4
g1025
sg5
I1
sba(iGenerate
Edge
p1028
(dp1029
g4
I1
sg5
I3
sba(iGenerate
Edge
p1030
(dp1031
g4
I3
sg5
I5
sba(iGenerate
Edge
p1032
(dp1033
g4
I5
sg5
I6
sba(iGenerate
Edge
p1034
(dp1035
g4
I6
sg5
I7
sba(iGenerate
Edge
p1036
(dp1037
g4
I7
sg5
I8
sba(iGenerate
Edge
p1038
(dp1039
g4
I8
sg5
I11
sba(iGenerate
Edge
p1040
(dp1041
g4
I11
sg5
I9
sba(iGenerate
Edge
p1042
(dp1043
g4
I9
sg5
I10
sba(iGenerate
Edge
p1044
(dp1045
g4
I10
sg5
I0
sbaa(lp1046
(iGenerate
Edge
p1047
(dp1048
g4
I0
sg5
I2
sba(iGenerate
Edge
p1049
(dp1050
g4
I2
sg5
g8
(g12
S'\x04\x00\x00\x00'
p1051
tp1052
Rp1053
sba(iGenerate
Edge
p1054
(dp1055
g4
g1053
sg5
I1
sba(iGenerate
Edge
p1056
(dp1057
g4
I1
sg5
I3
sba(iGenerate
Edge
p1058
(dp1059
g4
I3
sg5
I5
sba(iGenerate
Edge
p1060
(dp1061
g4
I5
sg5
I6
sba(iGenerate
Edge
p1062
(dp1063
g4
I6
sg5
I7
sba(iGenerate
Edge
p1064
(dp1065
g4
I7
sg5
I8
sba(iGenerate
Edge
p1066
(dp1067
g4
I8
sg5
I11
sba(iGenerate
Edge
p1068
(dp1069
g4
I11
sg5
I9
sba(iGenerate
Edge
p1070
(dp1071
g4
I9
sg5
I10
sba(iGenerate
Edge
p1072
(dp1073
g4
I10
sg5
I0
sbaa(lp1074
(iGenerate
Edge
p1075
(dp1076
g4
I0
sg5
I2
sba(iGenerate
Edge
p1077
(dp1078
g4
I2
sg5
g8
(g12
S'\x04\x00\x00\x00'
p1079
tp1080
Rp1081
sba(iGenerate
Edge
p1082
(dp1083
g4
g1081
sg5
I1
sba(iGenerate
Edge
p1084
(dp1085
g4
I1
sg5
I3
sba(iGenerate
Edge
p1086
(dp1087
g4
I3
sg5
I5
sba(iGenerate
Edge
p1088
(dp1089
g4
I5
sg5
I6
sba(iGenerate
Edge
p1090
(dp1091
g4
I6
sg5
I7
sba(iGenerate
Edge
p1092
(dp1093
g4
I7
sg5
I8
sba(iGenerate
Edge
p1094
(dp1095
g4
I8
sg5
I11
sba(iGenerate
Edge
p1096
(dp1097
g4
I11
sg5
I9
sba(iGenerate
Edge
p1098
(dp1099
g4
I9
sg5
I10
sba(iGenerate
Edge
p1100
(dp1101
g4
I10
sg5
I0
sbaa(lp1102
(iGenerate
Edge
p1103
(dp1104
g4
I0
sg5
I2
sba(iGenerate
Edge
p1105
(dp1106
g4
I2
sg5
g8
(g12
S'\x04\x00\x00\x00'
p1107
tp1108
Rp1109
sba(iGenerate
Edge
p1110
(dp1111
g4
g1109
sg5
I1
sba(iGenerate
Edge
p1112
(dp1113
g4
I1
sg5
I3
sba(iGenerate
Edge
p1114
(dp1115
g4
I3
sg5
I5
sba(iGenerate
Edge
p1116
(dp1117
g4
I5
sg5
I6
sba(iGenerate
Edge
p1118
(dp1119
g4
I6
sg5
I7
sba(iGenerate
Edge
p1120
(dp1121
g4
I7
sg5
I8
sba(iGenerate
Edge
p1122
(dp1123
g4
I8
sg5
I11
sba(iGenerate
Edge
p1124
(dp1125
g4
I11
sg5
I9
sba(iGenerate
Edge
p1126
(dp1127
g4
I9
sg5
I10
sba(iGenerate
Edge
p1128
(dp1129
g4
I10
sg5
I0
sbaa(lp1130
(iGenerate
Edge
p1131
(dp1132
g4
I0
sg5
I2
sba(iGenerate
Edge
p1133
(dp1134
g4
I2
sg5
g8
(g12
S'\x04\x00\x00\x00'
p1135
tp1136
Rp1137
sba(iGenerate
Edge
p1138
(dp1139
g4
g1137
sg5
I1
sba(iGenerate
Edge
p1140
(dp1141
g4
I1
sg5
I3
sba(iGenerate
Edge
p1142
(dp1143
g4
I3
sg5
I5
sba(iGenerate
Edge
p1144
(dp1145
g4
I5
sg5
I6
sba(iGenerate
Edge
p1146
(dp1147
g4
I6
sg5
I7
sba(iGenerate
Edge
p1148
(dp1149
g4
I7
sg5
I8
sba(iGenerate
Edge
p1150
(dp1151
g4
I8
sg5
I11
sba(iGenerate
Edge
p1152
(dp1153
g4
I11
sg5
I9
sba(iGenerate
Edge
p1154
(dp1155
g4
I9
sg5
I10
sba(iGenerate
Edge
p1156
(dp1157
g4
I10
sg5
I0
sbaa(lp1158
(iGenerate
Edge
p1159
(dp1160
g4
I0
sg5
I2
sba(iGenerate
Edge
p1161
(dp1162
g4
I2
sg5
g8
(g12
S'\x04\x00\x00\x00'
p1163
tp1164
Rp1165
sba(iGenerate
Edge
p1166
(dp1167
g4
g1165
sg5
I1
sba(iGenerate
Edge
p1168
(dp1169
g4
I1
sg5
I3
sba(iGenerate
Edge
p1170
(dp1171
g4
I3
sg5
I5
sba(iGenerate
Edge
p1172
(dp1173
g4
I5
sg5
I6
sba(iGenerate
Edge
p1174
(dp1175
g4
I6
sg5
I7
sba(iGenerate
Edge
p1176
(dp1177
g4
I7
sg5
I8
sba(iGenerate
Edge
p1178
(dp1179
g4
I8
sg5
I11
sba(iGenerate
Edge
p1180
(dp1181
g4
I11
sg5
I9
sba(iGenerate
Edge
p1182
(dp1183
g4
I9
sg5
I10
sba(iGenerate
Edge
p1184
(dp1185
g4
I10
sg5
I0
sbaa(lp1186
(iGenerate
Edge
p1187
(dp1188
g4
I0
sg5
I2
sba(iGenerate
Edge
p1189
(dp1190
g4
I2
sg5
g8
(g12
S'\x04\x00\x00\x00'
p1191
tp1192
Rp1193
sba(iGenerate
Edge
p1194
(dp1195
g4
g1193
sg5
I1
sba(iGenerate
Edge
p1196
(dp1197
g4
I1
sg5
I3
sba(iGenerate
Edge
p1198
(dp1199
g4
I3
sg5
I5
sba(iGenerate
Edge
p1200
(dp1201
g4
I5
sg5
I6
sba(iGenerate
Edge
p1202
(dp1203
g4
I6
sg5
I7
sba(iGenerate
Edge
p1204
(dp1205
g4
I7
sg5
I8
sba(iGenerate
Edge
p1206
(dp1207
g4
I8
sg5
I11
sba(iGenerate
Edge
p1208
(dp1209
g4
I11
sg5
I9
sba(iGenerate
Edge
p1210
(dp1211
g4
I9
sg5
I10
sba(iGenerate
Edge
p1212
(dp1213
g4
I10
sg5
I0
sbaa(lp1214
(iGenerate
Edge
p1215
(dp1216
g4
I0
sg5
I2
sba(iGenerate
Edge
p1217
(dp1218
g4
I2
sg5
g8
(g12
S'\x04\x00\x00\x00'
p1219
tp1220
Rp1221
sba(iGenerate
Edge
p1222
(dp1223
g4
g1221
sg5
I1
sba(iGenerate
Edge
p1224
(dp1225
g4
I1
sg5
I3
sba(iGenerate
Edge
p1226
(dp1227
g4
I3
sg5
I5
sba(iGenerate
Edge
p1228
(dp1229
g4
I5
sg5
I6
sba(iGenerate
Edge
p1230
(dp1231
g4
I6
sg5
I7
sba(iGenerate
Edge
p1232
(dp1233
g4
I7
sg5
I8
sba(iGenerate
Edge
p1234
(dp1235
g4
I8
sg5
I11
sba(iGenerate
Edge
p1236
(dp1237
g4
I11
sg5
I9
sba(iGenerate
Edge
p1238
(dp1239
g4
I9
sg5
I10
sba(iGenerate
Edge
p1240
(dp1241
g4
I10
sg5
I0
sbaa(lp1242
(iGenerate
Edge
p1243
(dp1244
g4
I0
sg5
I2
sba(iGenerate
Edge
p1245
(dp1246
g4
I2
sg5
g8
(g12
S'\x04\x00\x00\x00'
p1247
tp1248
Rp1249
sba(iGenerate
Edge
p1250
(dp1251
g4
g1249
sg5
I1
sba(iGenerate
Edge
p1252
(dp1253
g4
I1
sg5
I3
sba(iGenerate
Edge
p1254
(dp1255
g4
I3
sg5
I5
sba(iGenerate
Edge
p1256
(dp1257
g4
I5
sg5
I6
sba(iGenerate
Edge
p1258
(dp1259
g4
I6
sg5
I7
sba(iGenerate
Edge
p1260
(dp1261
g4
I7
sg5
I8
sba(iGenerate
Edge
p1262
(dp1263
g4
I8
sg5
I11
sba(iGenerate
Edge
p1264
(dp1265
g4
I11
sg5
I9
sba(iGenerate
Edge
p1266
(dp1267
g4
I9
sg5
I10
sba(iGenerate
Edge
p1268
(dp1269
g4
I10
sg5
I0
sbaa(lp1270
(iGenerate
Edge
p1271
(dp1272
g4
I0
sg5
I2
sba(iGenerate
Edge
p1273
(dp1274
g4
I2
sg5
g8
(g12
S'\x04\x00\x00\x00'
p1275
tp1276
Rp1277
sba(iGenerate
Edge
p1278
(dp1279
g4
g1277
sg5
I1
sba(iGenerate
Edge
p1280
(dp1281
g4
I1
sg5
I3
sba(iGenerate
Edge
p1282
(dp1283
g4
I3
sg5
I5
sba(iGenerate
Edge
p1284
(dp1285
g4
I5
sg5
I6
sba(iGenerate
Edge
p1286
(dp1287
g4
I6
sg5
I7
sba(iGenerate
Edge
p1288
(dp1289
g4
I7
sg5
I8
sba(iGenerate
Edge
p1290
(dp1291
g4
I8
sg5
I11
sba(iGenerate
Edge
p1292
(dp1293
g4
I11
sg5
I9
sba(iGenerate
Edge
p1294
(dp1295
g4
I9
sg5
I10
sba(iGenerate
Edge
p1296
(dp1297
g4
I10
sg5
I0
sbaa(lp1298
(iGenerate
Edge
p1299
(dp1300
g4
I0
sg5
I2
sba(iGenerate
Edge
p1301
(dp1302
g4
I2
sg5
g8
(g12
S'\x04\x00\x00\x00'
p1303
tp1304
Rp1305
sba(iGenerate
Edge
p1306
(dp1307
g4
g1305
sg5
I1
sba(iGenerate
Edge
p1308
(dp1309
g4
I1
sg5
I3
sba(iGenerate
Edge
p1310
(dp1311
g4
I3
sg5
I5
sba(iGenerate
Edge
p1312
(dp1313
g4
I5
sg5
I6
sba(iGenerate
Edge
p1314
(dp1315
g4
I6
sg5
I7
sba(iGenerate
Edge
p1316
(dp1317
g4
I7
sg5
I8
sba(iGenerate
Edge
p1318
(dp1319
g4
I8
sg5
I11
sba(iGenerate
Edge
p1320
(dp1321
g4
I11
sg5
I9
sba(iGenerate
Edge
p1322
(dp1323
g4
I9
sg5
I10
sba(iGenerate
Edge
p1324
(dp1325
g4
I10
sg5
I0
sbaa(lp1326
(iGenerate
Edge
p1327
(dp1328
g4
I0
sg5
I2
sba(iGenerate
Edge
p1329
(dp1330
g4
I2
sg5
g8
(g12
S'\x04\x00\x00\x00'
p1331
tp1332
Rp1333
sba(iGenerate
Edge
p1334
(dp1335
g4
g1333
sg5
I1
sba(iGenerate
Edge
p1336
(dp1337
g4
I1
sg5
I3
sba(iGenerate
Edge
p1338
(dp1339
g4
I3
sg5
I5
sba(iGenerate
Edge
p1340
(dp1341
g4
I5
sg5
I6
sba(iGenerate
Edge
p1342
(dp1343
g4
I6
sg5
I7
sba(iGenerate
Edge
p1344
(dp1345
g4
I7
sg5
I8
sba(iGenerate
Edge
p1346
(dp1347
g4
I8
sg5
I11
sba(iGenerate
Edge
p1348
(dp1349
g4
I11
sg5
I9
sba(iGenerate
Edge
p1350
(dp1351
g4
I9
sg5
I10
sba(iGenerate
Edge
p1352
(dp1353
g4
I10
sg5
I0
sbaa(lp1354
(iGenerate
Edge
p1355
(dp1356
g4
I0
sg5
I2
sba(iGenerate
Edge
p1357
(dp1358
g4
I2
sg5
g8
(g12
S'\x04\x00\x00\x00'
p1359
tp1360
Rp1361
sba(iGenerate
Edge
p1362
(dp1363
g4
g1361
sg5
I1
sba(iGenerate
Edge
p1364
(dp1365
g4
I1
sg5
I3
sba(iGenerate
Edge
p1366
(dp1367
g4
I3
sg5
I5
sba(iGenerate
Edge
p1368
(dp1369
g4
I5
sg5
I6
sba(iGenerate
Edge
p1370
(dp1371
g4
I6
sg5
I7
sba(iGenerate
Edge
p1372
(dp1373
g4
I7
sg5
I8
sba(iGenerate
Edge
p1374
(dp1375
g4
I8
sg5
I11
sba(iGenerate
Edge
p1376
(dp1377
g4
I11
sg5
I9
sba(iGenerate
Edge
p1378
(dp1379
g4
I9
sg5
I10
sba(iGenerate
Edge
p1380
(dp1381
g4
I10
sg5
I0
sbaa(lp1382
(iGenerate
Edge
p1383
(dp1384
g4
I0
sg5
I2
sba(iGenerate
Edge
p1385
(dp1386
g4
I2
sg5
g8
(g12
S'\x04\x00\x00\x00'
p1387
tp1388
Rp1389
sba(iGenerate
Edge
p1390
(dp1391
g4
g1389
sg5
I1
sba(iGenerate
Edge
p1392
(dp1393
g4
I1
sg5
I3
sba(iGenerate
Edge
p1394
(dp1395
g4
I3
sg5
I5
sba(iGenerate
Edge
p1396
(dp1397
g4
I5
sg5
I6
sba(iGenerate
Edge
p1398
(dp1399
g4
I6
sg5
I7
sba(iGenerate
Edge
p1400
(dp1401
g4
I7
sg5
I8
sba(iGenerate
Edge
p1402
(dp1403
g4
I8
sg5
I11
sba(iGenerate
Edge
p1404
(dp1405
g4
I11
sg5
I9
sba(iGenerate
Edge
p1406
(dp1407
g4
I9
sg5
I10
sba(iGenerate
Edge
p1408
(dp1409
g4
I10
sg5
I0
sbaa.