(lp0
(iGenerate
UnitDiskGraph
p1
(dp2
S'e'
p3
cnumpy.core.multiarray
scalar
p4
(cnumpy
dtype
p5
(S'f8'
p6
I0
I1
tp7
Rp8
(I3
S'<'
p9
NNNI-1
I-1
I0
tp10
bS'\x00\x00\x00\x00\x00\x00\xe0?'
p11
tp12
Rp13
sS'vertices'
p14
(lp15
(F59.65230371364403
F7.935308707657363
tp16
a(F96.35136320246632
F39.71918105501141
tp17
a(F59.74135857324758
F74.9823051434059
tp18
a(F2.1961926022208256
F34.41993970862167
tp19
a(F92.66691422657615
F3.5540811692878815
tp20
a(F56.23550473323964
F78.10153357986029
tp21
a(F20.339272868670133
F54.23918660851744
tp22
a(F81.32518838785116
F41.33737323497411
tp23
a(F56.99917725084336
F7.13129586010699
tp24
a(F7.890523292199115
F75.72870833289784
tp25
asS'n'
p26
I10
sS'edges'
p27
(lp28
(lp29
a(lp30
I0
aa(lp31
I0
aI0
aa(lp32
I0
aI0
aI0
aa(lp33
I0
aI0
aI0
aI0
aa(lp34
I0
aI0
aI1
aI0
aI0
aa(lp35
I0
aI0
aI0
aI1
aI0
aI1
aa(lp36
I1
aI1
aI1
aI0
aI1
aI0
aI0
aa(lp37
I1
aI0
aI0
aI0
aI1
aI0
aI0
aI1
aa(lp38
I0
aI0
aI0
aI0
aI0
aI0
aI1
aI0
aI0
aasS'distance_table'
p39
NsS'max_distance'
p40
F43.10395648958097
sS'full_edges'
p41
(lp42
(lp43
a(lp44
I0
aa(lp45
I0
aI0
aa(lp46
I0
aI0
aI0
aa(lp47
I1
aI1
aI0
aI0
aa(lp48
I0
aI0
aI1
aI0
aI0
aa(lp49
I0
aI0
aI0
aI1
aI0
aI1
aa(lp50
I1
aI1
aI1
aI0
aI1
aI0
aI0
aa(lp51
I1
aI0
aI0
aI0
aI1
aI0
aI0
aI1
aa(lp52
I0
aI0
aI0
aI1
aI0
aI0
aI1
aI0
aI0
aasba(iGenerate
UnitDiskGraph
p53
(dp54
g3
g13
sg14
(lp55
(F75.96140740855478
F44.22237671192586
tp56
a(F29.290685038490206
F72.63676237685738
tp57
a(F21.53762732055663
F42.751966169090075
tp58
a(F37.74217322657984
F33.92894465371422
tp59
a(F28.13592297554467
F72.98626332126749
tp60
a(F29.44456327455932
F11.7171701958108
tp61
a(F87.24339883341375
F51.96037879170129
tp62
a(F20.13921816634664
F65.41114291274579
tp63
a(F84.12781157315418
F32.51133184635474
tp64
a(F73.57579870584702
F3.0054253249530927
tp65
asg26
I10
sg27
(lp66
(lp67
a(lp68
I0
aa(lp69
I0
aI1
aa(lp70
I1
aI0
aI0
aa(lp71
I0
aI1
aI1
aI0
aa(lp72
I0
aI0
aI1
aI1
aI0
aa(lp73
I1
aI0
aI0
aI0
aI0
aI0
aa(lp74
I0
aI1
aI1
aI1
aI0
aI0
aI0
aa(lp75
I1
aI0
aI0
aI0
aI0
aI0
aI0
aI0
aa(lp76
I0
aI0
aI0
aI0
aI0
aI0
aI0
aI0
aI1
aasg39
Nsg40
F39.581114246489584
sg41
(lp77
(lp78
a(lp79
I0
aa(lp80
I0
aI1
aa(lp81
I1
aI0
aI1
aa(lp82
I0
aI1
aI1
aI0
aa(lp83
I0
aI0
aI1
aI1
aI0
aa(lp84
I1
aI0
aI0
aI0
aI0
aI0
aa(lp85
I0
aI1
aI1
aI1
aI1
aI0
aI0
aa(lp86
I1
aI0
aI0
aI0
aI0
aI0
aI1
aI0
aa(lp87
I0
aI0
aI0
aI0
aI0
aI0
aI0
aI0
aI1
aasba(iGenerate
UnitDiskGraph
p88
(dp89
g3
g13
sg14
(lp90
(F57.909617553851646
F90.06246925073637
tp91
a(F32.45331335133279
F85.7747085385945
tp92
a(F97.92614496575584
F57.090329194325854
tp93
a(F2.246219318052989
F45.368388384355654
tp94
a(F2.2948693651201335
F24.576754721249372
tp95
a(F2.0420518909074037
F69.69110904472264
tp96
a(F11.41346209477211
F37.44413858343937
tp97
a(F45.530116311073485
F73.86668784888242
tp98
a(F8.331989539473705
F90.52807674110029
tp99
a(F22.73558455420809
F22.604088323632755
tp100
asg26
I10
sg27
(lp101
(lp102
a(lp103
I1
aa(lp104
I1
aI0
aa(lp105
I0
aI1
aI0
aa(lp106
I0
aI0
aI0
aI0
aa(lp107
I0
aI1
aI0
aI0
aI0
aa(lp108
I0
aI0
aI0
aI0
aI1
aI1
aa(lp109
I1
aI0
aI0
aI1
aI0
aI1
aI1
aa(lp110
I1
aI1
aI0
aI0
aI0
aI0
aI0
aI0
aa(lp111
I0
aI0
aI0
aI1
aI1
aI1
aI1
aI0
aI0
aasg39
Nsg40
F51.85059774011511
sg41
(lp112
(lp113
a(lp114
I1
aa(lp115
I1
aI0
aa(lp116
I0
aI1
aI0
aa(lp117
I0
aI0
aI0
aI1
aa(lp118
I0
aI1
aI0
aI1
aI1
aa(lp119
I0
aI0
aI0
aI1
aI1
aI1
aa(lp120
I1
aI1
aI0
aI1
aI0
aI1
aI1
aa(lp121
I1
aI1
aI0
aI1
aI0
aI1
aI0
aI1
aa(lp122
I0
aI0
aI0
aI1
aI1
aI1
aI1
aI0
aI0
aasba(iGenerate
UnitDiskGraph
p123
(dp124
g3
g13
sg14
(lp125
(F30.008868923724474
F72.91046349548544
tp126
a(F17.166589224700747
F17.006814255628754
tp127
a(F16.488530416589708
F81.20031524648503
tp128
a(F21.451180801642057
F9.012711310292332
tp129
a(F1.943039087185261
F20.033648696298133
tp130
a(F70.5613524794614
F59.1954355527679
tp131
a(F65.14929249666052
F51.133162395077704
tp132
a(F58.06900967181424
F95.2580410230553
tp133
a(F78.53365439152624
F33.936076095774226
tp134
a(F38.79099667587478
F72.55610327324688
tp135
asg26
I10
sg27
(lp136
(lp137
a(lp138
I1
aa(lp139
I0
aI0
aa(lp140
I0
aI1
aI0
aa(lp141
I0
aI0
aI0
aI1
aa(lp142
I1
aI0
aI0
aI0
aI0
aa(lp143
I1
aI0
aI1
aI0
aI0
aI1
aa(lp144
I0
aI0
aI1
aI0
aI0
aI1
aI1
aa(lp145
I0
aI0
aI0
aI0
aI0
aI0
aI1
aI0
aa(lp146
I0
aI0
aI0
aI0
aI0
aI1
aI1
aI1
aI1
aasg39
Nsg40
F57.359760688141705
sg41
(lp147
(lp148
a(lp149
I1
aa(lp150
I1
aI0
aa(lp151
I0
aI1
aI0
aa(lp152
I0
aI1
aI0
aI1
aa(lp153
I1
aI0
aI0
aI0
aI0
aa(lp154
I1
aI0
aI1
aI0
aI0
aI1
aa(lp155
I1
aI0
aI1
aI0
aI0
aI1
aI1
aa(lp156
I0
aI0
aI0
aI0
aI0
aI1
aI1
aI0
aa(lp157
I1
aI0
aI1
aI0
aI0
aI1
aI1
aI1
aI1
aasba(iGenerate
UnitDiskGraph
p158
(dp159
g3
g13
sg14
(lp160
(F46.70762781910456
F98.1675323710102
tp161
a(F80.92264499770286
F40.4354019788515
tp162
a(F70.62958940779014
F9.440970622088429
tp163
a(F54.46501808492072
F56.1315291740079
tp164
a(F50.238803055925786
F61.69669749927884
tp165
a(F43.811250531254395
F66.31361065108301
tp166
a(F25.267897553367003
F59.18660766067207
tp167
a(F41.927986800854946
F70.7738092746038
tp168
a(F26.9387233928185
F35.27767235758932
tp169
a(F38.294383492325125
F11.853322941903377
tp170
asg26
I10
sg27
(lp171
(lp172
a(lp173
I0
aa(lp174
I0
aI0
aa(lp175
I0
aI1
aI0
aa(lp176
I0
aI0
aI0
aI1
aa(lp177
I1
aI0
aI0
aI1
aI1
aa(lp178
I0
aI0
aI0
aI0
aI0
aI1
aa(lp179
I1
aI0
aI0
aI1
aI0
aI1
aI0
aa(lp180
I0
aI0
aI0
aI0
aI0
aI0
aI1
aI0
aa(lp181
I0
aI0
aI1
aI0
aI0
aI0
aI0
aI0
aI1
aasg39
Nsg40
F32.42506723679135
sg41
(lp182
(lp183
a(lp184
I0
aa(lp185
I0
aI0
aa(lp186
I0
aI1
aI0
aa(lp187
I0
aI0
aI0
aI1
aa(lp188
I1
aI0
aI0
aI1
aI1
aa(lp189
I0
aI0
aI0
aI1
aI1
aI1
aa(lp190
I1
aI0
aI0
aI1
aI1
aI1
aI1
aa(lp191
I0
aI0
aI0
aI0
aI0
aI0
aI1
aI0
aa(lp192
I0
aI0
aI1
aI0
aI0
aI0
aI0
aI0
aI1
aasba(iGenerate
UnitDiskGraph
p193
(dp194
g3
g13
sg14
(lp195
(F24.72487600042833
F56.990956876737364
tp196
a(F1.9010791626303036
F77.79228628962828
tp197
a(F34.24319126188233
F23.67620670669053
tp198
a(F27.788212427888514
F16.800090968689872
tp199
a(F3.5270727978632066
F8.201262967708056
tp200
a(F50.69152112243497
F85.03322778176458
tp201
a(F85.72506657783683
F8.269996824820346
tp202
a(F32.91802561709849
F27.129974271364777
tp203
a(F64.78198350631862
F38.42140966561487
tp204
a(F57.27630310121909
F17.009816793038922
tp205
asg26
I10
sg27
(lp206
(lp207
a(lp208
I1
aa(lp209
I0
aI0
aa(lp210
I0
aI0
aI1
aa(lp211
I0
aI0
aI1
aI1
aa(lp212
I1
aI0
aI0
aI0
aI0
aa(lp213
I0
aI0
aI0
aI0
aI0
aI0
aa(lp214
I1
aI0
aI1
aI0
aI0
aI0
aI0
aa(lp215
I0
aI0
aI1
aI0
aI0
aI0
aI1
aI1
aa(lp216
I0
aI0
aI1
aI1
aI0
aI0
aI0
aI0
aI1
aasg39
Nsg40
F38.21826286480283
sg41
(lp217
(lp218
a(lp219
I1
aa(lp220
I1
aI0
aa(lp221
I0
aI0
aI1
aa(lp222
I0
aI0
aI1
aI1
aa(lp223
I1
aI0
aI0
aI0
aI0
aa(lp224
I0
aI0
aI0
aI0
aI0
aI0
aa(lp225
I1
aI0
aI1
aI1
aI1
aI0
aI0
aa(lp226
I0
aI0
aI1
aI0
aI0
aI0
aI1
aI1
aa(lp227
I0
aI0
aI1
aI1
aI0
aI0
aI1
aI1
aI1
aasba(iGenerate
UnitDiskGraph
p228
(dp229
g3
g13
sg14
(lp230
(F78.52450480710601
F67.46559912286575
tp231
a(F10.9296650885663
F63.521151009063345
tp232
a(F22.810154494966028
F51.6843845246757
tp233
a(F29.981206700516406
F40.66524832534463
tp234
a(F45.803097222496326
F53.79217277307022
tp235
a(F16.21873741579688
F1.736116137237187
tp236
a(F47.759577906646534
F77.60108524715663
tp237
a(F15.440593289596272
F15.595963328396934
tp238
a(F47.3844773979621
F51.69961555104665
tp239
a(F86.9925989584704
F50.98308062886592
tp240
asg26
I10
sg27
(lp241
(lp242
a(lp243
I0
aa(lp244
I0
aI0
aa(lp245
I0
aI1
aI1
aa(lp246
I0
aI0
aI1
aI1
aa(lp247
I0
aI0
aI0
aI0
aI0
aa(lp248
I1
aI0
aI0
aI0
aI0
aI0
aa(lp249
I0
aI0
aI0
aI1
aI0
aI1
aI0
aa(lp250
I0
aI0
aI0
aI1
aI1
aI0
aI1
aI0
aa(lp251
I1
aI0
aI0
aI0
aI0
aI0
aI0
aI0
aI0
aasg39
Nsg40
F32.39149280546218
sg41
(lp252
(lp253
a(lp254
I0
aa(lp255
I0
aI1
aa(lp256
I0
aI1
aI1
aa(lp257
I0
aI0
aI1
aI1
aa(lp258
I0
aI0
aI0
aI0
aI0
aa(lp259
I1
aI0
aI0
aI0
aI1
aI0
aa(lp260
I0
aI0
aI0
aI1
aI0
aI1
aI0
aa(lp261
I0
aI0
aI1
aI1
aI1
aI0
aI1
aI0
aa(lp262
I1
aI0
aI0
aI0
aI0
aI0
aI0
aI0
aI0
aasba(iGenerate
UnitDiskGraph
p263
(dp264
g3
g13
sg14
(lp265
(F52.184864048257765
F79.85252932719352
tp266
a(F86.250869770526
F39.73270022940768
tp267
a(F38.54193803553915
F76.80754933438581
tp268
a(F97.54529884373336
F13.914196777356814
tp269
a(F86.19422383374136
F47.69831767969998
tp270
a(F43.442491369042145
F67.65441003042753
tp271
a(F17.78933006407598
F88.00234962519426
tp272
a(F50.545671479632674
F77.81244550350598
tp273
a(F97.65227444670016
F74.26359349341153
tp274
a(F62.57714283798204
F12.337393792962947
tp275
asg26
I10
sg27
(lp276
(lp277
a(lp278
I0
aa(lp279
I1
aI0
aa(lp280
I0
aI0
aI0
aa(lp281
I0
aI1
aI0
aI1
aa(lp282
I0
aI0
aI1
aI0
aI0
aa(lp283
I0
aI0
aI1
aI0
aI0
aI1
aa(lp284
I1
aI0
aI1
aI0
aI0
aI0
aI0
aa(lp285
I1
aI1
aI0
aI0
aI1
aI0
aI0
aI0
aa(lp286
I0
aI1
aI0
aI1
aI1
aI0
aI0
aI0
aI0
aasg39
Nsg40
F45.8096235751236
sg41
(lp287
(lp288
a(lp289
I0
aa(lp290
I1
aI0
aa(lp291
I0
aI1
aI0
aa(lp292
I0
aI1
aI0
aI1
aa(lp293
I1
aI0
aI1
aI0
aI0
aa(lp294
I1
aI0
aI1
aI0
aI0
aI1
aa(lp295
I1
aI0
aI1
aI0
aI0
aI1
aI1
aa(lp296
I1
aI1
aI0
aI0
aI1
aI0
aI0
aI0
aa(lp297
I0
aI1
aI0
aI1
aI1
aI0
aI0
aI0
aI0
aasba(iGenerate
UnitDiskGraph
p298
(dp299
g3
g13
sg14
(lp300
(F84.22457559796439
F79.2948477468443
tp301
a(F49.727865814713624
F10.053858944804794
tp302
a(F72.25448712051688
F37.105290961341574
tp303
a(F82.25864511633183
F1.3838310299895573
tp304
a(F50.215107390076874
F70.74763362684138
tp305
a(F27.361677467477197
F69.6574088549951
tp306
a(F49.12553414556437
F25.33029877738763
tp307
a(F51.42301507176722
F85.10868144227956
tp308
a(F49.44002763523812
F94.85220972901656
tp309
a(F1.6829948809070516
F35.99875832796562
tp310
asg26
I10
sg27
(lp311
(lp312
a(lp313
I0
aa(lp314
I0
aI1
aa(lp315
I0
aI0
aI1
aa(lp316
I1
aI0
aI1
aI0
aa(lp317
I0
aI0
aI0
aI0
aI0
aa(lp318
I0
aI0
aI1
aI1
aI0
aI0
aa(lp319
I1
aI0
aI0
aI0
aI1
aI1
aI0
aa(lp320
I1
aI0
aI0
aI0
aI0
aI1
aI0
aI1
aa(lp321
I0
aI0
aI0
aI0
aI0
aI1
aI0
aI0
aI0
aasg39
Nsg40
F42.335558277676256
sg41
(lp322
(lp323
a(lp324
I0
aa(lp325
I0
aI1
aa(lp326
I0
aI1
aI1
aa(lp327
I1
aI0
aI1
aI0
aa(lp328
I0
aI0
aI0
aI0
aI1
aa(lp329
I0
aI1
aI1
aI1
aI0
aI0
aa(lp330
I1
aI0
aI0
aI0
aI1
aI1
aI0
aa(lp331
I1
aI0
aI0
aI0
aI1
aI1
aI0
aI1
aa(lp332
I0
aI0
aI0
aI0
aI0
aI1
aI0
aI0
aI0
aasba(iGenerate
UnitDiskGraph
p333
(dp334
g3
g13
sg14
(lp335
(F44.63616977772379
F28.935397438156272
tp336
a(F28.568689740818666
F31.6773565928959
tp337
a(F89.62816695068902
F10.286875799639306
tp338
a(F74.91711297367605
F24.235280904481606
tp339
a(F51.08483373436958
F59.69451977310756
tp340
a(F95.23736230222633
F36.50246632569449
tp341
a(F97.0759653899423
F60.79871862377283
tp342
a(F50.9427267376161
F37.971568756958106
tp343
a(F0.13700559115468192
F40.62390055798032
tp344
a(F18.124014956818325
F93.33636467631163
tp345
asg26
I10
sg27
(lp346
(lp347
a(lp348
I1
aa(lp349
I0
aI0
aa(lp350
I0
aI1
aI1
aa(lp351
I1
aI1
aI0
aI0
aa(lp352
I0
aI0
aI0
aI0
aI0
aa(lp353
I0
aI0
aI0
aI1
aI0
aI0
aa(lp354
I1
aI1
aI0
aI1
aI1
aI1
aI0
aa(lp355
I1
aI1
aI0
aI0
aI0
aI0
aI0
aI0
aa(lp356
I0
aI0
aI0
aI0
aI1
aI0
aI0
aI0
aI0
aasg39
Nsg40
F47.09765708586588
sg41
(lp357
(lp358
a(lp359
I1
aa(lp360
I0
aI0
aa(lp361
I1
aI1
aI1
aa(lp362
I1
aI1
aI0
aI1
aa(lp363
I0
aI0
aI1
aI1
aI0
aa(lp364
I0
aI0
aI0
aI1
aI1
aI1
aa(lp365
I1
aI1
aI0
aI1
aI1
aI1
aI0
aa(lp366
I1
aI1
aI0
aI0
aI0
aI0
aI0
aI0
aa(lp367
I0
aI0
aI0
aI0
aI1
aI0
aI0
aI0
aI0
aasba(iGenerate
UnitDiskGraph
p368
(dp369
g3
g13
sg14
(lp370
(F46.52486228964976
F48.44000955621798
tp371
a(F94.61882885153275
F5.478892165832471
tp372
a(F3.565986254745257
F92.19112108027664
tp373
a(F2.8948313761333
F50.241788679314595
tp374
a(F67.25206919476896
F31.29938474140994
tp375
a(F9.354514554148807
F65.34652200861304
tp376
a(F73.98162097734846
F78.10221581800792
tp377
a(F86.96887707932146
F17.190310806946705
tp378
a(F48.99471045202196
F2.7226340120060866
tp379
a(F41.39509633827853
F11.895826941660669
tp380
asg26
I10
sg27
(lp381
(lp382
a(lp383
I0
aa(lp384
I0
aI0
aa(lp385
I0
aI0
aI0
aa(lp386
I1
aI1
aI0
aI0
aa(lp387
I1
aI0
aI1
aI1
aI0
aa(lp388
I1
aI0
aI0
aI0
aI0
aI0
aa(lp389
I0
aI1
aI0
aI0
aI1
aI0
aI0
aa(lp390
I0
aI0
aI0
aI0
aI0
aI0
aI0
aI0
aa(lp391
I1
aI0
aI0
aI0
aI1
aI0
aI0
aI0
aI1
aasg39
Nsg40
F40.83460437032603
sg41
(lp392
(lp393
a(lp394
I0
aa(lp395
I0
aI0
aa(lp396
I0
aI0
aI0
aa(lp397
I1
aI1
aI0
aI0
aa(lp398
I1
aI0
aI1
aI1
aI0
aa(lp399
I1
aI0
aI0
aI0
aI0
aI0
aa(lp400
I0
aI1
aI0
aI0
aI1
aI0
aI0
aa(lp401
I0
aI0
aI0
aI0
aI1
aI0
aI0
aI1
aa(lp402
I1
aI0
aI0
aI0
aI1
aI0
aI0
aI0
aI1
aasba(iGenerate
UnitDiskGraph
p403
(dp404
g3
g13
sg14
(lp405
(F95.94123590720375
F78.05704988888768
tp406
a(F64.36286988495759
F62.24002683386692
tp407
a(F71.3942388233908
F86.66292414766245
tp408
a(F52.958799464092145
F67.43036220589612
tp409
a(F39.52165248088072
F73.36204130151506
tp410
a(F15.80257761972913
F15.777287977744558
tp411
a(F1.8533865207319478
F45.95544164848411
tp412
a(F46.516264476495174
F57.60573141217873
tp413
a(F34.29921838762367
F97.88769768576043
tp414
a(F8.407691770124437
F41.91032730701318
tp415
asg26
I10
sg27
(lp416
(lp417
a(lp418
I1
aa(lp419
I1
aI1
aa(lp420
I0
aI0
aI1
aa(lp421
I0
aI0
aI1
aI0
aa(lp422
I0
aI0
aI0
aI0
aI0
aa(lp423
I0
aI0
aI0
aI0
aI0
aI1
aa(lp424
I0
aI1
aI1
aI1
aI0
aI0
aI0
aa(lp425
I0
aI0
aI1
aI1
aI1
aI0
aI0
aI0
aa(lp426
I0
aI0
aI0
aI0
aI0
aI0
aI1
aI1
aI0
aasg39
Nsg40
F41.214184739494634
sg41
(lp427
(lp428
a(lp429
I1
aa(lp430
I1
aI1
aa(lp431
I0
aI1
aI1
aa(lp432
I0
aI1
aI1
aI1
aa(lp433
I0
aI0
aI0
aI0
aI0
aa(lp434
I0
aI0
aI0
aI0
aI0
aI1
aa(lp435
I0
aI1
aI1
aI1
aI1
aI0
aI0
aa(lp436
I0
aI0
aI1
aI1
aI1
aI0
aI0
aI0
aa(lp437
I0
aI0
aI0
aI0
aI0
aI1
aI1
aI1
aI0
aasba(iGenerate
UnitDiskGraph
p438
(dp439
g3
g13
sg14
(lp440
(F52.245999780537055
F31.26684245579009
tp441
a(F83.47003255334727
F92.87236191362088
tp442
a(F24.199111598050436
F87.29214054709078
tp443
a(F58.62999347712784
F1.323473556947652
tp444
a(F94.76436544101338
F94.35520894605467
tp445
a(F3.003341963382722
F24.159531301547265
tp446
a(F53.43143511206699
F69.19367633272574
tp447
a(F40.4573538878932
F33.17532313108549
tp448
a(F82.24081548926573
F6.505329979429675
tp449
a(F64.39516197535882
F65.24003565763387
tp450
asg26
I10
sg27
(lp451
(lp452
a(lp453
I0
aa(lp454
I0
aI0
aa(lp455
I1
aI0
aI0
aa(lp456
I0
aI1
aI0
aI0
aa(lp457
I0
aI0
aI0
aI0
aI0
aa(lp458
I1
aI1
aI1
aI0
aI0
aI0
aa(lp459
I1
aI0
aI0
aI1
aI0
aI1
aI0
aa(lp460
I0
aI0
aI0
aI1
aI0
aI0
aI0
aI0
aa(lp461
I1
aI0
aI0
aI0
aI0
aI0
aI1
aI0
aI0
aasg39
Nsg40
F38.5238563951604
sg41
(lp462
(lp463
a(lp464
I0
aa(lp465
I0
aI0
aa(lp466
I1
aI0
aI0
aa(lp467
I0
aI1
aI0
aI0
aa(lp468
I0
aI0
aI0
aI0
aI0
aa(lp469
I1
aI1
aI1
aI0
aI0
aI0
aa(lp470
I1
aI0
aI0
aI1
aI0
aI1
aI1
aa(lp471
I0
aI0
aI0
aI1
aI0
aI0
aI0
aI0
aa(lp472
I1
aI1
aI0
aI0
aI0
aI0
aI1
aI0
aI0
aasba(iGenerate
UnitDiskGraph
p473
(dp474
g3
g13
sg14
(lp475
(F23.89784309751437
F44.07803933209542
tp476
a(F31.692589506408975
F38.449493260184994
tp477
a(F69.36602400208487
F11.514818636010737
tp478
a(F95.7709241836067
F35.82238038725175
tp479
a(F52.357998840865186
F63.77056406582027
tp480
a(F97.2109525256954
F55.47622079595145
tp481
a(F4.028515203747407
F29.560908334414826
tp482
a(F68.59569342114995
F19.915057595830067
tp483
a(F27.28072231400397
F30.896325278696345
tp484
a(F59.72227307626202
F62.6846006856407
tp485
asg26
I10
sg27
(lp486
(lp487
a(lp488
I1
aa(lp489
I0
aI0
aa(lp490
I0
aI0
aI1
aa(lp491
I1
aI1
aI0
aI0
aa(lp492
I0
aI0
aI0
aI1
aI0
aa(lp493
I0
aI1
aI0
aI0
aI0
aI0
aa(lp494
I0
aI0
aI0
aI1
aI0
aI0
aI0
aa(lp495
I1
aI1
aI0
aI0
aI0
aI0
aI1
aI0
aa(lp496
I0
aI1
aI0
aI0
aI0
aI1
aI0
aI0
aI0
aasg39
Nsg40
F38.17540867491068
sg41
(lp497
(lp498
a(lp499
I1
aa(lp500
I0
aI0
aa(lp501
I0
aI0
aI1
aa(lp502
I1
aI1
aI0
aI0
aa(lp503
I0
aI0
aI0
aI1
aI0
aa(lp504
I1
aI1
aI0
aI0
aI0
aI0
aa(lp505
I0
aI0
aI1
aI1
aI0
aI0
aI0
aa(lp506
I1
aI1
aI0
aI0
aI0
aI0
aI1
aI0
aa(lp507
I0
aI1
aI0
aI0
aI1
aI1
aI0
aI0
aI0
aasba(iGenerate
UnitDiskGraph
p508
(dp509
g3
g13
sg14
(lp510
(F62.91952599414454
F84.93077928568309
tp511
a(F66.66706147588495
F81.52176834498567
tp512
a(F79.89346434437957
F54.343268739796436
tp513
a(F8.25337299433121
F21.51406021230262
tp514
a(F42.202139772344005
F7.3402791652875
tp515
a(F61.28521006314808
F77.24612561955546
tp516
a(F77.89897630982543
F47.17039826844713
tp517
a(F73.86288479773657
F6.411994892561568
tp518
a(F67.60074398257959
F73.78004260397019
tp519
a(F31.987853208250094
F57.44075194703496
tp520
asg26
I10
sg27
(lp521
(lp522
a(lp523
I1
aa(lp524
I0
aI0
aa(lp525
I0
aI0
aI0
aa(lp526
I0
aI0
aI0
aI1
aa(lp527
I0
aI1
aI1
aI0
aI0
aa(lp528
I1
aI1
aI0
aI0
aI0
aI1
aa(lp529
I0
aI0
aI0
aI0
aI1
aI0
aI1
aa(lp530
I1
aI1
aI0
aI0
aI0
aI1
aI1
aI0
aa(lp531
I0
aI0
aI0
aI0
aI0
aI0
aI0
aI0
aI1
aasg39
Nsg40
F40.957752385175574
sg41
(lp532
(lp533
a(lp534
I1
aa(lp535
I1
aI1
aa(lp536
I0
aI0
aI0
aa(lp537
I0
aI0
aI0
aI1
aa(lp538
I1
aI1
aI1
aI0
aI0
aa(lp539
I1
aI1
aI1
aI0
aI0
aI1
aa(lp540
I0
aI0
aI0
aI0
aI1
aI0
aI1
aa(lp541
I1
aI1
aI1
aI0
aI0
aI1
aI1
aI0
aa(lp542
I0
aI0
aI0
aI0
aI0
aI1
aI0
aI0
aI1
aasba(iGenerate
UnitDiskGraph
p543
(dp544
g3
g13
sg14
(lp545
(F99.9499509735644
F61.86631060520554
tp546
a(F0.9025246599925429
F75.64368971539334
tp547
a(F33.999809321095995
F69.45681729737255
tp548
a(F18.123130179945047
F9.22980750946676
tp549
a(F94.22826100995721
F49.54282459111282
tp550
a(F68.53815637473092
F52.89859561853339
tp551
a(F35.764761093667104
F42.17849864801202
tp552
a(F53.78692895733753
F1.319942334753077
tp553
a(F38.49106539031158
F23.958079750235093
tp554
a(F96.25483846311474
F63.00936492851804
tp555
asg26
I10
sg27
(lp556
(lp557
a(lp558
I0
aa(lp559
I0
aI1
aa(lp560
I0
aI0
aI0
aa(lp561
I1
aI0
aI0
aI0
aa(lp562
I1
aI0
aI0
aI0
aI0
aa(lp563
I0
aI0
aI1
aI0
aI0
aI1
aa(lp564
I0
aI0
aI0
aI0
aI0
aI0
aI0
aa(lp565
I0
aI0
aI0
aI1
aI0
aI0
aI1
aI1
aa(lp566
I1
aI0
aI0
aI0
aI0
aI1
aI0
aI0
aI0
aasg39
Nsg40
F34.48211010518697
sg41
(lp567
(lp568
a(lp569
I0
aa(lp570
I0
aI1
aa(lp571
I0
aI0
aI0
aa(lp572
I1
aI0
aI0
aI0
aa(lp573
I1
aI0
aI0
aI0
aI1
aa(lp574
I0
aI0
aI1
aI0
aI0
aI1
aa(lp575
I0
aI0
aI0
aI0
aI0
aI0
aI0
aa(lp576
I0
aI0
aI0
aI1
aI0
aI0
aI1
aI1
aa(lp577
I1
aI0
aI0
aI0
aI1
aI1
aI0
aI0
aI0
aasba(iGenerate
UnitDiskGraph
p578
(dp579
g3
g13
sg14
(lp580
(F39.79298578217691
F26.261296382017875
tp581
a(F39.63959586354381
F44.5453026597996
tp582
a(F25.566025699840456
F43.72390397017028
tp583
a(F19.37850359395131
F44.804516484693046
tp584
a(F36.4444891938515
F63.56790876190743
tp585
a(F72.05381171914625
F92.564334159436
tp586
a(F31.808519913243003
F8.612013784796302
tp587
a(F13.14279710561993
F45.748543393895034
tp588
a(F12.876295929581715
F62.940617672977574
tp589
a(F37.77053291842623
F23.629081022531416
tp590
asg26
I10
sg27
(lp591
(lp592
a(lp593
I1
aa(lp594
I1
aI0
aa(lp595
I1
aI0
aI0
aa(lp596
I0
aI0
aI1
aI1
aa(lp597
I0
aI0
aI0
aI0
aI1
aa(lp598
I1
aI0
aI1
aI1
aI0
aI0
aa(lp599
I0
aI1
aI0
aI1
aI1
aI0
aI0
aa(lp600
I1
aI0
aI1
aI1
aI1
aI0
aI0
aI1
aa(lp601
I1
aI0
aI0
aI0
aI1
aI0
aI1
aI1
aI0
aasg39
Nsg40
F45.921852494699124
sg41
(lp602
(lp603
a(lp604
I1
aa(lp605
I1
aI1
aa(lp606
I1
aI1
aI1
aa(lp607
I1
aI1
aI1
aI1
aa(lp608
I0
aI0
aI0
aI0
aI1
aa(lp609
I1
aI1
aI1
aI1
aI0
aI0
aa(lp610
I1
aI1
aI1
aI1
aI1
aI0
aI1
aa(lp611
I1
aI1
aI1
aI1
aI1
aI0
aI0
aI1
aa(lp612
I1
aI1
aI1
aI1
aI1
aI0
aI1
aI1
aI0
aasba(iGenerate
UnitDiskGraph
p613
(dp614
g3
g13
sg14
(lp615
(F53.073741151633556
F5.723554242344353
tp616
a(F11.847292137277854
F60.19112015780222
tp617
a(F47.475741521472536
F22.242954153943508
tp618
a(F24.186736986975312
F40.12060347098998
tp619
a(F84.15870923382045
F32.37434795007309
tp620
a(F42.873034126751094
F9.872971666819918
tp621
a(F61.64612518664203
F94.05856359634296
tp622
a(F89.23370248874267
F68.81066871685051
tp623
a(F11.411865304168389
F15.172171763352782
tp624
a(F30.675306298955174
F35.00943388844997
tp625
asg26
I10
sg27
(lp626
(lp627
a(lp628
I0
aa(lp629
I1
aI0
aa(lp630
I0
aI1
aI0
aa(lp631
I0
aI0
aI1
aI0
aa(lp632
I1
aI0
aI1
aI0
aI0
aa(lp633
I0
aI0
aI0
aI0
aI0
aI0
aa(lp634
I0
aI0
aI0
aI0
aI1
aI0
aI1
aa(lp635
I0
aI0
aI1
aI0
aI0
aI1
aI0
aI0
aa(lp636
I1
aI1
aI1
aI1
aI0
aI0
aI0
aI0
aI0
aasg39
Nsg40
F38.05634323522706
sg41
(lp637
(lp638
a(lp639
I0
aa(lp640
I1
aI0
aa(lp641
I0
aI1
aI1
aa(lp642
I0
aI0
aI1
aI0
aa(lp643
I1
aI0
aI1
aI1
aI0
aa(lp644
I0
aI0
aI0
aI0
aI0
aI0
aa(lp645
I0
aI0
aI0
aI0
aI1
aI0
aI1
aa(lp646
I0
aI0
aI1
aI1
aI0
aI1
aI0
aI0
aa(lp647
I1
aI1
aI1
aI1
aI0
aI1
aI0
aI0
aI1
aasba(iGenerate
UnitDiskGraph
p648
(dp649
g3
g13
sg14
(lp650
(F12.572762354286581
F69.58850443501039
tp651
a(F40.54714800702974
F1.2224388653941376
tp652
a(F26.75444747955369
F76.33351993438798
tp653
a(F61.5463421190224
F87.31289401412313
tp654
a(F55.80119419236843
F34.464438634802555
tp655
a(F37.74890898932542
F83.61425036738666
tp656
a(F82.12027244971412
F46.1127444234821
tp657
a(F71.04331844742843
F29.336293584003336
tp658
a(F7.018696789280565
F8.011701383381208
tp659
a(F17.913321464105525
F93.32174546112569
tp660
asg26
I10
sg27
(lp661
(lp662
a(lp663
I0
aa(lp664
I1
aI0
aa(lp665
I0
aI0
aI1
aa(lp666
I0
aI0
aI0
aI0
aa(lp667
I1
aI0
aI1
aI0
aI0
aa(lp668
I0
aI0
aI0
aI1
aI1
aI0
aa(lp669
I0
aI1
aI0
aI0
aI1
aI0
aI0
aa(lp670
I0
aI1
aI0
aI0
aI0
aI0
aI0
aI0
aa(lp671
I1
aI0
aI0
aI1
aI0
aI1
aI0
aI0
aI0
aasg39
Nsg40
F46.05148136100895
sg41
(lp672
(lp673
a(lp674
I0
aa(lp675
I1
aI0
aa(lp676
I0
aI0
aI1
aa(lp677
I0
aI1
aI0
aI0
aa(lp678
I1
aI0
aI1
aI1
aI0
aa(lp679
I0
aI0
aI0
aI1
aI1
aI0
aa(lp680
I0
aI1
aI0
aI0
aI1
aI0
aI1
aa(lp681
I0
aI1
aI0
aI0
aI0
aI0
aI0
aI0
aa(lp682
I1
aI0
aI1
aI1
aI0
aI1
aI0
aI0
aI0
aasba(iGenerate
UnitDiskGraph
p683
(dp684
g3
g13
sg14
(lp685
(F83.74945265447067
F43.39096414469945
tp686
a(F10.265525444730395
F41.182691559979176
tp687
a(F92.90397326044489
F6.250455473885886
tp688
a(F65.63843522684017
F50.33239401456733
tp689
a(F19.232139791484958
F66.95248288959971
tp690
a(F78.05273709227833
F5.018479317368452
tp691
a(F7.710019825064485
F36.451191456716295
tp692
a(F88.01569751427323
F16.773973134331953
tp693
a(F3.2458685107007446
F65.16539354701099
tp694
a(F33.06075757332655
F66.350220813416
tp695
asg26
I10
sg27
(lp696
(lp697
a(lp698
I0
aa(lp699
I0
aI0
aa(lp700
I1
aI0
aI0
aa(lp701
I0
aI1
aI0
aI0
aa(lp702
I0
aI0
aI0
aI0
aI0
aa(lp703
I0
aI1
aI0
aI0
aI1
aI0
aa(lp704
I1
aI0
aI1
aI0
aI0
aI1
aI0
aa(lp705
I0
aI1
aI0
aI0
aI0
aI0
aI1
aI0
aa(lp706
I0
aI1
aI0
aI1
aI0
aI0
aI0
aI0
aI1
aasg39
Nsg40
F36.30255991874617
sg41
(lp707
(lp708
a(lp709
I0
aa(lp710
I0
aI0
aa(lp711
I1
aI0
aI0
aa(lp712
I0
aI1
aI0
aI0
aa(lp713
I0
aI0
aI1
aI0
aI0
aa(lp714
I0
aI1
aI0
aI0
aI1
aI0
aa(lp715
I1
aI0
aI1
aI0
aI0
aI1
aI0
aa(lp716
I0
aI1
aI0
aI0
aI1
aI0
aI1
aI0
aa(lp717
I0
aI1
aI0
aI1
aI1
aI0
aI0
aI0
aI1
aasba(iGenerate
UnitDiskGraph
p718
(dp719
g3
g13
sg14
(lp720
(F87.87959986022756
F51.75763475315735
tp721
a(F65.97526533032571
F55.08505116424295
tp722
a(F89.56734001919163
F35.46659405771359
tp723
a(F99.85104248804763
F40.37192040477754
tp724
a(F48.57120736662836
F97.15347729626257
tp725
a(F67.18198583829827
F68.77480014197026
tp726
a(F4.9172348238077035
F7.434570093373216
tp727
a(F62.31051885946888
F40.49009686871862
tp728
a(F35.289921124996624
F33.58890969850206
tp729
a(F67.78407808524888
F23.590536311869503
tp730
asg26
I10
sg27
(lp731
(lp732
a(lp733
I1
aa(lp734
I1
aI0
aa(lp735
I1
aI1
aI0
aa(lp736
I0
aI0
aI0
aI0
aa(lp737
I1
aI0
aI0
aI0
aI1
aa(lp738
I0
aI0
aI0
aI0
aI0
aI0
aa(lp739
I1
aI1
aI1
aI1
aI0
aI0
aI0
aa(lp740
I0
aI1
aI0
aI0
aI0
aI0
aI1
aI1
aa(lp741
I0
aI0
aI1
aI1
aI0
aI0
aI0
aI1
aI0
aasg39
Nsg40
F40.08178580516143
sg41
(lp742
(lp743
a(lp744
I1
aa(lp745
I1
aI1
aa(lp746
I1
aI1
aI1
aa(lp747
I0
aI0
aI0
aI0
aa(lp748
I1
aI1
aI0
aI0
aI1
aa(lp749
I0
aI0
aI0
aI0
aI0
aI0
aa(lp750
I1
aI1
aI1
aI1
aI0
aI1
aI0
aa(lp751
I0
aI1
aI0
aI0
aI0
aI0
aI1
aI1
aa(lp752
I1
aI1
aI1
aI1
aI0
aI0
aI0
aI1
aI1
aasba(iGenerate
UnitDiskGraph
p753
(dp754
g3
g13
sg14
(lp755
(F11.51854296768563
F96.47374483337168
tp756
a(F92.50177925049634
F97.3820169789925
tp757
a(F32.98059053669071
F55.38901998554102
tp758
a(F82.89889887835808
F30.33070915292887
tp759
a(F38.19630334388629
F78.05993076549115
tp760
a(F36.563250366445644
F81.93116385446649
tp761
a(F32.31306916915273
F51.204300049711804
tp762
a(F84.0374332181731
F76.18957886687056
tp763
a(F2.2264721297263645
F14.835903916505867
tp764
a(F44.945186504561576
F0.34317297635902966
tp765
asg26
I10
sg27
(lp766
(lp767
a(lp768
I0
aa(lp769
I1
aI0
aa(lp770
I0
aI0
aI0
aa(lp771
I1
aI0
aI0
aI0
aa(lp772
I1
aI0
aI0
aI0
aI1
aa(lp773
I0
aI0
aI1
aI0
aI1
aI0
aa(lp774
I0
aI1
aI0
aI1
aI1
aI0
aI0
aa(lp775
I0
aI0
aI0
aI0
aI0
aI0
aI1
aI0
aa(lp776
I0
aI0
aI0
aI0
aI0
aI0
aI0
aI0
aI1
aasg39
Nsg40
F47.20024956199499
sg41
(lp777
(lp778
a(lp779
I0
aa(lp780
I1
aI0
aa(lp781
I0
aI0
aI0
aa(lp782
I1
aI0
aI1
aI0
aa(lp783
I1
aI0
aI1
aI0
aI1
aa(lp784
I0
aI0
aI1
aI0
aI1
aI1
aa(lp785
I0
aI1
aI0
aI1
aI1
aI0
aI0
aa(lp786
I0
aI0
aI0
aI0
aI0
aI0
aI1
aI0
aa(lp787
I0
aI0
aI0
aI0
aI0
aI0
aI0
aI0
aI1
aasba(iGenerate
UnitDiskGraph
p788
(dp789
g3
g13
sg14
(lp790
(F51.75238286503444
F90.26845817058515
tp791
a(F2.132483359367321
F53.64021729988544
tp792
a(F33.35172626900575
F14.28345622172591
tp793
a(F51.50506055523174
F77.92734089952306
tp794
a(F4.916683166769332
F99.85660229381014
tp795
a(F75.84174834840158
F91.5223195323418
tp796
a(F45.00708144818879
F39.99243598930955
tp797
a(F80.32529245520959
F76.13199764430958
tp798
a(F32.43737095971567
F7.498924603534752
tp799
a(F12.366231797527261
F53.64352788592708
tp800
asg26
I10
sg27
(lp801
(lp802
a(lp803
I0
aa(lp804
I0
aI0
aa(lp805
I0
aI0
aI0
aa(lp806
I0
aI1
aI0
aI0
aa(lp807
I1
aI0
aI0
aI1
aI0
aa(lp808
I0
aI1
aI1
aI1
aI0
aI0
aa(lp809
I1
aI0
aI0
aI1
aI0
aI1
aI0
aa(lp810
I0
aI0
aI1
aI0
aI0
aI0
aI1
aI0
aa(lp811
I0
aI0
aI1
aI0
aI0
aI0
aI0
aI0
aI0
aasg39
Nsg40
F46.30017289896664
sg41
(lp812
(lp813
a(lp814
I0
aa(lp815
I0
aI0
aa(lp816
I1
aI0
aI0
aa(lp817
I0
aI1
aI0
aI0
aa(lp818
I1
aI0
aI0
aI1
aI0
aa(lp819
I0
aI1
aI1
aI1
aI0
aI0
aa(lp820
I1
aI0
aI0
aI1
aI0
aI1
aI0
aa(lp821
I0
aI0
aI1
aI0
aI0
aI0
aI1
aI0
aa(lp822
I0
aI1
aI1
aI1
aI0
aI0
aI1
aI0
aI0
aasba(iGenerate
UnitDiskGraph
p823
(dp824
g3
g13
sg14
(lp825
(F89.2738423097447
F87.43125663728334
tp826
a(F0.6327881665684654
F72.84377596924656
tp827
a(F94.90383572369186
F12.44394285547763
tp828
a(F70.78819752917721
F71.93860075946016
tp829
a(F80.0619791960289
F32.76117348072728
tp830
a(F25.787405529638175
F70.47107805387854
tp831
a(F72.95902363393138
F35.18006335701469
tp832
a(F83.57458495066486
F29.715077599315485
tp833
a(F43.49510615020198
F46.354647069742725
tp834
a(F18.396600057519365
F20.862368417000067
tp835
asg26
I10
sg27
(lp836
(lp837
a(lp838
I0
aa(lp839
I0
aI0
aa(lp840
I1
aI0
aI0
aa(lp841
I0
aI0
aI1
aI0
aa(lp842
I0
aI1
aI0
aI0
aI0
aa(lp843
I0
aI0
aI1
aI1
aI1
aI0
aa(lp844
I0
aI0
aI1
aI0
aI0
aI0
aI0
aa(lp845
I0
aI0
aI0
aI0
aI0
aI1
aI1
aI0
aa(lp846
I0
aI0
aI0
aI0
aI0
aI0
aI0
aI0
aI1
aasg39
Nsg40
F36.82258217377028
sg41
(lp847
(lp848
a(lp849
I0
aa(lp850
I0
aI0
aa(lp851
I1
aI0
aI0
aa(lp852
I0
aI0
aI1
aI0
aa(lp853
I0
aI1
aI0
aI0
aI0
aa(lp854
I0
aI0
aI1
aI1
aI1
aI0
aa(lp855
I0
aI0
aI1
aI0
aI1
aI0
aI1
aa(lp856
I0
aI0
aI0
aI0
aI0
aI1
aI1
aI0
aa(lp857
I0
aI0
aI0
aI0
aI0
aI0
aI0
aI0
aI1
aasba(iGenerate
UnitDiskGraph
p858
(dp859
g3
g13
sg14
(lp860
(F36.657614432216576
F88.03371216897813
tp861
a(F10.547907925448474
F73.44219685014136
tp862
a(F87.34469557347457
F20.54151161655119
tp863
a(F0.9124066266209208
F6.097129766353615
tp864
a(F48.84386612790129
F44.43720129588334
tp865
a(F80.11282293021266
F92.25723382382033
tp866
a(F16.199299546809975
F50.79832289149603
tp867
a(F83.45824332715576
F98.5814710786348
tp868
a(F38.931892799846764
F78.45211040020192
tp869
a(F25.08739142131572
F75.53342452041464
tp870
asg26
I10
sg27
(lp871
(lp872
a(lp873
I0
aa(lp874
I0
aI0
aa(lp875
I0
aI0
aI0
aa(lp876
I1
aI0
aI1
aI0
aa(lp877
I1
aI0
aI0
aI0
aI0
aa(lp878
I0
aI1
aI0
aI1
aI1
aI0
aa(lp879
I0
aI0
aI0
aI0
aI0
aI1
aI0
aa(lp880
I1
aI1
aI0
aI0
aI1
aI1
aI1
aI0
aa(lp881
I1
aI1
aI0
aI0
aI0
aI0
aI0
aI0
aI0
aasg39
Nsg40
F47.24283820818352
sg41
(lp882
(lp883
a(lp884
I1
aa(lp885
I0
aI0
aa(lp886
I0
aI0
aI0
aa(lp887
I1
aI0
aI1
aI0
aa(lp888
I1
aI0
aI0
aI0
aI0
aa(lp889
I1
aI1
aI0
aI1
aI1
aI0
aa(lp890
I0
aI0
aI0
aI0
aI0
aI1
aI0
aa(lp891
I1
aI1
aI0
aI0
aI1
aI1
aI1
aI0
aa(lp892
I1
aI1
aI0
aI0
aI1
aI0
aI1
aI0
aI1
aasba(iGenerate
UnitDiskGraph
p893
(dp894
g3
g13
sg14
(lp895
(F87.54955735696242
F71.24401682191667
tp896
a(F76.8721658879179
F9.069418424915888
tp897
a(F83.6843432688145
F64.87305727026849
tp898
a(F12.026018116284497
F14.102575900226899
tp899
a(F65.16095444582731
F97.30362928051206
tp900
a(F31.993253210352147
F75.64070660404515
tp901
a(F4.003611774815452
F19.24095924595092
tp902
a(F96.55920400344873
F17.054407610110502
tp903
a(F47.68425273601591
F0.39342174844981814
tp904
a(F20.356937680629628
F62.8288411937131
tp905
asg26
I10
sg27
(lp906
(lp907
a(lp908
I0
aa(lp909
I1
aI0
aa(lp910
I0
aI0
aI0
aa(lp911
I1
aI0
aI0
aI0
aa(lp912
I0
aI0
aI0
aI0
aI1
aa(lp913
I0
aI0
aI0
aI1
aI0
aI0
aa(lp914
I0
aI1
aI0
aI0
aI0
aI0
aI0
aa(lp915
I0
aI1
aI0
aI1
aI0
aI0
aI0
aI0
aa(lp916
I0
aI0
aI0
aI0
aI0
aI1
aI1
aI0
aI0
aasg39
Nsg40
F46.55464231281157
sg41
(lp917
(lp918
a(lp919
I0
aa(lp920
I1
aI0
aa(lp921
I0
aI0
aI0
aa(lp922
I1
aI0
aI1
aI0
aa(lp923
I0
aI0
aI0
aI0
aI1
aa(lp924
I0
aI0
aI0
aI1
aI0
aI0
aa(lp925
I0
aI1
aI0
aI0
aI0
aI0
aI0
aa(lp926
I0
aI1
aI0
aI1
aI0
aI0
aI0
aI0
aa(lp927
I0
aI0
aI0
aI0
aI0
aI1
aI1
aI0
aI0
aasba(iGenerate
UnitDiskGraph
p928
(dp929
g3
g13
sg14
(lp930
(F83.32254040362164
F94.7179609018222
tp931
a(F44.304409676145916
F27.51024966428216
tp932
a(F19.732132021987624
F66.14522755904382
tp933
a(F78.19522760797403
F4.839183338581643
tp934
a(F7.130491349354129
F83.28186481571929
tp935
a(F90.97241835793808
F27.409272236283922
tp936
a(F79.93033787908257
F44.78237461949638
tp937
a(F57.01863087386221
F96.24283569360446
tp938
a(F90.7060581561048
F88.8666421864621
tp939
a(F58.36653413122177
F20.054412624279284
tp940
asg26
I10
sg27
(lp941
(lp942
a(lp943
I0
aa(lp944
I0
aI1
aa(lp945
I0
aI0
aI0
aa(lp946
I0
aI0
aI1
aI0
aa(lp947
I0
aI0
aI0
aI1
aI0
aa(lp948
I0
aI1
aI0
aI1
aI0
aI1
aa(lp949
I1
aI0
aI0
aI0
aI0
aI0
aI0
aa(lp950
I1
aI0
aI0
aI0
aI0
aI0
aI1
aI0
aa(lp951
I0
aI0
aI0
aI1
aI0
aI1
aI1
aI0
aI0
aasg39
Nsg40
F45.7870980303597
sg41
(lp952
(lp953
a(lp954
I0
aa(lp955
I0
aI1
aa(lp956
I0
aI1
aI0
aa(lp957
I0
aI0
aI1
aI0
aa(lp958
I0
aI0
aI0
aI1
aI0
aa(lp959
I0
aI1
aI0
aI1
aI0
aI1
aa(lp960
I1
aI0
aI0
aI0
aI0
aI0
aI0
aa(lp961
I1
aI0
aI0
aI0
aI0
aI0
aI1
aI1
aa(lp962
I0
aI1
aI0
aI1
aI0
aI1
aI1
aI0
aI0
aasba(iGenerate
UnitDiskGraph
p963
(dp964
g3
g13
sg14
(lp965
(F46.60969560419361
F82.80040227195677
tp966
a(F95.79170033736402
F5.533690221618059
tp967
a(F10.633508091279198
F8.9823207561055
tp968
a(F7.977780098700404
F81.77198909364904
tp969
a(F42.094364773181546
F95.72246678375332
tp970
a(F3.1806336580714967
F95.36634191952045
tp971
a(F48.608823400505315
F74.07273813592809
tp972
a(F23.363369168375215
F9.482263612468689
tp973
a(F27.06477204067239
F27.82260112792806
tp974
a(F87.72465600207462
F86.93699015107917
tp975
asg26
I10
sg27
(lp976
(lp977
a(lp978
I0
aa(lp979
I0
aI0
aa(lp980
I1
aI0
aI0
aa(lp981
I1
aI0
aI0
aI1
aa(lp982
I1
aI0
aI0
aI0
aI0
aa(lp983
I0
aI0
aI0
aI1
aI1
aI1
aa(lp984
I0
aI0
aI1
aI0
aI0
aI0
aI1
aa(lp985
I0
aI1
aI1
aI0
aI0
aI0
aI1
aI1
aa(lp986
I1
aI0
aI0
aI0
aI1
aI0
aI1
aI0
aI0
aasg39
Nsg40
F72.25085620591646
sg41
(lp987
(lp988
a(lp989
I0
aa(lp990
I0
aI0
aa(lp991
I1
aI0
aI0
aa(lp992
I1
aI0
aI0
aI1
aa(lp993
I1
aI0
aI0
aI1
aI1
aa(lp994
I1
aI0
aI0
aI1
aI1
aI1
aa(lp995
I0
aI0
aI1
aI0
aI0
aI0
aI1
aa(lp996
I1
aI1
aI1
aI1
aI1
aI1
aI1
aI1
aa(lp997
I1
aI0
aI0
aI0
aI1
aI0
aI1
aI0
aI0
aasba(iGenerate
UnitDiskGraph
p998
(dp999
g3
g13
sg14
(lp1000
(F65.59391298189018
F61.323829357688794
tp1001
a(F26.758720914563984
F32.9299762628951
tp1002
a(F20.550381680508924
F11.489163896577125
tp1003
a(F10.456415888322912
F23.541977744745513
tp1004
a(F88.26649772969685
F41.52404512870764
tp1005
a(F49.147190525052444
F22.71792631994549
tp1006
a(F0.9494910047806449
F36.77877064860217
tp1007
a(F96.1565788989621
F68.99919333955162
tp1008
a(F66.40113126037124
F69.08859038174903
tp1009
a(F89.73656048503953
F77.9050668873487
tp1010
asg26
I10
sg27
(lp1011
(lp1012
a(lp1013
I0
aa(lp1014
I0
aI1
aa(lp1015
I0
aI1
aI0
aa(lp1016
I1
aI0
aI0
aI0
aa(lp1017
I1
aI1
aI1
aI1
aI0
aa(lp1018
I0
aI1
aI1
aI0
aI0
aI0
aa(lp1019
I1
aI0
aI0
aI0
aI0
aI0
aI0
aa(lp1020
I1
aI0
aI0
aI0
aI0
aI0
aI0
aI0
aa(lp1021
I1
aI0
aI0
aI0
aI1
aI0
aI0
aI1
aI0
aasg39
Nsg40
F41.96320327300918
sg41
(lp1022
(lp1023
a(lp1024
I0
aa(lp1025
I0
aI1
aa(lp1026
I0
aI1
aI1
aa(lp1027
I1
aI0
aI0
aI0
aa(lp1028
I1
aI1
aI1
aI1
aI0
aa(lp1029
I0
aI1
aI1
aI1
aI0
aI0
aa(lp1030
I1
aI0
aI0
aI0
aI1
aI0
aI0
aa(lp1031
I1
aI0
aI0
aI0
aI1
aI0
aI0
aI1
aa(lp1032
I1
aI0
aI0
aI0
aI1
aI0
aI0
aI1
aI1
aasba(iGenerate
UnitDiskGraph
p1033
(dp1034
g3
g13
sg14
(lp1035
(F10.352840524660111
F42.45372704813474
tp1036
a(F71.637412310069
F92.90308365782357
tp1037
a(F1.879455701610111
F94.02887417915318
tp1038
a(F27.414513922498696
F21.08965300077552
tp1039
a(F74.3522918232005
F3.7304081449782034
tp1040
a(F3.650637748524621
F71.96634467424062
tp1041
a(F19.343946536323287
F38.359917713630786
tp1042
a(F28.20292051587905
F61.19197421920529
tp1043
a(F82.68168910599421
F94.34110239998795
tp1044
a(F18.091490032215376
F45.38873323712177
tp1045
asg26
I10
sg27
(lp1046
(lp1047
a(lp1048
I0
aa(lp1049
I1
aI0
aa(lp1050
I0
aI0
aI0
aa(lp1051
I0
aI0
aI0
aI1
aa(lp1052
I1
aI0
aI1
aI0
aI0
aa(lp1053
I1
aI0
aI0
aI1
aI0
aI1
aa(lp1054
I1
aI1
aI0
aI0
aI0
aI1
aI1
aa(lp1055
I0
aI1
aI0
aI0
aI0
aI0
aI0
aI0
aa(lp1056
I0
aI0
aI1
aI1
aI0
aI1
aI0
aI0
aI0
aasg39
Nsg40
F53.778708977136844
sg41
(lp1057
(lp1058
a(lp1059
I0
aa(lp1060
I1
aI0
aa(lp1061
I1
aI0
aI0
aa(lp1062
I0
aI0
aI0
aI1
aa(lp1063
I1
aI0
aI1
aI0
aI0
aa(lp1064
I1
aI0
aI0
aI1
aI0
aI1
aa(lp1065
I1
aI1
aI1
aI1
aI0
aI1
aI1
aa(lp1066
I0
aI1
aI0
aI0
aI0
aI0
aI0
aI0
aa(lp1067
I1
aI0
aI1
aI1
aI0
aI1
aI1
aI1
aI0
aasba(iGenerate
UnitDiskGraph
p1068
(dp1069
g3
g13
sg14
(lp1070
(F24.510141811263765
F20.44039497785185
tp1071
a(F83.43071641697539
F12.406560525986322
tp1072
a(F19.15629334728246
F66.01740214868246
tp1073
a(F92.22976058000495
F75.5442915259539
tp1074
a(F56.160434030992704
F11.48639089695742
tp1075
a(F98.69569091484323
F91.14774334903174
tp1076
a(F25.312242440574728
F47.94123770908414
tp1077
a(F15.896749001264787
F64.82679638336613
tp1078
a(F98.14148063083735
F75.66658578208263
tp1079
a(F97.66998594579437
F77.19942071182889
tp1080
asg26
I10
sg27
(lp1081
(lp1082
a(lp1083
I1
aa(lp1084
I1
aI0
aa(lp1085
I0
aI1
aI0
aa(lp1086
I1
aI1
aI0
aI0
aa(lp1087
I0
aI0
aI0
aI0
aI0
aa(lp1088
I1
aI0
aI1
aI0
aI0
aI0
aa(lp1089
I1
aI0
aI1
aI0
aI0
aI0
aI0
aa(lp1090
I0
aI0
aI0
aI1
aI0
aI1
aI0
aI0
aa(lp1091
I0
aI0
aI0
aI1
aI0
aI0
aI0
aI0
aI1
aasg39
Nsg40
F63.74791176193312
sg41
(lp1092
(lp1093
a(lp1094
I1
aa(lp1095
I1
aI0
aa(lp1096
I0
aI1
aI0
aa(lp1097
I1
aI1
aI0
aI0
aa(lp1098
I0
aI0
aI0
aI1
aI0
aa(lp1099
I1
aI0
aI1
aI0
aI1
aI0
aa(lp1100
I1
aI0
aI1
aI0
aI0
aI0
aI1
aa(lp1101
I0
aI0
aI0
aI1
aI0
aI1
aI0
aI0
aa(lp1102
I0
aI0
aI0
aI1
aI0
aI1
aI0
aI0
aI1
aasba(iGenerate
UnitDiskGraph
p1103
(dp1104
g3
g13
sg14
(lp1105
(F31.148618322667055
F93.24957266817844
tp1106
a(F49.07358649663571
F67.29600276248517
tp1107
a(F35.506970073495644
F74.76247711262631
tp1108
a(F42.48220238551272
F52.998601715680834
tp1109
a(F57.688832189394155
F84.86564375762504
tp1110
a(F96.64231969335577
F9.832624949722025
tp1111
a(F55.9435148845269
F6.8484452039906385
tp1112
a(F53.211552606525956
F32.30419436877301
tp1113
a(F46.425737203886584
F65.80362671485234
tp1114
a(F61.536529709174815
F70.91552320773724
tp1115
asg26
I10
sg27
(lp1116
(lp1117
a(lp1118
I1
aa(lp1119
I1
aI1
aa(lp1120
I0
aI0
aI1
aa(lp1121
I0
aI0
aI1
aI0
aa(lp1122
I0
aI0
aI0
aI0
aI0
aa(lp1123
I0
aI0
aI0
aI0
aI0
aI1
aa(lp1124
I0
aI1
aI0
aI0
aI0
aI0
aI1
aa(lp1125
I1
aI1
aI0
aI1
aI1
aI0
aI0
aI1
aa(lp1126
I1
aI1
aI1
aI0
aI0
aI0
aI0
aI0
aI1
aasg39
Nsg40
F40.80806343876153
sg41
(lp1127
(lp1128
a(lp1129
I1
aa(lp1130
I1
aI1
aa(lp1131
I0
aI1
aI1
aa(lp1132
I1
aI1
aI1
aI1
aa(lp1133
I0
aI0
aI0
aI0
aI0
aa(lp1134
I0
aI0
aI0
aI0
aI0
aI1
aa(lp1135
I0
aI1
aI0
aI1
aI0
aI0
aI1
aa(lp1136
I1
aI1
aI1
aI1
aI1
aI0
aI0
aI1
aa(lp1137
I1
aI1
aI1
aI1
aI1
aI0
aI0
aI1
aI1
aasba(iGenerate
UnitDiskGraph
p1138
(dp1139
g3
g13
sg14
(lp1140
(F63.750183944258765
F86.13350021475053
tp1141
a(F74.92988466631914
F41.26653988300194
tp1142
a(F38.3690256398421
F53.007021312127
tp1143
a(F43.57403322364944
F62.376578158889764
tp1144
a(F12.022920208374765
F71.9381382351937
tp1145
a(F44.92075078183488
F87.94467464071512
tp1146
a(F50.94989791414106
F29.63718564205198
tp1147
a(F10.64951462128655
F52.80817893368068
tp1148
a(F61.35231383013199
F64.60405006815853
tp1149
a(F10.584341677396992
F15.321950995431056
tp1150
asg26
I10
sg27
(lp1151
(lp1152
a(lp1153
I0
aa(lp1154
I0
aI0
aa(lp1155
I0
aI0
aI0
aa(lp1156
I0
aI0
aI1
aI1
aa(lp1157
I1
aI0
aI1
aI1
aI1
aa(lp1158
I0
aI0
aI1
aI1
aI0
aI0
aa(lp1159
I0
aI0
aI0
aI1
aI1
aI0
aI0
aa(lp1160
I0
aI1
aI1
aI1
aI0
aI1
aI0
aI0
aa(lp1161
I0
aI0
aI0
aI0
aI0
aI0
aI0
aI1
aI0
aasg39
Nsg40
F37.48628459251493
sg41
(lp1162
(lp1163
a(lp1164
I0
aa(lp1165
I0
aI0
aa(lp1166
I1
aI0
aI1
aa(lp1167
I0
aI0
aI1
aI1
aa(lp1168
I1
aI0
aI1
aI1
aI1
aa(lp1169
I0
aI1
aI1
aI1
aI0
aI0
aa(lp1170
I0
aI0
aI1
aI1
aI1
aI0
aI0
aa(lp1171
I1
aI1
aI1
aI1
aI0
aI1
aI1
aI0
aa(lp1172
I0
aI0
aI0
aI0
aI0
aI0
aI0
aI1
aI0
aasba(iGenerate
UnitDiskGraph
p1173
(dp1174
g3
g13
sg14
(lp1175
(F5.144624523728258
F4.860842007271993
tp1176
a(F78.83673788206728
F24.10913301309112
tp1177
a(F92.18555995892102
F63.946319721182476
tp1178
a(F44.661219541689434
F79.78746983826204
tp1179
a(F70.20683879150297
F72.06237657016477
tp1180
a(F30.156986882100423
F56.91095579387119
tp1181
a(F4.319359505489373
F66.43391772237001
tp1182
a(F27.757869475123265
F65.22237380495808
tp1183
a(F17.937337860063828
F48.36874805244664
tp1184
a(F98.05313163131467
F91.02277937742276
tp1185
asg26
I10
sg27
(lp1186
(lp1187
a(lp1188
I0
aa(lp1189
I0
aI1
aa(lp1190
I0
aI0
aI0
aa(lp1191
I0
aI0
aI0
aI1
aa(lp1192
I0
aI0
aI0
aI1
aI0
aa(lp1193
I0
aI0
aI0
aI1
aI0
aI0
aa(lp1194
I0
aI0
aI0
aI1
aI1
aI1
aI0
aa(lp1195
I1
aI0
aI0
aI1
aI0
aI1
aI0
aI1
aa(lp1196
I0
aI0
aI1
aI0
aI1
aI0
aI0
aI0
aI0
aasg39
Nsg40
F45.34965714249009
sg41
(lp1197
(lp1198
a(lp1199
I0
aa(lp1200
I0
aI1
aa(lp1201
I0
aI0
aI0
aa(lp1202
I0
aI0
aI1
aI1
aa(lp1203
I0
aI0
aI0
aI1
aI1
aa(lp1204
I0
aI0
aI0
aI1
aI0
aI1
aa(lp1205
I0
aI0
aI0
aI1
aI1
aI1
aI1
aa(lp1206
I1
aI0
aI0
aI1
aI0
aI1
aI1
aI1
aa(lp1207
I0
aI0
aI1
aI0
aI1
aI0
aI0
aI0
aI0
aasba(iGenerate
UnitDiskGraph
p1208
(dp1209
g3
g13
sg14
(lp1210
(F22.691299672962707
F70.5699383516287
tp1211
a(F95.20782948242787
F70.81569201234555
tp1212
a(F82.12985804160698
F74.0295677466
tp1213
a(F3.2905346016229964
F12.200797163495992
tp1214
a(F1.237863493181035
F15.269190596985926
tp1215
a(F77.23502675850462
F95.72928990872461
tp1216
a(F7.170977191351757
F51.8550734430036
tp1217
a(F59.0215775875165
F79.97876335400534
tp1218
a(F50.590072192737644
F0.8700518045056671
tp1219
a(F33.66999424479148
F56.83439697210273
tp1220
asg26
I10
sg27
(lp1221
(lp1222
a(lp1223
I0
aa(lp1224
I0
aI1
aa(lp1225
I0
aI0
aI0
aa(lp1226
I0
aI0
aI0
aI1
aa(lp1227
I0
aI1
aI0
aI0
aI0
aa(lp1228
I1
aI0
aI0
aI1
aI1
aI0
aa(lp1229
I1
aI1
aI0
aI0
aI0
aI0
aI0
aa(lp1230
I0
aI0
aI0
aI1
aI0
aI0
aI0
aI0
aa(lp1231
I1
aI0
aI0
aI0
aI0
aI0
aI1
aI1
aI0
aasg39
Nsg40
F48.63776358678047
sg41
(lp1232
(lp1233
a(lp1234
I0
aa(lp1235
I0
aI1
aa(lp1236
I0
aI0
aI0
aa(lp1237
I0
aI0
aI0
aI1
aa(lp1238
I0
aI1
aI1
aI0
aI0
aa(lp1239
I1
aI0
aI0
aI1
aI1
aI0
aa(lp1240
I1
aI1
aI1
aI0
aI0
aI1
aI0
aa(lp1241
I0
aI0
aI0
aI1
aI0
aI0
aI0
aI0
aa(lp1242
I1
aI0
aI0
aI0
aI0
aI0
aI1
aI1
aI0
aasba(iGenerate
UnitDiskGraph
p1243
(dp1244
g3
g13
sg14
(lp1245
(F20.352806091132425
F55.67603806738427
tp1246
a(F96.79167913666268
F67.5970573020227
tp1247
a(F22.89222388663156
F22.57039552332466
tp1248
a(F11.854714517654175
F5.919031806999897
tp1249
a(F31.114340447282483
F79.18497214537223
tp1250
a(F90.57447226097457
F13.317012205227364
tp1251
a(F75.43670489332357
F90.77369654009678
tp1252
a(F87.79914959996061
F86.05501110504845
tp1253
a(F48.059812783243814
F41.01091469450077
tp1254
a(F25.463349626150865
F89.65669922503561
tp1255
asg26
I10
sg27
(lp1256
(lp1257
a(lp1258
I0
aa(lp1259
I1
aI0
aa(lp1260
I1
aI0
aI0
aa(lp1261
I1
aI0
aI0
aI0
aa(lp1262
I0
aI0
aI0
aI0
aI0
aa(lp1263
I0
aI1
aI0
aI0
aI1
aI0
aa(lp1264
I0
aI1
aI0
aI0
aI0
aI0
aI1
aa(lp1265
I0
aI0
aI1
aI1
aI0
aI1
aI0
aI0
aa(lp1266
I1
aI0
aI0
aI0
aI1
aI0
aI0
aI0
aI0
aasg39
Nsg40
F50.73902349861284
sg41
(lp1267
(lp1268
a(lp1269
I0
aa(lp1270
I1
aI0
aa(lp1271
I1
aI0
aI1
aa(lp1272
I1
aI0
aI0
aI0
aa(lp1273
I0
aI0
aI0
aI0
aI0
aa(lp1274
I0
aI1
aI0
aI0
aI1
aI0
aa(lp1275
I0
aI1
aI0
aI0
aI0
aI0
aI1
aa(lp1276
I1
aI0
aI1
aI1
aI1
aI1
aI0
aI0
aa(lp1277
I1
aI0
aI0
aI0
aI1
aI0
aI1
aI0
aI0
aasba(iGenerate
UnitDiskGraph
p1278
(dp1279
g3
g13
sg14
(lp1280
(F47.4074280472366
F88.11470098432326
tp1281
a(F37.79614810705009
F64.32202900476057
tp1282
a(F52.48294959104952
F22.917797416646824
tp1283
a(F14.704237981592472
F93.11052824573284
tp1284
a(F19.908730143922384
F45.628525894686945
tp1285
a(F92.38715422007843
F48.80150285771966
tp1286
a(F68.34851088243452
F73.04269281538306
tp1287
a(F27.37566896578172
F12.553705733658592
tp1288
a(F49.913882920067195
F4.9130289143592965
tp1289
a(F28.263247698483195
F64.64665950425125
tp1290
asg26
I10
sg27
(lp1291
(lp1292
a(lp1293
I0
aa(lp1294
I0
aI0
aa(lp1295
I0
aI0
aI0
aa(lp1296
I0
aI1
aI0
aI0
aa(lp1297
I0
aI0
aI0
aI0
aI0
aa(lp1298
I1
aI1
aI0
aI0
aI0
aI1
aa(lp1299
I0
aI0
aI1
aI0
aI1
aI0
aI0
aa(lp1300
I0
aI0
aI1
aI0
aI0
aI0
aI0
aI1
aa(lp1301
I1
aI0
aI0
aI1
aI1
aI0
aI0
aI0
aI0
aasg39
Nsg40
F34.13929794354261
sg41
(lp1302
(lp1303
a(lp1304
I1
aa(lp1305
I0
aI0
aa(lp1306
I1
aI0
aI0
aa(lp1307
I0
aI1
aI0
aI0
aa(lp1308
I0
aI0
aI0
aI0
aI0
aa(lp1309
I1
aI1
aI0
aI0
aI0
aI1
aa(lp1310
I0
aI0
aI1
aI0
aI1
aI0
aI0
aa(lp1311
I0
aI0
aI1
aI0
aI0
aI0
aI0
aI1
aa(lp1312
I1
aI1
aI0
aI1
aI1
aI0
aI0
aI0
aI0
aasba(iGenerate
UnitDiskGraph
p1313
(dp1314
g3
g13
sg14
(lp1315
(F95.22279863656368
F83.28215857504179
tp1316
a(F11.52896291198109
F34.80533220556108
tp1317
a(F44.405710473929126
F38.47559605409647
tp1318
a(F30.288063549853174
F19.27097471467638
tp1319
a(F25.60965221011867
F25.695656775441922
tp1320
a(F20.334029629434024
F89.3002618140602
tp1321
a(F66.04593827298083
F15.562066091023008
tp1322
a(F73.36569544288916
F41.34138837136025
tp1323
a(F53.58677439116606
F23.766285626060924
tp1324
a(F96.10771737627024
F73.65031435206198
tp1325
asg26
I10
sg27
(lp1326
(lp1327
a(lp1328
I0
aa(lp1329
I0
aI1
aa(lp1330
I0
aI1
aI1
aa(lp1331
I0
aI0
aI1
aI1
aa(lp1332
I0
aI1
aI0
aI0
aI0
aa(lp1333
I0
aI0
aI0
aI0
aI1
aI0
aa(lp1334
I0
aI0
aI0
aI1
aI0
aI0
aI1
aa(lp1335
I0
aI1
aI1
aI1
aI0
aI0
aI1
aI1
aa(lp1336
I1
aI0
aI0
aI0
aI0
aI0
aI0
aI1
aI0
aasg39
Nsg40
F55.20168976520621
sg41
(lp1337
(lp1338
a(lp1339
I0
aa(lp1340
I0
aI1
aa(lp1341
I0
aI1
aI1
aa(lp1342
I0
aI1
aI1
aI1
aa(lp1343
I0
aI1
aI0
aI0
aI0
aa(lp1344
I0
aI0
aI1
aI1
aI1
aI0
aa(lp1345
I1
aI0
aI1
aI1
aI1
aI0
aI1
aa(lp1346
I0
aI1
aI1
aI1
aI1
aI0
aI1
aI1
aa(lp1347
I1
aI0
aI0
aI0
aI0
aI0
aI0
aI1
aI0
aasba(iGenerate
UnitDiskGraph
p1348
(dp1349
g3
g13
sg14
(lp1350
(F93.73689381105376
F54.54517798341776
tp1351
a(F77.25988190899487
F29.170024550632778
tp1352
a(F88.0800435289008
F86.25519266263689
tp1353
a(F74.84567066083245
F94.0122281526594
tp1354
a(F83.95002452830296
F79.10808272417226
tp1355
a(F65.82546444362856
F98.02563457518788
tp1356
a(F89.61217890796891
F0.2125103703743414
tp1357
a(F53.477501685752316
F38.35018770830448
tp1358
a(F23.73801330896437
F41.6941166528649
tp1359
a(F17.09934273648326
F12.341594446735815
tp1360
asg26
I10
sg27
(lp1361
(lp1362
a(lp1363
I1
aa(lp1364
I0
aI0
aa(lp1365
I0
aI0
aI0
aa(lp1366
I1
aI0
aI1
aI1
aa(lp1367
I0
aI0
aI1
aI1
aI0
aa(lp1368
I0
aI1
aI0
aI0
aI0
aI0
aa(lp1369
I0
aI1
aI0
aI0
aI0
aI0
aI0
aa(lp1370
I0
aI0
aI0
aI0
aI0
aI0
aI0
aI1
aa(lp1371
I0
aI0
aI0
aI0
aI0
aI0
aI0
aI0
aI1
aasg39
Nsg40
F31.482008650191485
sg41
(lp1372
(lp1373
a(lp1374
I1
aa(lp1375
I0
aI0
aa(lp1376
I0
aI0
aI1
aa(lp1377
I1
aI0
aI1
aI1
aa(lp1378
I0
aI0
aI1
aI1
aI1
aa(lp1379
I0
aI1
aI0
aI0
aI0
aI0
aa(lp1380
I0
aI1
aI0
aI0
aI0
aI0
aI0
aa(lp1381
I0
aI0
aI0
aI0
aI0
aI0
aI0
aI1
aa(lp1382
I0
aI0
aI0
aI0
aI0
aI0
aI0
aI0
aI1
aasba(iGenerate
UnitDiskGraph
p1383
(dp1384
g3
g13
sg14
(lp1385
(F50.17849897979127
F9.755815072575958
tp1386
a(F49.2805664109373
F71.10939950821339
tp1387
a(F21.30637359491494
F61.42744266929291
tp1388
a(F18.81595271061771
F98.70505224575369
tp1389
a(F15.4261778566387
F74.22084707677956
tp1390
a(F95.09675530667144
F2.3171357679061644
tp1391
a(F45.484308835155915
F48.80468964635072
tp1392
a(F46.267354032902276
F96.92478633080658
tp1393
a(F94.36607244213027
F15.336975335483627
tp1394
a(F21.567461804981104
F29.389173290536995
tp1395
asg26
I10
sg27
(lp1396
(lp1397
a(lp1398
I0
aa(lp1399
I0
aI0
aa(lp1400
I0
aI1
aI1
aa(lp1401
I0
aI1
aI0
aI0
aa(lp1402
I0
aI0
aI0
aI0
aI0
aa(lp1403
I1
aI1
aI0
aI0
aI1
aI0
aa(lp1404
I0
aI1
aI1
aI1
aI0
aI0
aI0
aa(lp1405
I1
aI0
aI0
aI0
aI0
aI1
aI0
aI0
aa(lp1406
I1
aI0
aI1
aI0
aI0
aI0
aI1
aI0
aI0
aasg39
Nsg40
F44.53864612187786
sg41
(lp1407
(lp1408
a(lp1409
I0
aa(lp1410
I0
aI1
aa(lp1411
I0
aI1
aI1
aa(lp1412
I0
aI1
aI1
aI1
aa(lp1413
I0
aI0
aI0
aI0
aI0
aa(lp1414
I1
aI1
aI1
aI0
aI1
aI0
aa(lp1415
I0
aI1
aI1
aI1
aI1
aI0
aI0
aa(lp1416
I1
aI0
aI0
aI0
aI0
aI1
aI0
aI0
aa(lp1417
I1
aI0
aI1
aI0
aI0
aI0
aI1
aI0
aI0
aasba(iGenerate
UnitDiskGraph
p1418
(dp1419
g3
g13
sg14
(lp1420
(F9.27126926391283
F47.079076433731494
tp1421
a(F75.1886332176619
F13.933691439605445
tp1422
a(F26.967319105934507
F89.14897162735053
tp1423
a(F50.521996039997006
F73.19492159574033
tp1424
a(F24.441583919314724
F96.79269070223965
tp1425
a(F48.9979139194245
F49.836962008058016
tp1426
a(F3.492791283800878
F61.73434477484106
tp1427
a(F82.65282368629295
F97.42586464330692
tp1428
a(F47.05477243173786
F66.78673237220424
tp1429
a(F81.4314139030286
F36.91589770843462
tp1430
asg26
I10
sg27
(lp1431
(lp1432
a(lp1433
I0
aa(lp1434
I0
aI0
aa(lp1435
I0
aI0
aI1
aa(lp1436
I0
aI0
aI1
aI1
aa(lp1437
I1
aI0
aI0
aI1
aI0
aa(lp1438
I1
aI0
aI1
aI0
aI0
aI0
aa(lp1439
I0
aI0
aI0
aI1
aI0
aI0
aI0
aa(lp1440
I0
aI0
aI0
aI0
aI1
aI0
aI0
aI0
aa(lp1441
I0
aI1
aI0
aI0
aI0
aI1
aI0
aI0
aI0
aasg39
Nsg40
F40.243368226459275
sg41
(lp1442
(lp1443
a(lp1444
I0
aa(lp1445
I0
aI0
aa(lp1446
I0
aI0
aI1
aa(lp1447
I0
aI0
aI1
aI1
aa(lp1448
I1
aI0
aI0
aI1
aI0
aa(lp1449
I1
aI0
aI1
aI0
aI0
aI0
aa(lp1450
I0
aI0
aI0
aI1
aI0
aI0
aI0
aa(lp1451
I0
aI0
aI1
aI1
aI1
aI1
aI0
aI0
aa(lp1452
I0
aI1
aI0
aI0
aI0
aI1
aI0
aI0
aI0
aasba(iGenerate
UnitDiskGraph
p1453
(dp1454
g3
g13
sg14
(lp1455
(F49.21056930648632
F56.195250950159995
tp1456
a(F92.30452833260426
F73.41390365266196
tp1457
a(F30.645973277064652
F68.72861931987697
tp1458
a(F97.66665296135267
F16.995104396027973
tp1459
a(F47.13760628895004
F25.387610024279716
tp1460
a(F17.194332184943384
F81.95649779431827
tp1461
a(F63.20347022095852
F12.423805778187269
tp1462
a(F1.6602059426033544
F68.91134473723632
tp1463
a(F58.21381204806861
F8.773619433270918
tp1464
a(F39.03418063945937
F96.53262751399511
tp1465
asg26
I10
sg27
(lp1466
(lp1467
a(lp1468
I1
aa(lp1469
I1
aI0
aa(lp1470
I0
aI0
aI0
aa(lp1471
I1
aI0
aI1
aI0
aa(lp1472
I0
aI0
aI1
aI0
aI0
aa(lp1473
I1
aI0
aI0
aI0
aI1
aI0
aa(lp1474
I0
aI0
aI1
aI0
aI0
aI0
aI0
aa(lp1475
I0
aI0
aI0
aI1
aI1
aI0
aI1
aI0
aa(lp1476
I0
aI0
aI1
aI0
aI0
aI1
aI0
aI0
aI0
aasg39
Nsg40
F46.406586875508424
sg41
(lp1477
(lp1478
a(lp1479
I1
aa(lp1480
I1
aI0
aa(lp1481
I0
aI0
aI0
aa(lp1482
I1
aI0
aI1
aI0
aa(lp1483
I1
aI0
aI1
aI0
aI0
aa(lp1484
I1
aI0
aI0
aI1
aI1
aI0
aa(lp1485
I0
aI0
aI1
aI0
aI0
aI1
aI0
aa(lp1486
I0
aI0
aI0
aI1
aI1
aI0
aI1
aI0
aa(lp1487
I1
aI0
aI1
aI0
aI0
aI1
aI0
aI0
aI0
aasba(iGenerate
UnitDiskGraph
p1488
(dp1489
g3
g13
sg14
(lp1490
(F23.40586453237432
F22.89811153777671
tp1491
a(F31.914089777561284
F70.75543342462376
tp1492
a(F84.39826543476264
F14.21082675621107
tp1493
a(F99.93108924734854
F16.91072484874757
tp1494
a(F26.4171661559963
F67.17125187369348
tp1495
a(F54.29138790340833
F8.200498954230383
tp1496
a(F67.59103816942235
F69.5897857283521
tp1497
a(F8.529835288566002
F40.354793596503
tp1498
a(F33.27408370376613
F75.74616152310544
tp1499
a(F85.25478454706868
F16.33527513869707
tp1500
asg26
I10
sg27
(lp1501
(lp1502
a(lp1503
I0
aa(lp1504
I0
aI0
aa(lp1505
I0
aI0
aI1
aa(lp1506
I0
aI1
aI0
aI0
aa(lp1507
I1
aI0
aI1
aI0
aI0
aa(lp1508
I0
aI0
aI0
aI0
aI0
aI0
aa(lp1509
I1
aI0
aI0
aI0
aI1
aI0
aI0
aa(lp1510
I0
aI1
aI0
aI0
aI1
aI0
aI1
aI0
aa(lp1511
I0
aI0
aI0
aI1
aI0
aI0
aI0
aI0
aI0
aasg39
Nsg40
F34.86480068384368
sg41
(lp1512
(lp1513
a(lp1514
I0
aa(lp1515
I0
aI0
aa(lp1516
I0
aI0
aI1
aa(lp1517
I0
aI1
aI0
aI0
aa(lp1518
I1
aI0
aI1
aI0
aI0
aa(lp1519
I0
aI0
aI0
aI0
aI0
aI0
aa(lp1520
I1
aI0
aI0
aI0
aI1
aI0
aI0
aa(lp1521
I0
aI1
aI0
aI0
aI1
aI0
aI1
aI0
aa(lp1522
I0
aI0
aI1
aI1
aI0
aI1
aI0
aI0
aI0
aasba(iGenerate
UnitDiskGraph
p1523
(dp1524
g3
g13
sg14
(lp1525
(F84.83750527028488
F76.30168740978817
tp1526
a(F35.20194388599531
F48.356399631753035
tp1527
a(F44.764031251102665
F27.222847802404427
tp1528
a(F66.5285179054313
F62.949014751015056
tp1529
a(F53.2983577913553
F61.94117522802473
tp1530
a(F64.88472923663267
F45.82007347067915
tp1531
a(F77.40316272872244
F94.36722503399866
tp1532
a(F77.3100489875198
F78.18528134073452
tp1533
a(F96.879474447816
F70.11968931728786
tp1534
a(F64.0876798054595
F23.295578479314983
tp1535
asg26
I10
sg27
(lp1536
(lp1537
a(lp1538
I0
aa(lp1539
I0
aI0
aa(lp1540
I0
aI0
aI0
aa(lp1541
I0
aI1
aI0
aI1
aa(lp1542
I0
aI0
aI0
aI0
aI1
aa(lp1543
I1
aI0
aI0
aI0
aI0
aI0
aa(lp1544
I0
aI0
aI0
aI1
aI0
aI0
aI1
aa(lp1545
I1
aI0
aI0
aI0
aI0
aI0
aI0
aI1
aa(lp1546
I0
aI0
aI1
aI0
aI0
aI1
aI0
aI0
aI0
aasg39
Nsg40
F22.627998679405245
sg41
(lp1547
(lp1548
a(lp1549
I0
aa(lp1550
I0
aI0
aa(lp1551
I0
aI0
aI0
aa(lp1552
I0
aI1
aI0
aI1
aa(lp1553
I0
aI0
aI0
aI1
aI1
aa(lp1554
I1
aI0
aI0
aI0
aI0
aI0
aa(lp1555
I1
aI0
aI0
aI1
aI0
aI0
aI1
aa(lp1556
I1
aI0
aI0
aI0
aI0
aI0
aI0
aI1
aa(lp1557
I0
aI0
aI1
aI0
aI0
aI1
aI0
aI0
aI0
aasba(iGenerate
UnitDiskGraph
p1558
(dp1559
g3
g13
sg14
(lp1560
(F14.393345096397924
F99.08417273340801
tp1561
a(F81.39617615381496
F16.01594678513144
tp1562
a(F47.67333181329311
F92.23118043351302
tp1563
a(F65.02555931390013
F37.185924468787704
tp1564
a(F5.924671390267722
F83.79059925720628
tp1565
a(F80.45351978577034
F38.93527292978779
tp1566
a(F91.3192448214027
F34.09535056931002
tp1567
a(F91.68312072348587
F26.694005816433062
tp1568
a(F65.08540783767303
F61.70637848614099
tp1569
a(F38.74127262495758
F46.06111606434725
tp1570
asg26
I10
sg27
(lp1571
(lp1572
a(lp1573
I0
aa(lp1574
I1
aI0
aa(lp1575
I0
aI1
aI0
aa(lp1576
I1
aI0
aI0
aI0
aa(lp1577
I0
aI1
aI0
aI1
aI0
aa(lp1578
I0
aI0
aI0
aI0
aI0
aI1
aa(lp1579
I0
aI1
aI0
aI1
aI0
aI0
aI1
aa(lp1580
I0
aI0
aI1
aI1
aI0
aI1
aI0
aI0
aa(lp1581
I0
aI0
aI0
aI0
aI0
aI0
aI0
aI0
aI1
aasg39
Nsg40
F35.14176895668562
sg41
(lp1582
(lp1583
a(lp1584
I0
aa(lp1585
I1
aI0
aa(lp1586
I0
aI1
aI0
aa(lp1587
I1
aI0
aI0
aI0
aa(lp1588
I0
aI1
aI0
aI1
aI0
aa(lp1589
I0
aI1
aI0
aI1
aI0
aI1
aa(lp1590
I0
aI1
aI0
aI1
aI0
aI1
aI1
aa(lp1591
I0
aI0
aI1
aI1
aI0
aI1
aI0
aI0
aa(lp1592
I0
aI0
aI0
aI1
aI0
aI0
aI0
aI0
aI1
aasba(iGenerate
UnitDiskGraph
p1593
(dp1594
g3
g13
sg14
(lp1595
(F29.50786249638514
F67.81777564751025
tp1596
a(F65.78695145119309
F49.733053426876296
tp1597
a(F31.627557856054423
F21.689365717473674
tp1598
a(F41.60637523993403
F79.70475323530025
tp1599
a(F50.07160772059031
F71.85821164142328
tp1600
a(F85.27874536044773
F25.2896317022974
tp1601
a(F4.877142282418934
F71.15064466136774
tp1602
a(F33.74464082672068
F46.84994239256363
tp1603
a(F40.34938165491582
F22.55969367360221
tp1604
a(F53.19786462986317
F59.47629215279634
tp1605
asg26
I10
sg27
(lp1606
(lp1607
a(lp1608
I0
aa(lp1609
I0
aI0
aa(lp1610
I0
aI0
aI0
aa(lp1611
I1
aI1
aI0
aI1
aa(lp1612
I0
aI1
aI0
aI0
aI0
aa(lp1613
I1
aI0
aI0
aI0
aI0
aI0
aa(lp1614
I1
aI0
aI1
aI0
aI1
aI0
aI0
aa(lp1615
I0
aI0
aI1
aI0
aI0
aI0
aI0
aI1
aa(lp1616
I1
aI1
aI0
aI0
aI0
aI0
aI0
aI0
aI0
aasg39
Nsg40
F31.263571379586047
sg41
(lp1617
(lp1618
a(lp1619
I0
aa(lp1620
I0
aI0
aa(lp1621
I1
aI0
aI0
aa(lp1622
I1
aI1
aI0
aI1
aa(lp1623
I0
aI1
aI0
aI0
aI0
aa(lp1624
I1
aI0
aI0
aI0
aI0
aI0
aa(lp1625
I1
aI0
aI1
aI0
aI1
aI0
aI0
aa(lp1626
I0
aI0
aI1
aI0
aI0
aI0
aI0
aI1
aa(lp1627
I1
aI1
aI0
aI1
aI1
aI0
aI0
aI1
aI0
aasba(iGenerate
UnitDiskGraph
p1628
(dp1629
g3
g13
sg14
(lp1630
(F93.3905432966258
F9.801963471990426
tp1631
a(F32.86651789662345
F21.184646408761708
tp1632
a(F97.18970096892279
F41.383814530621024
tp1633
a(F86.1881978701581
F28.903796024181805
tp1634
a(F77.65502688329296
F90.77164881869906
tp1635
a(F96.18389961077031
F51.309519597009576
tp1636
a(F93.87657265261488
F85.85698902565154
tp1637
a(F84.70433341217483
F36.302939137918464
tp1638
a(F23.080299624435263
F5.392003502643005
tp1639
a(F61.46492508426835
F65.61210646009322
tp1640
asg26
I10
sg27
(lp1641
(lp1642
a(lp1643
I0
aa(lp1644
I1
aI0
aa(lp1645
I0
aI0
aI1
aa(lp1646
I0
aI0
aI0
aI0
aa(lp1647
I1
aI0
aI1
aI1
aI1
aa(lp1648
I0
aI0
aI1
aI0
aI1
aI1
aa(lp1649
I0
aI0
aI0
aI1
aI0
aI1
aI1
aa(lp1650
I0
aI1
aI0
aI0
aI0
aI0
aI0
aI0
aa(lp1651
I0
aI1
aI0
aI1
aI0
aI1
aI0
aI0
aI0
aasg39
Nsg40
F52.83623851376058
sg41
(lp1652
(lp1653
a(lp1654
I0
aa(lp1655
I1
aI0
aa(lp1656
I1
aI0
aI1
aa(lp1657
I0
aI0
aI0
aI0
aa(lp1658
I1
aI0
aI1
aI1
aI1
aa(lp1659
I0
aI0
aI1
aI0
aI1
aI1
aa(lp1660
I1
aI0
aI1
aI1
aI0
aI1
aI1
aa(lp1661
I0
aI1
aI0
aI0
aI0
aI0
aI0
aI0
aa(lp1662
I0
aI1
aI1
aI1
aI1
aI1
aI1
aI1
aI0
aasba(iGenerate
UnitDiskGraph
p1663
(dp1664
g3
g13
sg14
(lp1665
(F71.8414555709869
F61.47484395753672
tp1666
a(F11.972241974011377
F43.565353778370806
tp1667
a(F86.33925055555693
F79.2474087338851
tp1668
a(F70.41654910318562
F35.251796634658696
tp1669
a(F20.146721170822758
F50.54036097299595
tp1670
a(F93.17706365356801
F36.42176494327571
tp1671
a(F63.08266211419333
F36.60058439469124
tp1672
a(F99.26270453594974
F40.093572496363336
tp1673
a(F1.3855101552211924
F27.08715084408755
tp1674
a(F86.92871732595452
F83.13598534193235
tp1675
asg26
I10
sg27
(lp1676
(lp1677
a(lp1678
I0
aa(lp1679
I1
aI0
aa(lp1680
I0
aI0
aI0
aa(lp1681
I0
aI1
aI0
aI0
aa(lp1682
I1
aI0
aI1
aI0
aI0
aa(lp1683
I1
aI0
aI0
aI1
aI1
aI1
aa(lp1684
I1
aI0
aI1
aI0
aI0
aI0
aI0
aa(lp1685
I0
aI1
aI0
aI0
aI1
aI0
aI0
aI0
aa(lp1686
I1
aI0
aI1
aI0
aI0
aI0
aI0
aI0
aI0
aasg39
Nsg40
F45.1421354805647
sg41
(lp1687
(lp1688
a(lp1689
I0
aa(lp1690
I1
aI0
aa(lp1691
I1
aI0
aI0
aa(lp1692
I0
aI1
aI0
aI0
aa(lp1693
I1
aI0
aI1
aI1
aI0
aa(lp1694
I1
aI0
aI0
aI1
aI1
aI1
aa(lp1695
I1
aI0
aI1
aI1
aI0
aI1
aI1
aa(lp1696
I0
aI1
aI0
aI0
aI1
aI0
aI0
aI0
aa(lp1697
I1
aI0
aI1
aI0
aI0
aI0
aI0
aI1
aI0
aasba(iGenerate
UnitDiskGraph
p1698
(dp1699
g3
g13
sg14
(lp1700
(F64.04624298175989
F2.504249701093375
tp1701
a(F21.733007328663223
F12.324005327600606
tp1702
a(F86.82037982327644
F24.32349091509375
tp1703
a(F69.86461934077144
F22.543367235528542
tp1704
a(F99.9912515165712
F27.194176973268913
tp1705
a(F44.27013868379493
F11.349354571056725
tp1706
a(F24.48996776647411
F19.341632154908183
tp1707
a(F96.47702259940556
F56.616687823359236
tp1708
a(F84.68324123767839
F36.97848403096279
tp1709
a(F58.8605045697239
F27.548359719939562
tp1710
asg26
I10
sg27
(lp1711
(lp1712
a(lp1713
I0
aa(lp1714
I0
aI0
aa(lp1715
I1
aI0
aI1
aa(lp1716
I0
aI0
aI0
aI0
aa(lp1717
I1
aI1
aI0
aI0
aI0
aa(lp1718
I0
aI0
aI0
aI0
aI0
aI1
aa(lp1719
I0
aI0
aI0
aI0
aI0
aI0
aI0
aa(lp1720
I0
aI0
aI1
aI1
aI1
aI0
aI0
aI1
aa(lp1721
I0
aI0
aI0
aI1
aI0
aI1
aI0
aI0
aI0
aasg39
Nsg40
F22.907473169250192
sg41
(lp1722
(lp1723
a(lp1724
I0
aa(lp1725
I0
aI0
aa(lp1726
I1
aI0
aI1
aa(lp1727
I0
aI0
aI1
aI0
aa(lp1728
I1
aI1
aI0
aI0
aI0
aa(lp1729
I0
aI1
aI0
aI0
aI0
aI1
aa(lp1730
I0
aI0
aI0
aI0
aI0
aI0
aI0
aa(lp1731
I0
aI0
aI1
aI1
aI1
aI0
aI0
aI1
aa(lp1732
I0
aI0
aI0
aI1
aI0
aI1
aI0
aI0
aI0
aasba(iGenerate
UnitDiskGraph
p1733
(dp1734
g3
g13
sg14
(lp1735
(F82.73919975182893
F93.29257110889056
tp1736
a(F84.17621503960413
F52.523658874808156
tp1737
a(F53.53652725758054
F85.00918546319994
tp1738
a(F89.94586391514291
F6.117368161442904
tp1739
a(F25.429795687711987
F14.726435430939155
tp1740
a(F45.59126162130917
F80.04761671997609
tp1741
a(F8.175912079752434
F16.576606206547073
tp1742
a(F33.90798505666503
F42.129104398015116
tp1743
a(F50.90828076619264
F57.648124656295394
tp1744
a(F40.613970663756845
F77.0453684109718
tp1745
asg26
I10
sg27
(lp1746
(lp1747
a(lp1748
I0
aa(lp1749
I1
aI1
aa(lp1750
I0
aI1
aI0
aa(lp1751
I0
aI0
aI0
aI0
aa(lp1752
I1
aI0
aI0
aI0
aI0
aa(lp1753
I0
aI0
aI0
aI0
aI0
aI0
aa(lp1754
I0
aI0
aI0
aI0
aI1
aI1
aI1
aa(lp1755
I0
aI1
aI1
aI0
aI0
aI0
aI0
aI1
aa(lp1756
I1
aI0
aI1
aI0
aI0
aI1
aI0
aI0
aI1
aasg39
Nsg40
F46.763582689100886
sg41
(lp1757
(lp1758
a(lp1759
I1
aa(lp1760
I1
aI1
aa(lp1761
I0
aI1
aI0
aa(lp1762
I0
aI0
aI0
aI0
aa(lp1763
I1
aI0
aI1
aI0
aI0
aa(lp1764
I0
aI0
aI0
aI0
aI1
aI0
aa(lp1765
I0
aI0
aI0
aI0
aI1
aI1
aI1
aa(lp1766
I0
aI1
aI1
aI0
aI0
aI1
aI0
aI1
aa(lp1767
I1
aI0
aI1
aI0
aI0
aI1
aI0
aI1
aI1
aasba(iGenerate
UnitDiskGraph
p1768
(dp1769
g3
g13
sg14
(lp1770
(F86.16065085588109
F40.32600047621935
tp1771
a(F59.44896393141672
F93.89720442111602
tp1772
a(F75.42251127158242
F82.43854595481514
tp1773
a(F11.904301928459649
F87.62170217319243
tp1774
a(F58.00708165316826
F29.159357776396135
tp1775
a(F92.52073280629627
F2.4206313617333275
tp1776
a(F48.686736140168804
F62.933393736976726
tp1777
a(F73.92074936130798
F5.794150038311907
tp1778
a(F30.022567400621792
F26.0211586642881
tp1779
a(F6.909562743755093
F92.14988139298326
tp1780
asg26
I10
sg27
(lp1781
(lp1782
a(lp1783
I0
aa(lp1784
I1
aI1
aa(lp1785
I0
aI0
aI0
aa(lp1786
I1
aI0
aI0
aI0
aa(lp1787
I1
aI0
aI0
aI0
aI1
aa(lp1788
I0
aI0
aI1
aI1
aI1
aI0
aa(lp1789
I1
aI0
aI0
aI0
aI1
aI0
aI0
aa(lp1790
I0
aI0
aI0
aI0
aI1
aI0
aI0
aI0
aa(lp1791
I0
aI0
aI0
aI1
aI0
aI0
aI0
aI0
aI0
aasg39
Nsg40
F44.29966184950436
sg41
(lp1792
(lp1793
a(lp1794
I0
aa(lp1795
I1
aI1
aa(lp1796
I0
aI0
aI0
aa(lp1797
I1
aI0
aI0
aI0
aa(lp1798
I1
aI0
aI0
aI0
aI1
aa(lp1799
I1
aI1
aI1
aI1
aI1
aI0
aa(lp1800
I1
aI0
aI0
aI0
aI1
aI1
aI0
aa(lp1801
I0
aI0
aI0
aI0
aI1
aI0
aI1
aI0
aa(lp1802
I0
aI0
aI0
aI1
aI0
aI0
aI0
aI0
aI0
aasba(iGenerate
UnitDiskGraph
p1803
(dp1804
g3
g13
sg14
(lp1805
(F86.87458229594928
F65.4846929450161
tp1806
a(F17.245486482183857
F70.23955880504117
tp1807
a(F9.648833101187293
F31.562644031736287
tp1808
a(F88.3757925595725
F69.95529119060487
tp1809
a(F50.56117550812254
F75.08256809218064
tp1810
a(F44.65633212872602
F79.62302350798659
tp1811
a(F61.971153549045475
F45.535961070945376
tp1812
a(F55.40047012605185
F71.58029248032754
tp1813
a(F70.5179446685643
F67.70844726287663
tp1814
a(F31.465927371279847
F99.30787561274173
tp1815
asg26
I10
sg27
(lp1816
(lp1817
a(lp1818
I0
aa(lp1819
I0
aI1
aa(lp1820
I1
aI0
aI0
aa(lp1821
I1
aI1
aI0
aI0
aa(lp1822
I0
aI1
aI0
aI0
aI0
aa(lp1823
I0
aI0
aI0
aI0
aI1
aI1
aa(lp1824
I1
aI0
aI0
aI0
aI1
aI1
aI1
aa(lp1825
I0
aI0
aI0
aI1
aI1
aI1
aI1
aI0
aa(lp1826
I0
aI1
aI0
aI0
aI1
aI1
aI0
aI0
aI0
aasg39
Nsg40
F39.41589627260169
sg41
(lp1827
(lp1828
a(lp1829
I0
aa(lp1830
I0
aI1
aa(lp1831
I1
aI0
aI0
aa(lp1832
I1
aI1
aI0
aI1
aa(lp1833
I0
aI1
aI0
aI0
aI1
aa(lp1834
I1
aI0
aI0
aI1
aI1
aI1
aa(lp1835
I1
aI1
aI0
aI1
aI1
aI1
aI1
aa(lp1836
I1
aI0
aI0
aI1
aI1
aI1
aI1
aI1
aa(lp1837
I0
aI1
aI0
aI0
aI1
aI1
aI0
aI1
aI0
aasba(iGenerate
UnitDiskGraph
p1838
(dp1839
g3
g13
sg14
(lp1840
(F59.7703237288512
F74.22665149158027
tp1841
a(F0.8735377323452198
F66.70869558196296
tp1842
a(F92.63717754053847
F16.62272390861417
tp1843
a(F0.30495692106523586
F52.99229236112267
tp1844
a(F95.98747210824907
F43.65907792489464
tp1845
a(F3.128524488875861
F17.52182541161894
tp1846
a(F32.70100008931338
F22.358890203430658
tp1847
a(F74.23816455300147
F49.175579628254184
tp1848
a(F57.00929563213523
F27.85376495285956
tp1849
a(F5.241740388870964
F47.12595221650331
tp1850
asg26
I10
sg27
(lp1851
(lp1852
a(lp1853
I0
aa(lp1854
I0
aI0
aa(lp1855
I0
aI0
aI0
aa(lp1856
I0
aI0
aI1
aI0
aa(lp1857
I0
aI0
aI0
aI0
aI0
aa(lp1858
I0
aI0
aI0
aI0
aI0
aI1
aa(lp1859
I1
aI0
aI0
aI0
aI1
aI0
aI0
aa(lp1860
I0
aI0
aI0
aI0
aI0
aI0
aI1
aI1
aa(lp1861
I0
aI1
aI0
aI1
aI0
aI1
aI0
aI0
aI0
aasg39
Nsg40
F29.965455259993245
sg41
(lp1862
(lp1863
a(lp1864
I0
aa(lp1865
I0
aI0
aa(lp1866
I0
aI1
aI0
aa(lp1867
I0
aI0
aI1
aI0
aa(lp1868
I0
aI0
aI0
aI0
aI0
aa(lp1869
I0
aI0
aI0
aI0
aI0
aI1
aa(lp1870
I1
aI0
aI0
aI0
aI1
aI0
aI0
aa(lp1871
I0
aI0
aI0
aI0
aI0
aI0
aI1
aI1
aa(lp1872
I0
aI1
aI0
aI1
aI0
aI1
aI0
aI0
aI0
aasba(iGenerate
UnitDiskGraph
p1873
(dp1874
g3
g13
sg14
(lp1875
(F70.05434976811539
F51.927611271948024
tp1876
a(F11.757746604687803
F79.38951733378514
tp1877
a(F58.72262506040368
F11.20242266289251
tp1878
a(F77.48820798341153
F99.30108479879337
tp1879
a(F24.58002408083718
F29.398718864909256
tp1880
a(F40.2204477939756
F15.938389539035114
tp1881
a(F25.159425896203334
F30.042213102090198
tp1882
a(F98.43700778857924
F20.664556106413002
tp1883
a(F48.498745224759595
F84.82594588055827
tp1884
a(F59.106149061124654
F61.2130732225105
tp1885
asg26
I10
sg27
(lp1886
(lp1887
a(lp1888
I0
aa(lp1889
I0
aI0
aa(lp1890
I0
aI0
aI0
aa(lp1891
I0
aI0
aI1
aI0
aa(lp1892
I0
aI0
aI1
aI0
aI0
aa(lp1893
I0
aI0
aI1
aI0
aI0
aI1
aa(lp1894
I1
aI0
aI1
aI0
aI0
aI0
aI0
aa(lp1895
I1
aI1
aI0
aI1
aI0
aI0
aI0
aI0
aa(lp1896
I1
aI0
aI0
aI0
aI0
aI0
aI0
aI0
aI1
aasg39
Nsg40
F42.22503871626274
sg41
(lp1897
(lp1898
a(lp1899
I0
aa(lp1900
I0
aI0
aa(lp1901
I0
aI0
aI0
aa(lp1902
I0
aI0
aI1
aI0
aa(lp1903
I0
aI0
aI1
aI0
aI1
aa(lp1904
I0
aI0
aI1
aI0
aI1
aI1
aa(lp1905
I1
aI0
aI1
aI0
aI0
aI0
aI0
aa(lp1906
I1
aI1
aI0
aI1
aI0
aI0
aI0
aI0
aa(lp1907
I1
aI0
aI0
aI0
aI0
aI0
aI0
aI0
aI1
aasba(iGenerate
UnitDiskGraph
p1908
(dp1909
g3
g13
sg14
(lp1910
(F11.617976800376695
F74.58595190399022
tp1911
a(F22.743072035329426
F8.422687168993981
tp1912
a(F21.929415859931446
F85.13039241977299
tp1913
a(F54.21395667306116
F72.49458709720976
tp1914
a(F67.15323880660186
F0.10950329733968589
tp1915
a(F87.89471869540552
F57.230736795070015
tp1916
a(F67.66965395564387
F50.83677898127914
tp1917
a(F3.6937583228472515
F85.52836299358523
tp1918
a(F54.12710654822143
F36.63489696367669
tp1919
a(F77.95178568687993
F77.66865668767983
tp1920
asg26
I10
sg27
(lp1921
(lp1922
a(lp1923
I0
aa(lp1924
I1
aI0
aa(lp1925
I0
aI0
aI1
aa(lp1926
I0
aI0
aI0
aI0
aa(lp1927
I0
aI0
aI0
aI1
aI0
aa(lp1928
I0
aI0
aI0
aI1
aI0
aI0
aa(lp1929
I1
aI0
aI1
aI0
aI0
aI0
aI0
aa(lp1930
I0
aI1
aI0
aI0
aI1
aI1
aI1
aI0
aa(lp1931
I0
aI0
aI0
aI0
aI0
aI1
aI1
aI0
aI0
aasg39
Nsg40
F42.200549804541495
sg41
(lp1932
(lp1933
a(lp1934
I0
aa(lp1935
I1
aI0
aa(lp1936
I0
aI0
aI1
aa(lp1937
I0
aI0
aI0
aI0
aa(lp1938
I0
aI0
aI0
aI1
aI0
aa(lp1939
I0
aI0
aI0
aI1
aI0
aI1
aa(lp1940
I1
aI0
aI1
aI0
aI0
aI0
aI0
aa(lp1941
I0
aI1
aI0
aI1
aI1
aI1
aI1
aI0
aa(lp1942
I0
aI0
aI0
aI1
aI0
aI1
aI1
aI0
aI0
aasba(iGenerate
UnitDiskGraph
p1943
(dp1944
g3
g13
sg14
(lp1945
(F66.69733768187666
F47.343290073356506
tp1946
a(F75.83745777619221
F88.27859842347526
tp1947
a(F11.308389545519049
F26.497349624724286
tp1948
a(F68.63913310048586
F3.3997578398331174
tp1949
a(F49.750804040742494
F85.65146856152045
tp1950
a(F15.830570128123323
F40.86036962008135
tp1951
a(F84.09438114952715
F44.149103584588126
tp1952
a(F8.180067368301646
F65.92752690453364
tp1953
a(F68.04601695335812
F17.06791429985719
tp1954
a(F13.975373268876211
F80.95358527762528
tp1955
asg26
I10
sg27
(lp1956
(lp1957
a(lp1958
I0
aa(lp1959
I0
aI0
aa(lp1960
I0
aI0
aI0
aa(lp1961
I1
aI1
aI0
aI0
aa(lp1962
I0
aI0
aI1
aI0
aI0
aa(lp1963
I1
aI0
aI0
aI0
aI0
aI0
aa(lp1964
I0
aI0
aI1
aI0
aI0
aI0
aI0
aa(lp1965
I1
aI0
aI0
aI1
aI0
aI0
aI1
aI0
aa(lp1966
I0
aI0
aI0
aI0
aI1
aI1
aI0
aI0
aI0
aasg39
Nsg40
F41.88915780403228
sg41
(lp1967
(lp1968
a(lp1969
I0
aa(lp1970
I0
aI0
aa(lp1971
I0
aI0
aI0
aa(lp1972
I1
aI1
aI0
aI0
aa(lp1973
I0
aI0
aI1
aI0
aI0
aa(lp1974
I1
aI0
aI0
aI0
aI0
aI0
aa(lp1975
I0
aI0
aI1
aI0
aI0
aI1
aI0
aa(lp1976
I1
aI0
aI0
aI1
aI0
aI0
aI1
aI0
aa(lp1977
I0
aI0
aI0
aI0
aI1
aI1
aI0
aI1
aI0
aasba(iGenerate
UnitDiskGraph
p1978
(dp1979
g3
g13
sg14
(lp1980
(F81.39724922636697
F56.63375818881627
tp1981
a(F0.5044478275487152
F22.552509819532474
tp1982
a(F14.947159250776043
F94.4780724499833
tp1983
a(F0.6677778956869718
F67.39065852824257
tp1984
a(F41.27236137528136
F77.98846830556602
tp1985
a(F13.412173733878497
F67.23935726949044
tp1986
a(F91.711767101961
F97.05881364009235
tp1987
a(F72.83514478070823
F6.570409502192776
tp1988
a(F24.59948273028896
F5.711636631086703
tp1989
a(F84.95263520612923
F98.24477548906329
tp1990
asg26
I10
sg27
(lp1991
(lp1992
a(lp1993
I0
aa(lp1994
I0
aI0
aa(lp1995
I0
aI0
aI0
aa(lp1996
I1
aI0
aI1
aI1
aa(lp1997
I0
aI1
aI1
aI1
aI0
aa(lp1998
I1
aI0
aI0
aI0
aI0
aI0
aa(lp1999
I0
aI0
aI0
aI0
aI0
aI0
aI0
aa(lp2000
I0
aI1
aI0
aI0
aI0
aI0
aI0
aI1
aa(lp2001
I1
aI0
aI0
aI0
aI1
aI0
aI1
aI0
aI0
aasg39
Nsg40
F48.24330610858264
sg41
(lp2002
(lp2003
a(lp2004
I0
aa(lp2005
I0
aI0
aa(lp2006
I0
aI1
aI1
aa(lp2007
I1
aI0
aI1
aI1
aa(lp2008
I0
aI1
aI1
aI1
aI1
aa(lp2009
I1
aI0
aI0
aI0
aI0
aI0
aa(lp2010
I0
aI0
aI0
aI0
aI0
aI0
aI0
aa(lp2011
I0
aI1
aI0
aI0
aI0
aI0
aI0
aI1
aa(lp2012
I1
aI0
aI0
aI0
aI1
aI0
aI1
aI0
aI0
aasba(iGenerate
UnitDiskGraph
p2013
(dp2014
g3
g13
sg14
(lp2015
(F94.62889356903057
F30.09701566894257
tp2016
a(F41.25030296147448
F58.22954927843832
tp2017
a(F19.8551785902909
F26.513032904532906
tp2018
a(F8.055231049284906
F87.96830431130545
tp2019
a(F76.82572166538465
F0.10436354144185422
tp2020
a(F79.85665916955958
F60.9116253644994
tp2021
a(F57.40220846205012
F45.83207800824846
tp2022
a(F75.60992815445809
F34.05529877628835
tp2023
a(F66.46977313591819
F59.620728680808895
tp2024
a(F41.60330255538126
F13.387950229288958
tp2025
asg26
I10
sg27
(lp2026
(lp2027
a(lp2028
I0
aa(lp2029
I0
aI1
aa(lp2030
I0
aI1
aI0
aa(lp2031
I1
aI0
aI0
aI0
aa(lp2032
I0
aI1
aI0
aI0
aI0
aa(lp2033
I1
aI1
aI1
aI0
aI0
aI1
aa(lp2034
I0
aI1
aI0
aI0
aI0
aI1
aI1
aa(lp2035
I1
aI0
aI0
aI0
aI0
aI1
aI0
aI0
aa(lp2036
I0
aI0
aI0
aI0
aI1
aI0
aI1
aI1
aI0
aasg39
Nsg40
F44.56799692784405
sg41
(lp2037
(lp2038
a(lp2039
I0
aa(lp2040
I0
aI1
aa(lp2041
I0
aI1
aI0
aa(lp2042
I1
aI0
aI0
aI0
aa(lp2043
I1
aI1
aI0
aI0
aI0
aa(lp2044
I1
aI1
aI1
aI0
aI0
aI1
aa(lp2045
I1
aI1
aI0
aI0
aI1
aI1
aI1
aa(lp2046
I1
aI1
aI0
aI0
aI0
aI1
aI1
aI1
aa(lp2047
I0
aI0
aI1
aI0
aI1
aI0
aI1
aI1
aI0
aasba(iGenerate
UnitDiskGraph
p2048
(dp2049
g3
g13
sg14
(lp2050
(F46.21511442947609
F42.288192147926104
tp2051
a(F78.37030693585173
F87.88288272042712
tp2052
a(F91.72508364038559
F95.01548016029165
tp2053
a(F11.705797429236064
F61.50760482604204
tp2054
a(F24.928357627449138
F39.14564982387816
tp2055
a(F85.31916013283033
F82.71213064987661
tp2056
a(F30.196020922320375
F2.589828978140829
tp2057
a(F66.07404823743538
F64.66869235811907
tp2058
a(F21.569170411685356
F93.81290860963017
tp2059
a(F80.94441185191515
F16.240849753611673
tp2060
asg26
I10
sg27
(lp2061
(lp2062
a(lp2063
I0
aa(lp2064
I0
aI0
aa(lp2065
I1
aI0
aI0
aa(lp2066
I1
aI0
aI0
aI0
aa(lp2067
I0
aI0
aI1
aI0
aI0
aa(lp2068
I1
aI0
aI0
aI0
aI1
aI0
aa(lp2069
I1
aI1
aI1
aI0
aI0
aI1
aI0
aa(lp2070
I0
aI0
aI0
aI1
aI0
aI0
aI0
aI0
aa(lp2071
I1
aI0
aI0
aI0
aI0
aI0
aI0
aI0
aI0
aasg39
Nsg40
F43.41184337554537
sg41
(lp2072
(lp2073
a(lp2074
I0
aa(lp2075
I0
aI1
aa(lp2076
I1
aI0
aI0
aa(lp2077
I1
aI0
aI0
aI1
aa(lp2078
I0
aI1
aI1
aI0
aI0
aa(lp2079
I1
aI0
aI0
aI0
aI1
aI0
aa(lp2080
I1
aI1
aI1
aI0
aI0
aI1
aI0
aa(lp2081
I0
aI0
aI0
aI1
aI0
aI0
aI0
aI0
aa(lp2082
I1
aI0
aI0
aI0
aI0
aI0
aI0
aI0
aI0
aasba(iGenerate
UnitDiskGraph
p2083
(dp2084
g3
g13
sg14
(lp2085
(F9.084583929319201
F35.48056399244947
tp2086
a(F16.748538204801932
F50.86098989598066
tp2087
a(F87.11002164737297
F34.363562198023565
tp2088
a(F4.831356374907491
F32.429228579639414
tp2089
a(F76.10312609959774
F16.060237694873535
tp2090
a(F52.57970341679774
F47.04932170553177
tp2091
a(F10.461352923054445
F39.62358302881065
tp2092
a(F68.88998262686431
F40.85526523694447
tp2093
a(F28.071044547408817
F13.403349033220668
tp2094
a(F33.50384052076731
F82.45313846401508
tp2095
asg26
I10
sg27
(lp2096
(lp2097
a(lp2098
I0
aa(lp2099
I0
aI0
aa(lp2100
I0
aI1
aI0
aa(lp2101
I0
aI0
aI1
aI0
aa(lp2102
I0
aI1
aI0
aI0
aI0
aa(lp2103
I1
aI1
aI0
aI1
aI0
aI0
aa(lp2104
I0
aI0
aI1
aI0
aI1
aI1
aI0
aa(lp2105
I1
aI0
aI0
aI1
aI0
aI0
aI0
aI0
aa(lp2106
I0
aI1
aI0
aI0
aI0
aI0
aI0
aI0
aI0
aasg39
Nsg40
F36.03333477272703
sg41
(lp2107
(lp2108
a(lp2109
I1
aa(lp2110
I0
aI0
aa(lp2111
I1
aI1
aI0
aa(lp2112
I0
aI0
aI1
aI0
aa(lp2113
I0
aI1
aI0
aI0
aI0
aa(lp2114
I1
aI1
aI0
aI1
aI0
aI0
aa(lp2115
I0
aI0
aI1
aI0
aI1
aI1
aI0
aa(lp2116
I1
aI0
aI0
aI1
aI0
aI0
aI1
aI0
aa(lp2117
I0
aI1
aI0
aI0
aI0
aI0
aI0
aI0
aI0
aasba(iGenerate
UnitDiskGraph
p2118
(dp2119
g3
g13
sg14
(lp2120
(F7.467517567869397
F88.8167273366346
tp2121
a(F26.524117400931402
F42.208735186009726
tp2122
a(F10.674538150712332
F85.27644260838892
tp2123
a(F1.3980934984473392
F24.657176762842624
tp2124
a(F99.76074168358558
F83.9771712819276
tp2125
a(F48.25000304904137
F49.951869760630466
tp2126
a(F39.57115105964597
F94.26479042316004
tp2127
a(F86.16179060665502
F62.185896020492734
tp2128
a(F83.02450452537978
F67.21809875006002
tp2129
a(F44.873997897912176
F63.95693708289707
tp2130
asg26
I10
sg27
(lp2131
(lp2132
a(lp2133
I0
aa(lp2134
I1
aI0
aa(lp2135
I0
aI1
aI0
aa(lp2136
I0
aI0
aI0
aI0
aa(lp2137
I0
aI1
aI0
aI0
aI0
aa(lp2138
I1
aI0
aI0
aI0
aI0
aI0
aa(lp2139
I0
aI0
aI0
aI0
aI1
aI0
aI0
aa(lp2140
I0
aI0
aI0
aI0
aI1
aI0
aI0
aI0
aa(lp2141
I0
aI1
aI0
aI0
aI0
aI1
aI1
aI0
aI1
aasg39
Nsg40
F38.2896373886176
sg41
(lp2142
(lp2143
a(lp2144
I0
aa(lp2145
I1
aI0
aa(lp2146
I0
aI1
aI0
aa(lp2147
I0
aI0
aI0
aI0
aa(lp2148
I0
aI1
aI0
aI0
aI0
aa(lp2149
I1
aI0
aI1
aI0
aI0
aI0
aa(lp2150
I0
aI0
aI0
aI0
aI1
aI0
aI0
aa(lp2151
I0
aI0
aI0
aI0
aI1
aI0
aI0
aI1
aa(lp2152
I0
aI1
aI0
aI0
aI0
aI1
aI1
aI0
aI1
aasba(iGenerate
UnitDiskGraph
p2153
(dp2154
g3
g13
sg14
(lp2155
(F85.37134854873844
F73.30832827160336
tp2156
a(F51.884422854746006
F73.23053331929356
tp2157
a(F34.71507796023842
F21.166622767324284
tp2158
a(F26.496537658368137
F89.59690441456036
tp2159
a(F37.68559619324978
F77.35886951169425
tp2160
a(F50.46770184336344
F42.81632768032666
tp2161
a(F71.80925842827531
F98.05500298245093
tp2162
a(F49.38971292624591
F41.669617472671916
tp2163
a(F34.69479152738876
F75.57794608853071
tp2164
a(F56.97829149435113
F84.40213120671693
tp2165
asg26
I10
sg27
(lp2166
(lp2167
a(lp2168
I0
aa(lp2169
I0
aI0
aa(lp2170
I0
aI0
aI0
aa(lp2171
I0
aI1
aI0
aI1
aa(lp2172
I0
aI1
aI1
aI0
aI0
aa(lp2173
I1
aI0
aI0
aI0
aI0
aI0
aa(lp2174
I0
aI0
aI1
aI0
aI0
aI1
aI0
aa(lp2175
I0
aI1
aI0
aI1
aI0
aI0
aI0
aI0
aa(lp2176
I0
aI1
aI0
aI0
aI1
aI0
aI1
aI0
aI0
aasg39
Nsg40
F30.4471838282863
sg41
(lp2177
(lp2178
a(lp2179
I0
aa(lp2180
I0
aI0
aa(lp2181
I0
aI1
aI0
aa(lp2182
I0
aI1
aI0
aI1
aa(lp2183
I0
aI1
aI1
aI0
aI0
aa(lp2184
I1
aI0
aI0
aI0
aI0
aI0
aa(lp2185
I0
aI0
aI1
aI0
aI0
aI1
aI0
aa(lp2186
I0
aI1
aI0
aI1
aI1
aI0
aI0
aI0
aa(lp2187
I0
aI1
aI0
aI0
aI1
aI0
aI1
aI0
aI1
aasba(iGenerate
UnitDiskGraph
p2188
(dp2189
g3
g13
sg14
(lp2190
(F4.74059001478464
F69.5693549050101
tp2191
a(F90.45820247190379
F71.3350520499052
tp2192
a(F82.59289760221574
F82.8961547306506
tp2193
a(F0.6684433900719489
F91.13269872714437
tp2194
a(F59.63520923574778
F40.053265599279065
tp2195
a(F16.419397870083575
F73.31629665765232
tp2196
a(F3.094107357782283
F7.961533285622091
tp2197
a(F33.82731332265075
F47.77212198967262
tp2198
a(F93.81693044573706
F84.05069133662765
tp2199
a(F27.94264772673897
F23.53456106801194
tp2200
asg26
I10
sg27
(lp2201
(lp2202
a(lp2203
I0
aa(lp2204
I0
aI1
aa(lp2205
I1
aI0
aI0
aa(lp2206
I0
aI1
aI0
aI0
aa(lp2207
I1
aI0
aI0
aI1
aI0
aa(lp2208
I0
aI0
aI0
aI0
aI0
aI0
aa(lp2209
I1
aI0
aI0
aI0
aI1
aI0
aI0
aa(lp2210
I0
aI1
aI1
aI0
aI0
aI0
aI0
aI0
aa(lp2211
I0
aI0
aI0
aI0
aI0
aI0
aI1
aI1
aI0
aasg39
Nsg40
F43.91590913984015
sg41
(lp2212
(lp2213
a(lp2214
I0
aa(lp2215
I0
aI1
aa(lp2216
I1
aI0
aI0
aa(lp2217
I0
aI1
aI0
aI0
aa(lp2218
I1
aI0
aI0
aI1
aI0
aa(lp2219
I0
aI0
aI0
aI0
aI0
aI0
aa(lp2220
I1
aI0
aI0
aI0
aI1
aI1
aI0
aa(lp2221
I0
aI1
aI1
aI0
aI0
aI0
aI0
aI0
aa(lp2222
I0
aI0
aI0
aI0
aI1
aI0
aI1
aI1
aI0
aasba(iGenerate
UnitDiskGraph
p2223
(dp2224
g3
g13
sg14
(lp2225
(F87.90388537620643
F82.75432617599498
tp2226
a(F90.48632203318174
F37.35972404015803
tp2227
a(F99.6763827184072
F10.871432766854138
tp2228
a(F7.652464577576579
F43.28661122074987
tp2229
a(F24.428986193135316
F13.77827857917644
tp2230
a(F34.778103916738935
F1.8920920135297448
tp2231
a(F68.16185493798756
F15.261643753752264
tp2232
a(F73.4310610776798
F81.46058064337008
tp2233
a(F75.37982172503843
F77.50533304096287
tp2234
a(F22.50657873328278
F40.98669293694881
tp2235
asg26
I10
sg27
(lp2236
(lp2237
a(lp2238
I0
aa(lp2239
I0
aI1
aa(lp2240
I0
aI0
aI0
aa(lp2241
I0
aI0
aI0
aI1
aa(lp2242
I0
aI0
aI0
aI0
aI1
aa(lp2243
I0
aI0
aI1
aI0
aI0
aI1
aa(lp2244
I1
aI0
aI0
aI0
aI0
aI0
aI0
aa(lp2245
I1
aI1
aI0
aI0
aI0
aI0
aI0
aI1
aa(lp2246
I0
aI0
aI0
aI0
aI1
aI1
aI0
aI0
aI0
aasg39
Nsg40
F42.89377896158645
sg41
(lp2247
(lp2248
a(lp2249
I0
aa(lp2250
I0
aI1
aa(lp2251
I0
aI0
aI0
aa(lp2252
I0
aI0
aI0
aI1
aa(lp2253
I0
aI0
aI0
aI0
aI1
aa(lp2254
I0
aI1
aI1
aI0
aI0
aI1
aa(lp2255
I1
aI0
aI0
aI0
aI0
aI0
aI0
aa(lp2256
I1
aI1
aI0
aI0
aI0
aI0
aI0
aI1
aa(lp2257
I0
aI0
aI0
aI1
aI1
aI1
aI0
aI0
aI0
aasba(iGenerate
UnitDiskGraph
p2258
(dp2259
g3
g13
sg14
(lp2260
(F26.04355564490075
F59.140921699821625
tp2261
a(F28.913454187184463
F76.59092501666399
tp2262
a(F70.99374138428821
F0.20381241832730934
tp2263
a(F23.864691499944435
F61.35443175871801
tp2264
a(F44.477734273618566
F62.55084535936539
tp2265
a(F27.98178601802206
F46.01091336363171
tp2266
a(F36.69095849179429
F11.53772299251452
tp2267
a(F68.49219017040745
F6.135674741491637
tp2268
a(F34.43712170350117
F98.59967328925146
tp2269
a(F72.27435706825081
F58.936851101587806
tp2270
asg26
I10
sg27
(lp2271
(lp2272
a(lp2273
I1
aa(lp2274
I0
aI0
aa(lp2275
I1
aI0
aI0
aa(lp2276
I1
aI1
aI0
aI1
aa(lp2277
I0
aI1
aI0
aI1
aI0
aa(lp2278
I0
aI0
aI0
aI0
aI0
aI1
aa(lp2279
I0
aI0
aI1
aI0
aI0
aI0
aI1
aa(lp2280
I0
aI1
aI0
aI0
aI0
aI0
aI0
aI0
aa(lp2281
I0
aI0
aI0
aI0
aI1
aI0
aI0
aI0
aI0
aasg39
Nsg40
F35.556300982261895
sg41
(lp2282
(lp2283
a(lp2284
I1
aa(lp2285
I0
aI0
aa(lp2286
I1
aI1
aI0
aa(lp2287
I1
aI1
aI0
aI1
aa(lp2288
I1
aI1
aI0
aI1
aI1
aa(lp2289
I0
aI0
aI0
aI0
aI0
aI1
aa(lp2290
I0
aI0
aI1
aI0
aI0
aI0
aI1
aa(lp2291
I0
aI1
aI0
aI0
aI0
aI0
aI0
aI0
aa(lp2292
I0
aI0
aI0
aI0
aI1
aI0
aI0
aI0
aI0
aasba(iGenerate
UnitDiskGraph
p2293
(dp2294
g3
g13
sg14
(lp2295
(F87.37418901465936
F58.07868774571833
tp2296
a(F83.8994418824143
F74.47446525476171
tp2297
a(F23.450393673564673
F36.363641449929816
tp2298
a(F29.827414427914977
F80.77510541743627
tp2299
a(F65.26600281860824
F66.41379459184601
tp2300
a(F46.64967329804617
F37.86431707614971
tp2301
a(F68.49954135638929
F95.37463826462604
tp2302
a(F78.59900689557684
F87.17621172198113
tp2303
a(F60.64477262057917
F83.38234695084817
tp2304
a(F75.50987092514731
F29.48415377922614
tp2305
asg26
I10
sg27
(lp2306
(lp2307
a(lp2308
I0
aa(lp2309
I0
aI0
aa(lp2310
I0
aI0
aI0
aa(lp2311
I1
aI1
aI0
aI0
aa(lp2312
I0
aI0
aI1
aI0
aI0
aa(lp2313
I0
aI0
aI0
aI0
aI1
aI0
aa(lp2314
I1
aI1
aI0
aI0
aI1
aI0
aI0
aa(lp2315
I0
aI1
aI0
aI1
aI1
aI0
aI1
aI0
aa(lp2316
I1
aI0
aI0
aI0
aI0
aI1
aI0
aI0
aI0
aasg39
Nsg40
F30.95818819779346
sg41
(lp2317
(lp2318
a(lp2319
I1
aa(lp2320
I0
aI0
aa(lp2321
I0
aI0
aI0
aa(lp2322
I1
aI1
aI0
aI0
aa(lp2323
I0
aI0
aI1
aI0
aI0
aa(lp2324
I0
aI1
aI0
aI0
aI1
aI0
aa(lp2325
I1
aI1
aI0
aI0
aI1
aI0
aI1
aa(lp2326
I0
aI1
aI0
aI1
aI1
aI0
aI1
aI1
aa(lp2327
I1
aI0
aI0
aI0
aI0
aI1
aI0
aI0
aI0
aasba(iGenerate
UnitDiskGraph
p2328
(dp2329
g3
g13
sg14
(lp2330
(F18.607353509419944
F83.50013410411874
tp2331
a(F48.79679081588687
F32.01752388171286
tp2332
a(F64.2010639510847
F74.66843425904396
tp2333
a(F0.14764479287757704
F60.41061841971472
tp2334
a(F88.23603755829306
F70.83339391688608
tp2335
a(F19.99139787908869
F63.2204875184606
tp2336
a(F3.6739179894740404
F96.55627069145172
tp2337
a(F56.68962610319416
F39.06171921880981
tp2338
a(F23.71419337185867
F57.185490930140226
tp2339
a(F88.14601149264142
F89.42773080319681
tp2340
asg26
I10
sg27
(lp2341
(lp2342
a(lp2343
I0
aa(lp2344
I0
aI0
aa(lp2345
I1
aI0
aI0
aa(lp2346
I0
aI0
aI1
aI0
aa(lp2347
I1
aI0
aI0
aI1
aI0
aa(lp2348
I0
aI0
aI0
aI1
aI0
aI0
aa(lp2349
I0
aI1
aI1
aI0
aI0
aI0
aI0
aa(lp2350
I1
aI1
aI0
aI1
aI0
aI0
aI0
aI0
aa(lp2351
I0
aI0
aI1
aI0
aI0
aI0
aI0
aI0
aI0
aasg39
Nsg40
F36.39038134588809
sg41
(lp2352
(lp2353
a(lp2354
I0
aa(lp2355
I0
aI0
aa(lp2356
I1
aI0
aI0
aa(lp2357
I0
aI0
aI1
aI0
aa(lp2358
I1
aI0
aI0
aI1
aI0
aa(lp2359
I1
aI0
aI0
aI1
aI0
aI0
aa(lp2360
I0
aI1
aI1
aI0
aI0
aI0
aI0
aa(lp2361
I1
aI1
aI0
aI1
aI0
aI1
aI0
aI0
aa(lp2362
I0
aI0
aI1
aI0
aI1
aI0
aI0
aI0
aI0
aasba(iGenerate
UnitDiskGraph
p2363
(dp2364
g3
g13
sg14
(lp2365
(F99.67158048861091
F82.46500559844021
tp2366
a(F27.792091884916726
F36.47704666359204
tp2367
a(F97.19849641398164
F0.3883374522845262
tp2368
a(F25.057966111317732
F28.986568041763206
tp2369
a(F33.281788277943235
F33.09036812168383
tp2370
a(F18.754272896269207
F56.07289143364923
tp2371
a(F84.64486891099982
F68.67918105394517
tp2372
a(F87.9578513153217
F16.85959694541014
tp2373
a(F32.867780200039185
F81.57434521769338
tp2374
a(F84.52762688668271
F46.77562589731591
tp2375
asg26
I10
sg27
(lp2376
(lp2377
a(lp2378
I0
aa(lp2379
I0
aI0
aa(lp2380
I0
aI0
aI0
aa(lp2381
I0
aI1
aI0
aI1
aa(lp2382
I0
aI1
aI0
aI1
aI1
aa(lp2383
I1
aI0
aI0
aI0
aI0
aI0
aa(lp2384
I0
aI0
aI1
aI0
aI0
aI0
aI0
aa(lp2385
I0
aI1
aI0
aI0
aI0
aI0
aI0
aI0
aa(lp2386
I1
aI0
aI1
aI0
aI1
aI0
aI1
aI1
aI0
aasg39
Nsg40
F53.04170298075347
sg41
(lp2387
(lp2388
a(lp2389
I0
aa(lp2390
I0
aI0
aa(lp2391
I0
aI1
aI0
aa(lp2392
I0
aI1
aI0
aI1
aa(lp2393
I0
aI1
aI0
aI1
aI1
aa(lp2394
I1
aI0
aI0
aI0
aI0
aI0
aa(lp2395
I0
aI0
aI1
aI0
aI0
aI0
aI1
aa(lp2396
I0
aI1
aI0
aI0
aI1
aI1
aI0
aI0
aa(lp2397
I1
aI0
aI1
aI0
aI1
aI0
aI1
aI1
aI0
aasba(iGenerate
UnitDiskGraph
p2398
(dp2399
g3
g13
sg14
(lp2400
(F48.892847451071184
F46.91697631507724
tp2401
a(F90.13395744447934
F57.79591644788612
tp2402
a(F85.917216735447
F28.084305223905837
tp2403
a(F20.248041738343602
F2.8327375487446127
tp2404
a(F28.50700731125394
F53.6746387258957
tp2405
a(F40.05079311721228
F4.689697173249574
tp2406
a(F83.10604241264977
F95.04104604597882
tp2407
a(F89.04598885147453
F72.93099401353341
tp2408
a(F57.65578494131168
F43.69976403782885
tp2409
a(F66.80479120242046
F33.64645606517583
tp2410
asg26
I10
sg27
(lp2411
(lp2412
a(lp2413
I0
aa(lp2414
I0
aI1
aa(lp2415
I0
aI0
aI0
aa(lp2416
I1
aI0
aI0
aI0
aa(lp2417
I0
aI0
aI0
aI1
aI0
aa(lp2418
I0
aI1
aI0
aI0
aI0
aI0
aa(lp2419
I0
aI0
aI0
aI0
aI0
aI0
aI1
aa(lp2420
I0
aI1
aI1
aI0
aI1
aI0
aI0
aI0
aa(lp2421
I1
aI1
aI1
aI0
aI0
aI1
aI0
aI0
aI0
aasg39
Nsg40
F39.424234920521585
sg41
(lp2422
(lp2423
a(lp2424
I0
aa(lp2425
I0
aI1
aa(lp2426
I0
aI0
aI0
aa(lp2427
I1
aI0
aI0
aI0
aa(lp2428
I0
aI0
aI0
aI1
aI0
aa(lp2429
I0
aI1
aI0
aI0
aI0
aI0
aa(lp2430
I0
aI1
aI0
aI0
aI0
aI0
aI1
aa(lp2431
I1
aI1
aI1
aI0
aI1
aI0
aI0
aI0
aa(lp2432
I1
aI1
aI1
aI0
aI0
aI1
aI0
aI0
aI1
aasba(iGenerate
UnitDiskGraph
p2433
(dp2434
g3
g13
sg14
(lp2435
(F62.12431858998737
F9.191458295341048
tp2436
a(F94.69685084608133
F37.48088486255653
tp2437
a(F97.31565172260665
F46.90612213005929
tp2438
a(F82.83302072190398
F9.225303394057526
tp2439
a(F83.61835233384367
F26.991327010080756
tp2440
a(F8.24336194106704
F21.342246153065936
tp2441
a(F17.678585407114568
F48.10143559658015
tp2442
a(F47.34273852810501
F8.859011554297558
tp2443
a(F61.96510914624545
F74.08023412592658
tp2444
a(F67.88337961139075
F67.75199575291442
tp2445
asg26
I10
sg27
(lp2446
(lp2447
a(lp2448
I0
aa(lp2449
I0
aI1
aa(lp2450
I1
aI1
aI0
aa(lp2451
I1
aI0
aI0
aI0
aa(lp2452
I0
aI0
aI0
aI0
aI0
aa(lp2453
I0
aI0
aI0
aI0
aI0
aI1
aa(lp2454
I1
aI0
aI0
aI1
aI1
aI1
aI0
aa(lp2455
I0
aI0
aI0
aI0
aI0
aI0
aI0
aI0
aa(lp2456
I0
aI1
aI1
aI0
aI0
aI0
aI0
aI0
aI1
aasg39
Nsg40
F41.0437863207441
sg41
(lp2457
(lp2458
a(lp2459
I0
aa(lp2460
I0
aI1
aa(lp2461
I1
aI1
aI1
aa(lp2462
I1
aI1
aI1
aI1
aa(lp2463
I0
aI0
aI0
aI0
aI0
aa(lp2464
I0
aI0
aI0
aI0
aI0
aI1
aa(lp2465
I1
aI0
aI0
aI1
aI1
aI1
aI0
aa(lp2466
I0
aI0
aI0
aI0
aI0
aI0
aI0
aI0
aa(lp2467
I0
aI1
aI1
aI0
aI0
aI0
aI0
aI0
aI1
aasba(iGenerate
UnitDiskGraph
p2468
(dp2469
g3
g13
sg14
(lp2470
(F36.175211332896964
F59.221527287685575
tp2471
a(F72.43670587487118
F81.7918034253027
tp2472
a(F76.97493907803482
F7.718886321813045
tp2473
a(F26.38470055537484
F37.098756818148615
tp2474
a(F75.34921352444142
F33.97166918395871
tp2475
a(F66.57472257725993
F53.357065992678486
tp2476
a(F98.6105080458616
F59.98020400366065
tp2477
a(F81.50562272182025
F7.101091524326897
tp2478
a(F95.0492750356634
F9.03410516545311
tp2479
a(F23.462096568676838
F67.53747055619289
tp2480
asg26
I10
sg27
(lp2481
(lp2482
a(lp2483
I0
aa(lp2484
I0
aI0
aa(lp2485
I1
aI0
aI0
aa(lp2486
I0
aI0
aI1
aI0
aa(lp2487
I1
aI1
aI0
aI0
aI1
aa(lp2488
I0
aI0
aI0
aI0
aI0
aI1
aa(lp2489
I0
aI0
aI0
aI0
aI1
aI0
aI0
aa(lp2490
I0
aI0
aI1
aI0
aI0
aI0
aI0
aI1
aa(lp2491
I1
aI0
aI0
aI1
aI0
aI0
aI0
aI0
aI0
aasg39
Nsg40
F32.71326195448546
sg41
(lp2492
(lp2493
a(lp2494
I0
aa(lp2495
I0
aI0
aa(lp2496
I1
aI0
aI0
aa(lp2497
I0
aI0
aI1
aI0
aa(lp2498
I1
aI1
aI0
aI0
aI1
aa(lp2499
I0
aI0
aI0
aI0
aI0
aI1
aa(lp2500
I0
aI0
aI1
aI0
aI1
aI0
aI0
aa(lp2501
I0
aI0
aI1
aI0
aI1
aI0
aI0
aI1
aa(lp2502
I1
aI0
aI0
aI1
aI0
aI0
aI0
aI0
aI0
aasba(iGenerate
UnitDiskGraph
p2503
(dp2504
g3
g13
sg14
(lp2505
(F62.463455051668944
F65.59598687720273
tp2506
a(F1.5788117172577776
F37.26553074319341
tp2507
a(F14.40242656448728
F46.009132373146244
tp2508
a(F70.6099816773236
F24.7590633455968
tp2509
a(F18.832286171076706
F68.57775683332183
tp2510
a(F21.810852094798584
F64.3120269217352
tp2511
a(F68.18670827912459
F70.1140148853766
tp2512
a(F8.771181173981324
F28.318762932117014
tp2513
a(F26.06850389233002
F14.098931811144
tp2514
a(F6.272292991268069
F42.99372299955936
tp2515
asg26
I10
sg27
(lp2516
(lp2517
a(lp2518
I0
aa(lp2519
I0
aI1
aa(lp2520
I1
aI0
aI0
aa(lp2521
I0
aI1
aI1
aI0
aa(lp2522
I1
aI0
aI1
aI0
aI1
aa(lp2523
I1
aI0
aI0
aI0
aI0
aI0
aa(lp2524
I0
aI0
aI1
aI0
aI1
aI1
aI0
aa(lp2525
I0
aI0
aI0
aI0
aI0
aI0
aI0
aI1
aa(lp2526
I0
aI1
aI1
aI0
aI0
aI0
aI0
aI1
aI0
aasg39
Nsg40
F41.641568409327846
sg41
(lp2527
(lp2528
a(lp2529
I0
aa(lp2530
I0
aI1
aa(lp2531
I1
aI0
aI0
aa(lp2532
I0
aI1
aI1
aI0
aa(lp2533
I1
aI1
aI1
aI0
aI1
aa(lp2534
I1
aI0
aI0
aI0
aI0
aI0
aa(lp2535
I0
aI1
aI1
aI0
aI1
aI1
aI0
aa(lp2536
I0
aI1
aI1
aI0
aI0
aI0
aI0
aI1
aa(lp2537
I0
aI1
aI1
aI0
aI1
aI1
aI0
aI1
aI1
aasba(iGenerate
UnitDiskGraph
p2538
(dp2539
g3
g13
sg14
(lp2540
(F9.83731020770705
F85.0396726437587
tp2541
a(F49.59500383278821
F50.89591123531563
tp2542
a(F27.775633486288285
F58.60345328478503
tp2543
a(F38.78684312096618
F49.525167565475705
tp2544
a(F69.26533880614834
F68.27425652944704
tp2545
a(F4.023803455961739
F13.387932692019621
tp2546
a(F38.16800212258199
F83.54788743469652
tp2547
a(F15.670789211204161
F19.546261878020577
tp2548
a(F54.1025095072063
F36.017093191496265
tp2549
a(F64.63462223193498
F39.321338225994154
tp2550
asg26
I10
sg27
(lp2551
(lp2552
a(lp2553
I0
aa(lp2554
I1
aI1
aa(lp2555
I0
aI1
aI0
aa(lp2556
I0
aI1
aI0
aI0
aa(lp2557
I0
aI0
aI0
aI0
aI0
aa(lp2558
I1
aI0
aI0
aI1
aI1
aI0
aa(lp2559
I0
aI0
aI0
aI1
aI0
aI1
aI0
aa(lp2560
I0
aI1
aI0
aI1
aI1
aI0
aI0
aI0
aa(lp2561
I0
aI1
aI0
aI1
aI0
aI0
aI0
aI0
aI1
aasg39
Nsg40
F37.85613206042521
sg41
(lp2562
(lp2563
a(lp2564
I0
aa(lp2565
I1
aI1
aa(lp2566
I0
aI1
aI1
aa(lp2567
I0
aI1
aI0
aI1
aa(lp2568
I0
aI0
aI0
aI0
aI0
aa(lp2569
I1
aI1
aI1
aI1
aI1
aI0
aa(lp2570
I0
aI0
aI0
aI1
aI0
aI1
aI0
aa(lp2571
I0
aI1
aI1
aI1
aI1
aI0
aI0
aI0
aa(lp2572
I0
aI1
aI0
aI1
aI1
aI0
aI0
aI0
aI1
aasba(iGenerate
UnitDiskGraph
p2573
(dp2574
g3
g13
sg14
(lp2575
(F99.1500209687571
F50.033037168925745
tp2576
a(F55.51761973193037
F24.62961125227866
tp2577
a(F93.87604155768902
F35.08993042745622
tp2578
a(F57.45577031127308
F3.085430537756384
tp2579
a(F23.787896062534674
F79.50108945258319
tp2580
a(F56.95156869286669
F0.5921011862374259
tp2581
a(F21.068637792983846
F71.59562399726083
tp2582
a(F68.3497429452955
F5.7256589532441176
tp2583
a(F45.64499124107995
F37.49705045890688
tp2584
a(F50.21555426317356
F0.9713943074557196
tp2585
asg26
I10
sg27
(lp2586
(lp2587
a(lp2588
I0
aa(lp2589
I1
aI1
aa(lp2590
I0
aI1
aI0
aa(lp2591
I0
aI0
aI0
aI0
aa(lp2592
I0
aI1
aI0
aI1
aI0
aa(lp2593
I0
aI0
aI0
aI0
aI1
aI0
aa(lp2594
I0
aI1
aI0
aI1
aI0
aI0
aI0
aa(lp2595
I0
aI1
aI0
aI1
aI0
aI0
aI1
aI1
aa(lp2596
I0
aI0
aI0
aI1
aI0
aI1
aI0
aI0
aI0
aasg39
Nsg40
F42.03224793127627
sg41
(lp2597
(lp2598
a(lp2599
I0
aa(lp2600
I1
aI1
aa(lp2601
I0
aI1
aI0
aa(lp2602
I0
aI0
aI0
aI0
aa(lp2603
I0
aI1
aI0
aI1
aI0
aa(lp2604
I0
aI0
aI0
aI0
aI1
aI0
aa(lp2605
I0
aI1
aI1
aI1
aI0
aI1
aI0
aa(lp2606
I0
aI1
aI0
aI1
aI0
aI1
aI1
aI1
aa(lp2607
I0
aI1
aI0
aI1
aI0
aI1
aI0
aI1
aI1
aasba(iGenerate
UnitDiskGraph
p2608
(dp2609
g3
g13
sg14
(lp2610
(F87.26129517282453
F14.017575576080677
tp2611
a(F63.72250287037775
F30.976611429882272
tp2612
a(F26.987398825198504
F79.54042113154472
tp2613
a(F24.334714543767312
F61.605173203837595
tp2614
a(F97.82602604623753
F59.155520359663704
tp2615
a(F86.7049267352143
F13.859753410156216
tp2616
a(F17.27639621464263
F64.11543544878462
tp2617
a(F57.85944313516055
F89.62650193121038
tp2618
a(F50.86959796419811
F90.88542339922971
tp2619
a(F48.11003743186825
F57.27997304250856
tp2620
asg26
I10
sg27
(lp2621
(lp2622
a(lp2623
I0
aa(lp2624
I0
aI0
aa(lp2625
I0
aI0
aI1
aa(lp2626
I0
aI1
aI0
aI0
aa(lp2627
I1
aI1
aI0
aI0
aI0
aa(lp2628
I0
aI0
aI1
aI0
aI0
aI0
aa(lp2629
I0
aI0
aI1
aI1
aI0
aI0
aI0
aa(lp2630
I0
aI0
aI1
aI0
aI0
aI0
aI1
aI1
aa(lp2631
I0
aI1
aI0
aI1
aI0
aI0
aI1
aI1
aI0
aasg39
Nsg40
F44.23913653632178
sg41
(lp2632
(lp2633
a(lp2634
I1
aa(lp2635
I0
aI0
aa(lp2636
I0
aI0
aI1
aa(lp2637
I0
aI1
aI0
aI0
aa(lp2638
I1
aI1
aI0
aI0
aI0
aa(lp2639
I0
aI0
aI1
aI1
aI0
aI0
aa(lp2640
I0
aI0
aI1
aI1
aI0
aI0
aI0
aa(lp2641
I0
aI0
aI1
aI1
aI0
aI0
aI1
aI1
aa(lp2642
I0
aI1
aI1
aI1
aI0
aI0
aI1
aI1
aI1
aasba(iGenerate
UnitDiskGraph
p2643
(dp2644
g3
g13
sg14
(lp2645
(F56.65911444672512
F40.65716138788584
tp2646
a(F41.132974370233455
F26.55370615220365
tp2647
a(F95.33476248283506
F56.24105587013036
tp2648
a(F47.372000708194804
F41.95697505984104
tp2649
a(F21.90906855482604
F44.960925949540595
tp2650
a(F61.70789227938529
F62.26134772799299
tp2651
a(F4.172485298298756
F16.945075265336484
tp2652
a(F62.59326636674114
F73.12074410663114
tp2653
a(F23.706973199464464
F68.32153729309675
tp2654
a(F5.322630724511179
F18.873443806046364
tp2655
asg26
I10
sg27
(lp2656
(lp2657
a(lp2658
I1
aa(lp2659
I0
aI0
aa(lp2660
I1
aI0
aI0
aa(lp2661
I0
aI0
aI0
aI1
aa(lp2662
I1
aI0
aI1
aI1
aI0
aa(lp2663
I0
aI0
aI0
aI0
aI1
aI0
aa(lp2664
I0
aI0
aI0
aI0
aI0
aI1
aI0
aa(lp2665
I0
aI0
aI0
aI0
aI1
aI0
aI0
aI0
aa(lp2666
I0
aI0
aI0
aI0
aI1
aI0
aI1
aI0
aI0
aasg39
Nsg40
F34.16153266077951
sg41
(lp2667
(lp2668
a(lp2669
I1
aa(lp2670
I0
aI0
aa(lp2671
I1
aI1
aI0
aa(lp2672
I0
aI1
aI0
aI1
aa(lp2673
I1
aI0
aI1
aI1
aI0
aa(lp2674
I0
aI0
aI0
aI0
aI1
aI0
aa(lp2675
I1
aI0
aI0
aI0
aI0
aI1
aI0
aa(lp2676
I0
aI0
aI0
aI0
aI1
aI0
aI0
aI0
aa(lp2677
I0
aI0
aI0
aI0
aI1
aI0
aI1
aI0
aI0
aasba(iGenerate
UnitDiskGraph
p2678
(dp2679
g3
g13
sg14
(lp2680
(F15.898443850775601
F15.678306271469822
tp2681
a(F94.23974873825468
F68.02136431098955
tp2682
a(F9.190279782956578
F35.61806106040058
tp2683
a(F57.999646311173755
F77.59387310991595
tp2684
a(F95.83776103124113
F31.231097799953144
tp2685
a(F55.37809200059769
F14.986794138400583
tp2686
a(F45.83231378106872
F93.59682165343479
tp2687
a(F89.24140558947016
F91.02443782649713
tp2688
a(F24.258936519323115
F26.465781573885106
tp2689
a(F36.03457795137851
F88.2470188079979
tp2690
asg26
I10
sg27
(lp2691
(lp2692
a(lp2693
I0
aa(lp2694
I1
aI0
aa(lp2695
I0
aI1
aI0
aa(lp2696
I0
aI1
aI0
aI0
aa(lp2697
I1
aI0
aI0
aI0
aI1
aa(lp2698
I0
aI0
aI0
aI1
aI0
aI0
aa(lp2699
I0
aI1
aI0
aI0
aI0
aI0
aI0
aa(lp2700
I1
aI0
aI1
aI0
aI0
aI0
aI0
aI0
aa(lp2701
I0
aI0
aI0
aI1
aI0
aI0
aI1
aI0
aI0
aasg39
Nsg40
F43.59887864977651
sg41
(lp2702
(lp2703
a(lp2704
I0
aa(lp2705
I1
aI0
aa(lp2706
I0
aI1
aI0
aa(lp2707
I0
aI1
aI0
aI0
aa(lp2708
I1
aI0
aI0
aI0
aI1
aa(lp2709
I0
aI0
aI0
aI1
aI0
aI0
aa(lp2710
I0
aI1
aI0
aI1
aI0
aI0
aI1
aa(lp2711
I1
aI0
aI1
aI0
aI0
aI1
aI0
aI0
aa(lp2712
I0
aI0
aI0
aI1
aI0
aI0
aI1
aI0
aI0
aasba(iGenerate
UnitDiskGraph
p2713
(dp2714
g3
g13
sg14
(lp2715
(F78.95021794112594
F90.75565577011861
tp2716
a(F36.84234830750551
F87.42726574219229
tp2717
a(F24.281178028603446
F60.44483035241538
tp2718
a(F68.73410258631033
F82.66238269310527
tp2719
a(F87.8248489137129
F35.218728959012616
tp2720
a(F37.92539167236314
F98.33479852519072
tp2721
a(F90.9670344365566
F9.883619664568123
tp2722
a(F46.760405375262096
F20.897684624637346
tp2723
a(F53.54124332595374
F70.30226942885685
tp2724
a(F76.98600402913051
F25.017215545750414
tp2725
asg26
I10
sg27
(lp2726
(lp2727
a(lp2728
I1
aa(lp2729
I0
aI1
aa(lp2730
I0
aI0
aI0
aa(lp2731
I0
aI0
aI0
aI0
aa(lp2732
I0
aI0
aI1
aI1
aI0
aa(lp2733
I0
aI0
aI0
aI0
aI1
aI0
aa(lp2734
I0
aI0
aI1
aI0
aI1
aI0
aI0
aa(lp2735
I1
aI1
aI1
aI1
aI0
aI0
aI0
aI0
aa(lp2736
I0
aI0
aI0
aI0
aI1
aI0
aI1
aI1
aI0
aasg39
Nsg40
F45.489475676433976
sg41
(lp2737
(lp2738
a(lp2739
I1
aa(lp2740
I0
aI1
aa(lp2741
I1
aI1
aI0
aa(lp2742
I0
aI0
aI0
aI0
aa(lp2743
I1
aI1
aI1
aI1
aI0
aa(lp2744
I0
aI0
aI0
aI0
aI1
aI0
aa(lp2745
I0
aI0
aI1
aI0
aI1
aI0
aI0
aa(lp2746
I1
aI1
aI1
aI1
aI0
aI1
aI0
aI0
aa(lp2747
I0
aI0
aI0
aI0
aI1
aI0
aI1
aI1
aI0
aasba(iGenerate
UnitDiskGraph
p2748
(dp2749
g3
g13
sg14
(lp2750
(F4.925947256915353
F25.87843266909633
tp2751
a(F52.82889276375262
F71.57135298850363
tp2752
a(F66.49967425968651
F39.75431205557882
tp2753
a(F1.951949619930049
F99.03965491358889
tp2754
a(F64.09099578298603
F63.999843011159406
tp2755
a(F83.90202489649083
F98.57854388229079
tp2756
a(F68.26353612073788
F27.197598301627714
tp2757
a(F65.85304766459137
F63.768721232287874
tp2758
a(F7.23127044940215
F56.67122813988642
tp2759
a(F29.16945401205824
F92.50987087158026
tp2760
asg26
I10
sg27
(lp2761
(lp2762
a(lp2763
I0
aa(lp2764
I0
aI0
aa(lp2765
I0
aI0
aI0
aa(lp2766
I0
aI1
aI1
aI0
aa(lp2767
I0
aI1
aI0
aI0
aI1
aa(lp2768
I0
aI0
aI0
aI0
aI1
aI0
aa(lp2769
I0
aI1
aI1
aI0
aI1
aI0
aI0
aa(lp2770
I1
aI0
aI0
aI0
aI0
aI0
aI0
aI0
aa(lp2771
I0
aI1
aI0
aI1
aI0
aI0
aI0
aI0
aI1
aasg39
Nsg40
F42.020140538541575
sg41
(lp2772
(lp2773
a(lp2774
I0
aa(lp2775
I0
aI1
aa(lp2776
I0
aI0
aI0
aa(lp2777
I0
aI1
aI1
aI0
aa(lp2778
I0
aI1
aI0
aI0
aI1
aa(lp2779
I0
aI0
aI1
aI0
aI1
aI0
aa(lp2780
I0
aI1
aI1
aI0
aI1
aI1
aI1
aa(lp2781
I1
aI0
aI0
aI0
aI0
aI0
aI0
aI0
aa(lp2782
I0
aI1
aI0
aI1
aI0
aI0
aI0
aI0
aI1
aasba(iGenerate
UnitDiskGraph
p2783
(dp2784
g3
g13
sg14
(lp2785
(F37.52870815800339
F13.39820646827825
tp2786
a(F16.37981190272999
F47.84252668761143
tp2787
a(F49.48220264786522
F62.87757552203044
tp2788
a(F12.001968099886806
F31.559625651684552
tp2789
a(F55.15768656242148
F61.43972688234205
tp2790
a(F74.93875648401938
F49.669966672725565
tp2791
a(F84.95682258874065
F90.64530032563766
tp2792
a(F93.86601735228633
F34.56898746200453
tp2793
a(F94.11485480274555
F22.906437959874847
tp2794
a(F82.38058426464589
F79.57083614640452
tp2795
asg26
I10
sg27
(lp2796
(lp2797
a(lp2798
I0
aa(lp2799
I0
aI1
aa(lp2800
I1
aI1
aI0
aa(lp2801
I0
aI0
aI1
aI0
aa(lp2802
I0
aI0
aI1
aI0
aI1
aa(lp2803
I0
aI0
aI0
aI0
aI0
aI0
aa(lp2804
I0
aI0
aI0
aI0
aI0
aI1
aI0
aa(lp2805
I0
aI0
aI0
aI0
aI0
aI1
aI0
aI0
aa(lp2806
I0
aI0
aI0
aI0
aI0
aI1
aI1
aI0
aI0
aasg39
Nsg40
F36.35685583898832
sg41
(lp2807
(lp2808
a(lp2809
I0
aa(lp2810
I0
aI1
aa(lp2811
I1
aI1
aI0
aa(lp2812
I0
aI0
aI1
aI0
aa(lp2813
I0
aI0
aI1
aI0
aI1
aa(lp2814
I0
aI0
aI0
aI0
aI0
aI0
aa(lp2815
I0
aI0
aI0
aI0
aI0
aI1
aI0
aa(lp2816
I0
aI0
aI0
aI0
aI0
aI1
aI0
aI1
aa(lp2817
I0
aI0
aI0
aI0
aI1
aI1
aI1
aI0
aI0
aasba(iGenerate
UnitDiskGraph
p2818
(dp2819
g3
g13
sg14
(lp2820
(F88.31546303362398
F63.44844366380684
tp2821
a(F68.06939897560966
F7.231027723848726
tp2822
a(F47.44555349743622
F33.418210334902675
tp2823
a(F33.56429409318018
F54.37501759832123
tp2824
a(F75.61242687844883
F77.94653705897986
tp2825
a(F32.03525466635251
F80.69607533458941
tp2826
a(F8.381599671681828
F33.0495314559724
tp2827
a(F84.77411872605984
F70.93519151691636
tp2828
a(F87.64539084223209
F80.69066604400635
tp2829
a(F28.83905092298713
F46.21194123150397
tp2830
asg26
I10
sg27
(lp2831
(lp2832
a(lp2833
I0
aa(lp2834
I0
aI1
aa(lp2835
I0
aI0
aI0
aa(lp2836
I1
aI0
aI0
aI0
aa(lp2837
I0
aI0
aI0
aI1
aI1
aa(lp2838
I0
aI0
aI0
aI0
aI0
aI0
aa(lp2839
I0
aI0
aI0
aI0
aI1
aI0
aI0
aa(lp2840
I1
aI0
aI0
aI0
aI1
aI0
aI0
aI1
aa(lp2841
I0
aI0
aI1
aI1
aI0
aI1
aI1
aI0
aI0
aasg39
Nsg40
F43.663828264728934
sg41
(lp2842
(lp2843
a(lp2844
I0
aa(lp2845
I0
aI1
aa(lp2846
I0
aI0
aI1
aa(lp2847
I1
aI0
aI0
aI0
aa(lp2848
I0
aI0
aI0
aI1
aI1
aa(lp2849
I0
aI0
aI1
aI1
aI0
aI0
aa(lp2850
I1
aI0
aI0
aI0
aI1
aI0
aI0
aa(lp2851
I1
aI0
aI0
aI0
aI1
aI0
aI0
aI1
aa(lp2852
I0
aI0
aI1
aI1
aI0
aI1
aI1
aI0
aI0
aasba(iGenerate
UnitDiskGraph
p2853
(dp2854
g3
g13
sg14
(lp2855
(F44.77062190786582
F80.53287207722524
tp2856
a(F0.15370929680085244
F15.76937170729218
tp2857
a(F18.7134817665877
F18.63486339573034
tp2858
a(F24.33883976447039
F46.81328610139548
tp2859
a(F91.37742768081128
F65.9192869138601
tp2860
a(F0.5133591407797011
F52.66650905866973
tp2861
a(F3.241391902344115
F32.861690713692745
tp2862
a(F93.84018222402928
F68.06305853443581
tp2863
a(F46.565153361561386
F66.80429759377901
tp2864
a(F29.16700660084436
F91.93953973296361
tp2865
asg26
I10
sg27
(lp2866
(lp2867
a(lp2868
I0
aa(lp2869
I0
aI0
aa(lp2870
I1
aI1
aI1
aa(lp2871
I0
aI0
aI0
aI0
aa(lp2872
I0
aI1
aI0
aI0
aI0
aa(lp2873
I0
aI1
aI1
aI1
aI0
aI1
aa(lp2874
I0
aI0
aI0
aI0
aI1
aI0
aI0
aa(lp2875
I1
aI0
aI0
aI0
aI1
aI0
aI0
aI0
aa(lp2876
I1
aI0
aI0
aI0
aI0
aI0
aI0
aI0
aI1
aasg39
Nsg40
F44.82101263433563
sg41
(lp2877
(lp2878
a(lp2879
I0
aa(lp2880
I0
aI1
aa(lp2881
I1
aI1
aI1
aa(lp2882
I0
aI0
aI0
aI0
aa(lp2883
I0
aI1
aI1
aI1
aI0
aa(lp2884
I0
aI1
aI1
aI1
aI0
aI1
aa(lp2885
I0
aI0
aI0
aI0
aI1
aI0
aI0
aa(lp2886
I1
aI0
aI0
aI1
aI1
aI0
aI0
aI0
aa(lp2887
I1
aI0
aI0
aI0
aI0
aI0
aI0
aI0
aI1
aasba(iGenerate
UnitDiskGraph
p2888
(dp2889
g3
g13
sg14
(lp2890
(F37.87987356113508
F32.06709742416083
tp2891
a(F33.923343439115975
F34.15636486651441
tp2892
a(F3.898115872687302
F8.616427358104028
tp2893
a(F10.393165490556399
F75.16656430672502
tp2894
a(F39.38426099608979
F48.97732930032846
tp2895
a(F22.722941506408244
F69.73736654798614
tp2896
a(F98.59863503406142
F23.303422054169364
tp2897
a(F33.77328223152208
F48.268361230740375
tp2898
a(F72.30210424665565
F80.98648726265785
tp2899
a(F18.653085938013724
F34.66513066347026
tp2900
asg26
I10
sg27
(lp2901
(lp2902
a(lp2903
I1
aa(lp2904
I1
aI0
aa(lp2905
I0
aI1
aI0
aa(lp2906
I1
aI1
aI1
aI1
aa(lp2907
I0
aI1
aI0
aI0
aI1
aa(lp2908
I1
aI0
aI0
aI0
aI0
aI0
aa(lp2909
I1
aI0
aI1
aI1
aI0
aI0
aI0
aa(lp2910
I1
aI1
aI0
aI0
aI1
aI0
aI0
aI0
aa(lp2911
I1
aI1
aI1
aI1
aI0
aI0
aI0
aI0
aI0
aasg39
Nsg40
F61.3479421072681
sg41
(lp2912
(lp2913
a(lp2914
I1
aa(lp2915
I1
aI1
aa(lp2916
I1
aI1
aI0
aa(lp2917
I1
aI1
aI1
aI1
aa(lp2918
I1
aI1
aI0
aI1
aI1
aa(lp2919
I1
aI0
aI0
aI0
aI0
aI0
aa(lp2920
I1
aI1
aI1
aI1
aI1
aI1
aI0
aa(lp2921
I1
aI1
aI0
aI0
aI1
aI1
aI0
aI1
aa(lp2922
I1
aI1
aI1
aI1
aI1
aI1
aI0
aI1
aI0
aasba(iGenerate
UnitDiskGraph
p2923
(dp2924
g3
g13
sg14
(lp2925
(F48.77880349573891
F49.58890567904424
tp2926
a(F91.98815522507992
F62.09322001822286
tp2927
a(F86.55492539029225
F7.946169294560102
tp2928
a(F58.683196935097556
F73.24330945768314
tp2929
a(F90.15817025257479
F4.475593149640755
tp2930
a(F15.550977676976984
F64.9920195490448
tp2931
a(F29.094060975746572
F59.512789253101936
tp2932
a(F29.294025270866165
F1.2568760495524023
tp2933
a(F36.614203973569914
F13.726362573470198
tp2934
a(F74.82773845789576
F63.62881068725267
tp2935
asg26
I10
sg27
(lp2936
(lp2937
a(lp2938
I1
aa(lp2939
I0
aI0
aa(lp2940
I1
aI0
aI0
aa(lp2941
I0
aI0
aI1
aI0
aa(lp2942
I1
aI0
aI0
aI1
aI0
aa(lp2943
I1
aI0
aI0
aI0
aI0
aI1
aa(lp2944
I0
aI0
aI0
aI0
aI0
aI0
aI0
aa(lp2945
I1
aI0
aI1
aI0
aI0
aI0
aI1
aI1
aa(lp2946
I1
aI0
aI0
aI0
aI0
aI0
aI1
aI0
aI0
aasg39
Nsg40
F50.274111528342566
sg41
(lp2947
(lp2948
a(lp2949
I1
aa(lp2950
I0
aI0
aa(lp2951
I1
aI1
aI0
aa(lp2952
I0
aI0
aI1
aI0
aa(lp2953
I1
aI0
aI0
aI1
aI0
aa(lp2954
I1
aI0
aI0
aI1
aI0
aI1
aa(lp2955
I0
aI0
aI0
aI0
aI0
aI0
aI0
aa(lp2956
I1
aI0
aI1
aI0
aI0
aI0
aI1
aI1
aa(lp2957
I1
aI1
aI0
aI1
aI0
aI0
aI1
aI0
aI0
aasba(iGenerate
UnitDiskGraph
p2958
(dp2959
g3
g13
sg14
(lp2960
(F25.630784856196154
F16.482939991738977
tp2961
a(F88.56014225338934
F82.1893418162827
tp2962
a(F19.427924720787427
F5.434909888390438
tp2963
a(F22.30685469862925
F34.93810298975839
tp2964
a(F37.1841344277709
F7.6691541044971885
tp2965
a(F7.982413940181388
F26.526767255951633
tp2966
a(F59.983506120876385
F5.344848761504084
tp2967
a(F21.622373546082095
F10.612629530091166
tp2968
a(F99.81799526063563
F2.5342402192673252
tp2969
a(F7.158903369179415
F80.01873766111312
tp2970
asg26
I10
sg27
(lp2971
(lp2972
a(lp2973
I0
aa(lp2974
I1
aI0
aa(lp2975
I0
aI0
aI1
aa(lp2976
I1
aI0
aI1
aI1
aa(lp2977
I1
aI0
aI0
aI1
aI0
aa(lp2978
I1
aI0
aI1
aI1
aI0
aI1
aa(lp2979
I1
aI0
aI0
aI1
aI0
aI1
aI0
aa(lp2980
I1
aI1
aI0
aI0
aI1
aI0
aI0
aI0
aa(lp2981
I0
aI0
aI1
aI0
aI1
aI1
aI0
aI1
aI0
aasg39
Nsg40
F80.44671817273596
sg41
(lp2982
(lp2983
a(lp2984
I0
aa(lp2985
I1
aI0
aa(lp2986
I1
aI0
aI1
aa(lp2987
I1
aI0
aI1
aI1
aa(lp2988
I1
aI0
aI1
aI1
aI1
aa(lp2989
I1
aI0
aI1
aI1
aI1
aI1
aa(lp2990
I1
aI0
aI1
aI1
aI1
aI1
aI1
aa(lp2991
I1
aI1
aI1
aI0
aI1
aI0
aI1
aI1
aa(lp2992
I1
aI0
aI1
aI1
aI1
aI1
aI0
aI1
aI0
aasba(iGenerate
UnitDiskGraph
p2993
(dp2994
g3
g13
sg14
(lp2995
(F9.128471380555203
F9.547484899633362
tp2996
a(F82.85265469463022
F85.51635014851891
tp2997
a(F42.02265611670543
F49.11102458580828
tp2998
a(F97.23412738479917
F14.075317345965676
tp2999
a(F22.678725794562926
F58.66103492650894
tp3000
a(F41.17193858149305
F29.35382253928195
tp3001
a(F5.7107026359704545
F21.387839770728966
tp3002
a(F34.6304699482889
F24.251466797292707
tp3003
a(F34.56324049619748
F79.31316504738541
tp3004
a(F6.947844289374427
F13.456627336782812
tp3005
asg26
I10
sg27
(lp3006
(lp3007
a(lp3008
I0
aa(lp3009
I0
aI1
aa(lp3010
I0
aI0
aI0
aa(lp3011
I1
aI0
aI1
aI0
aa(lp3012
I0
aI0
aI1
aI1
aI1
aa(lp3013
I1
aI0
aI0
aI0
aI0
aI1
aa(lp3014
I1
aI0
aI0
aI0
aI1
aI1
aI1
aa(lp3015
I0
aI1
aI0
aI0
aI0
aI1
aI0
aI0
aa(lp3016
I0
aI0
aI1
aI0
aI1
aI0
aI1
aI1
aI0
aasg39
Nsg40
F58.10681314923176
sg41
(lp3017
(lp3018
a(lp3019
I0
aa(lp3020
I1
aI1
aa(lp3021
I0
aI0
aI0
aa(lp3022
I1
aI0
aI1
aI0
aa(lp3023
I1
aI0
aI1
aI1
aI1
aa(lp3024
I1
aI0
aI1
aI0
aI1
aI1
aa(lp3025
I1
aI0
aI1
aI0
aI1
aI1
aI1
aa(lp3026
I0
aI1
aI1
aI0
aI1
aI1
aI0
aI1
aa(lp3027
I1
aI0
aI1
aI0
aI1
aI1
aI1
aI1
aI0
aasba(iGenerate
UnitDiskGraph
p3028
(dp3029
g3
g13
sg14
(lp3030
(F27.72410864520363
F70.16299424589569
tp3031
a(F57.59090444472047
F96.65447581852521
tp3032
a(F35.88752026229515
F45.76697754872323
tp3033
a(F5.143875165308254
F53.00619517691406
tp3034
a(F10.969370745927066
F61.44948649994109
tp3035
a(F11.908526164952193
F4.911674086095297
tp3036
a(F55.53025617151383
F5.461849229044358
tp3037
a(F90.36020259926265
F23.509098330364374
tp3038
a(F45.891285516416026
F96.77726832475528
tp3039
a(F70.28682708937218
F21.50606887520653
tp3040
asg26
I10
sg27
(lp3041
(lp3042
a(lp3043
I1
aa(lp3044
I1
aI0
aa(lp3045
I1
aI0
aI0
aa(lp3046
I0
aI0
aI1
aI1
aa(lp3047
I0
aI0
aI0
aI0
aI0
aa(lp3048
I0
aI0
aI0
aI0
aI0
aI1
aa(lp3049
I0
aI0
aI0
aI0
aI0
aI0
aI0
aa(lp3050
I1
aI1
aI0
aI0
aI0
aI0
aI0
aI0
aa(lp3051
I0
aI0
aI1
aI0
aI0
aI0
aI1
aI1
aI0
aasg39
Nsg40
F43.62519938582835
sg41
(lp3052
(lp3053
a(lp3054
I1
aa(lp3055
I1
aI0
aa(lp3056
I1
aI0
aI1
aa(lp3057
I1
aI0
aI1
aI1
aa(lp3058
I0
aI0
aI0
aI0
aI0
aa(lp3059
I0
aI0
aI0
aI0
aI0
aI1
aa(lp3060
I0
aI0
aI0
aI0
aI0
aI0
aI1
aa(lp3061
I1
aI1
aI0
aI0
aI0
aI0
aI0
aI0
aa(lp3062
I0
aI0
aI1
aI0
aI0
aI0
aI1
aI1
aI0
aasba(iGenerate
UnitDiskGraph
p3063
(dp3064
g3
g13
sg14
(lp3065
(F65.21614376252131
F47.18683273048475
tp3066
a(F27.177307594823354
F53.42196396822552
tp3067
a(F23.828896376191434
F82.29749962707378
tp3068
a(F73.00545962822471
F63.70362816246299
tp3069
a(F49.62314744461246
F99.97981626576814
tp3070
a(F3.3301921794059552
F41.8856739156294
tp3071
a(F21.65812125533271
F45.540962543118766
tp3072
a(F37.34875557725722
F25.01241536671024
tp3073
a(F69.0854953565205
F52.43280444975626
tp3074
a(F43.07255216245998
F69.54964193382274
tp3075
asg26
I10
sg27
(lp3076
(lp3077
a(lp3078
I0
aa(lp3079
I0
aI1
aa(lp3080
I0
aI0
aI0
aa(lp3081
I0
aI0
aI0
aI0
aa(lp3082
I0
aI1
aI0
aI0
aI0
aa(lp3083
I0
aI1
aI0
aI0
aI0
aI1
aa(lp3084
I0
aI1
aI0
aI0
aI0
aI0
aI1
aa(lp3085
I1
aI0
aI0
aI1
aI0
aI0
aI0
aI0
aa(lp3086
I0
aI1
aI0
aI1
aI1
aI0
aI0
aI0
aI0
aasg39
Nsg40
F31.127251861080616
sg41
(lp3087
(lp3088
a(lp3089
I0
aa(lp3090
I0
aI1
aa(lp3091
I1
aI0
aI0
aa(lp3092
I0
aI0
aI0
aI0
aa(lp3093
I0
aI1
aI0
aI0
aI0
aa(lp3094
I0
aI1
aI0
aI0
aI0
aI1
aa(lp3095
I0
aI1
aI0
aI0
aI0
aI0
aI1
aa(lp3096
I1
aI0
aI0
aI1
aI0
aI0
aI0
aI0
aa(lp3097
I0
aI1
aI1
aI1
aI1
aI0
aI0
aI0
aI0
aasba(iGenerate
UnitDiskGraph
p3098
(dp3099
g3
g13
sg14
(lp3100
(F49.810211221826414
F44.98035915781886
tp3101
a(F1.0032882112874342
F68.37738519419194
tp3102
a(F40.73178320302148
F29.43107914423434
tp3103
a(F15.086911925479852
F61.758583440197825
tp3104
a(F57.47283230635312
F91.9329889856346
tp3105
a(F54.95840400643544
F30.28271471489695
tp3106
a(F10.594882702167885
F70.19916421379955
tp3107
a(F90.05416436075079
F17.872130641772856
tp3108
a(F7.397998324530974
F18.010244824160647
tp3109
a(F29.437065136829567
F39.75319571852394
tp3110
asg26
I10
sg27
(lp3111
(lp3112
a(lp3113
I0
aa(lp3114
I1
aI0
aa(lp3115
I1
aI1
aI1
aa(lp3116
I1
aI0
aI0
aI0
aa(lp3117
I0
aI0
aI1
aI0
aI0
aa(lp3118
I0
aI0
aI0
aI1
aI0
aI0
aa(lp3119
I0
aI0
aI0
aI0
aI0
aI1
aI0
aa(lp3120
I0
aI0
aI1
aI0
aI0
aI0
aI0
aI0
aa(lp3121
I1
aI0
aI1
aI1
aI0
aI1
aI0
aI0
aI1
aasg39
Nsg40
F47.573787001172455
sg41
(lp3122
(lp3123
a(lp3124
I0
aa(lp3125
I1
aI0
aa(lp3126
I1
aI1
aI1
aa(lp3127
I1
aI0
aI0
aI0
aa(lp3128
I1
aI0
aI1
aI0
aI0
aa(lp3129
I1
aI1
aI0
aI1
aI0
aI0
aa(lp3130
I0
aI0
aI0
aI0
aI0
aI1
aI0
aa(lp3131
I0
aI0
aI1
aI1
aI0
aI0
aI0
aI0
aa(lp3132
I1
aI1
aI1
aI1
aI0
aI1
aI1
aI0
aI1
aasba(iGenerate
UnitDiskGraph
p3133
(dp3134
g3
g13
sg14
(lp3135
(F33.33447309374308
F67.4490679328156
tp3136
a(F81.02179790806161
F21.35989569938991
tp3137
a(F53.618750502074484
F10.358601977058935
tp3138
a(F56.48902191702005
F21.811020730434826
tp3139
a(F50.393856960009586
F53.24144439034543
tp3140
a(F14.97542889242316
F52.98995249620595
tp3141
a(F98.84346916824252
F83.6283744641058
tp3142
a(F73.21221255526103
F55.266886061128986
tp3143
a(F46.39720730716685
F57.340058095723045
tp3144
a(F81.38630488770028
F66.13468560406093
tp3145
asg26
I10
sg27
(lp3146
(lp3147
a(lp3148
I0
aa(lp3149
I0
aI0
aa(lp3150
I0
aI1
aI1
aa(lp3151
I1
aI0
aI0
aI1
aa(lp3152
I1
aI0
aI0
aI0
aI0
aa(lp3153
I0
aI0
aI0
aI0
aI0
aI0
aa(lp3154
I0
aI0
aI0
aI0
aI1
aI0
aI0
aa(lp3155
I1
aI0
aI0
aI0
aI1
aI0
aI0
aI1
aa(lp3156
I0
aI0
aI0
aI0
aI0
aI0
aI1
aI1
aI0
aasg39
Nsg40
F32.01597362715425
sg41
(lp3157
(lp3158
a(lp3159
I0
aa(lp3160
I0
aI1
aa(lp3161
I0
aI1
aI1
aa(lp3162
I1
aI0
aI0
aI1
aa(lp3163
I1
aI0
aI0
aI0
aI0
aa(lp3164
I0
aI0
aI0
aI0
aI0
aI0
aa(lp3165
I0
aI0
aI0
aI0
aI1
aI0
aI0
aa(lp3166
I1
aI0
aI0
aI0
aI1
aI1
aI0
aI1
aa(lp3167
I0
aI0
aI0
aI0
aI0
aI0
aI1
aI1
aI0
aasba(iGenerate
UnitDiskGraph
p3168
(dp3169
g3
g13
sg14
(lp3170
(F8.740810395770716
F37.35743965839357
tp3171
a(F27.695264274011677
F74.41516965833866
tp3172
a(F20.63839754924076
F45.45124608918631
tp3173
a(F11.164157158929722
F48.0196730378091
tp3174
a(F54.30775399727822
F34.74275771959575
tp3175
a(F49.554945787442136
F46.84607551094251
tp3176
a(F4.468384471886955
F21.340483775814246
tp3177
a(F31.17617542191602
F45.360432356557226
tp3178
a(F19.004780186812187
F3.698141282766232
tp3179
a(F42.67094070761305
F23.34447405270562
tp3180
asg26
I10
sg27
(lp3181
(lp3182
a(lp3183
I0
aa(lp3184
I0
aI0
aa(lp3185
I1
aI0
aI1
aa(lp3186
I0
aI0
aI0
aI0
aa(lp3187
I0
aI0
aI0
aI0
aI1
aa(lp3188
I0
aI0
aI1
aI0
aI0
aI0
aa(lp3189
I1
aI1
aI1
aI1
aI1
aI1
aI0
aa(lp3190
I0
aI0
aI0
aI0
aI0
aI0
aI1
aI0
aa(lp3191
I0
aI0
aI0
aI0
aI1
aI1
aI0
aI0
aI0
aasg39
Nsg40
F29.262510181034266
sg41
(lp3192
(lp3193
a(lp3194
I0
aa(lp3195
I1
aI0
aa(lp3196
I1
aI0
aI1
aa(lp3197
I0
aI0
aI0
aI0
aa(lp3198
I0
aI0
aI1
aI0
aI1
aa(lp3199
I1
aI0
aI1
aI1
aI0
aI0
aa(lp3200
I1
aI1
aI1
aI1
aI1
aI1
aI0
aa(lp3201
I0
aI0
aI0
aI0
aI0
aI0
aI1
aI0
aa(lp3202
I0
aI0
aI0
aI0
aI1
aI1
aI0
aI1
aI0
aasba(iGenerate
UnitDiskGraph
p3203
(dp3204
g3
g13
sg14
(lp3205
(F52.19138743865665
F71.2867389574651
tp3206
a(F81.02783437813066
F81.79540817380284
tp3207
a(F58.98339729426974
F89.00421190477796
tp3208
a(F44.38202930660866
F52.93815044838447
tp3209
a(F0.42863604642697783
F5.524217336883652
tp3210
a(F19.26545185378581
F18.049785684954145
tp3211
a(F14.6857091627004
F62.28479768127412
tp3212
a(F51.467648456138036
F15.226166502517714
tp3213
a(F14.660854460098394
F26.31322548195687
tp3214
a(F52.22394523696499
F79.46936110091744
tp3215
asg26
I10
sg27
(lp3216
(lp3217
a(lp3218
I1
aa(lp3219
I1
aI1
aa(lp3220
I1
aI0
aI0
aa(lp3221
I0
aI0
aI0
aI0
aa(lp3222
I0
aI0
aI0
aI0
aI0
aa(lp3223
I0
aI0
aI0
aI1
aI0
aI0
aa(lp3224
I0
aI0
aI0
aI0
aI0
aI1
aI0
aa(lp3225
I0
aI0
aI0
aI0
aI1
aI1
aI1
aI0
aa(lp3226
I1
aI0
aI1
aI0
aI0
aI0
aI0
aI0
aI0
aasg39
Nsg40
F35.971580786044626
sg41
(lp3227
(lp3228
a(lp3229
I1
aa(lp3230
I1
aI1
aa(lp3231
I1
aI0
aI0
aa(lp3232
I0
aI0
aI0
aI0
aa(lp3233
I0
aI0
aI0
aI0
aI1
aa(lp3234
I0
aI0
aI0
aI1
aI0
aI0
aa(lp3235
I0
aI0
aI0
aI0
aI0
aI1
aI0
aa(lp3236
I0
aI0
aI0
aI0
aI1
aI1
aI1
aI0
aa(lp3237
I1
aI1
aI1
aI1
aI0
aI0
aI0
aI0
aI0
aasba(iGenerate
UnitDiskGraph
p3238
(dp3239
g3
g13
sg14
(lp3240
(F24.424178749927037
F80.66648002632998
tp3241
a(F23.6002511207276
F84.76979292679884
tp3242
a(F18.90459595346711
F9.092707668233757
tp3243
a(F26.67099799608883
F39.62354117501003
tp3244
a(F4.184817843224553
F89.91669399061438
tp3245
a(F88.37653659494597
F63.50537248460729
tp3246
a(F78.82631862383788
F25.924306940544096
tp3247
a(F4.226433965944365
F26.616706304028348
tp3248
a(F33.23380751275564
F76.35573591834137
tp3249
a(F77.86658907950458
F20.92686542536373
tp3250
asg26
I10
sg27
(lp3251
(lp3252
a(lp3253
I1
aa(lp3254
I0
aI0
aa(lp3255
I0
aI1
aI1
aa(lp3256
I1
aI1
aI0
aI0
aa(lp3257
I0
aI0
aI0
aI0
aI0
aa(lp3258
I0
aI0
aI0
aI1
aI0
aI1
aa(lp3259
I0
aI0
aI0
aI1
aI0
aI0
aI0
aa(lp3260
I1
aI1
aI0
aI1
aI0
aI0
aI0
aI0
aa(lp3261
I0
aI0
aI0
aI0
aI0
aI0
aI1
aI0
aI0
aasg39
Nsg40
F53.92445167448686
sg41
(lp3262
(lp3263
a(lp3264
I1
aa(lp3265
I0
aI0
aa(lp3266
I1
aI1
aI1
aa(lp3267
I1
aI1
aI0
aI0
aa(lp3268
I0
aI0
aI0
aI0
aI0
aa(lp3269
I0
aI0
aI0
aI1
aI0
aI1
aa(lp3270
I0
aI0
aI1
aI1
aI0
aI0
aI0
aa(lp3271
I1
aI1
aI0
aI1
aI1
aI0
aI0
aI0
aa(lp3272
I0
aI0
aI0
aI0
aI0
aI1
aI1
aI0
aI0
aasba(iGenerate
UnitDiskGraph
p3273
(dp3274
g3
g13
sg14
(lp3275
(F95.78779028732394
F7.050026470462667
tp3276
a(F96.52513564045003
F49.337407346461724
tp3277
a(F2.469166591387595
F26.82658932164621
tp3278
a(F59.90679899932208
F94.68817749986295
tp3279
a(F9.686244444083004
F17.30814984186849
tp3280
a(F52.737388436326235
F40.131423928207475
tp3281
a(F10.403809276472664
F28.23871381019536
tp3282
a(F69.44677215917876
F93.72763835347979
tp3283
a(F6.12373995359693
F28.450820758039118
tp3284
a(F50.81200002554888
F27.17713011886893
tp3285
asg26
I10
sg27
(lp3286
(lp3287
a(lp3288
I1
aa(lp3289
I0
aI0
aa(lp3290
I0
aI0
aI0
aa(lp3291
I0
aI0
aI0
aI0
aa(lp3292
I0
aI1
aI0
aI0
aI1
aa(lp3293
I0
aI0
aI1
aI0
aI1
aI1
aa(lp3294
I0
aI1
aI0
aI1
aI0
aI0
aI0
aa(lp3295
I0
aI0
aI0
aI0
aI0
aI0
aI0
aI0
aa(lp3296
I1
aI1
aI1
aI0
aI1
aI1
aI0
aI0
aI1
aasg39
Nsg40
F51.99740741306506
sg41
(lp3297
(lp3298
a(lp3299
I1
aa(lp3300
I0
aI0
aa(lp3301
I0
aI0
aI0
aa(lp3302
I0
aI0
aI1
aI0
aa(lp3303
I0
aI1
aI0
aI0
aI1
aa(lp3304
I0
aI0
aI1
aI0
aI1
aI1
aa(lp3305
I0
aI1
aI0
aI1
aI0
aI0
aI0
aa(lp3306
I0
aI0
aI1
aI0
aI1
aI1
aI1
aI0
aa(lp3307
I1
aI1
aI1
aI0
aI1
aI1
aI1
aI0
aI1
aasba(iGenerate
UnitDiskGraph
p3308
(dp3309
g3
g13
sg14
(lp3310
(F44.839811894912295
F62.457559552663575
tp3311
a(F6.062069264947711
F91.36683079129394
tp3312
a(F36.835347938509464
F37.70846588016349
tp3313
a(F49.252359946608216
F2.1763409533059996
tp3314
a(F27.15185662151558
F57.14423615348734
tp3315
a(F48.039345705490966
F69.9027450701971
tp3316
a(F48.17126709066739
F62.6002310121045
tp3317
a(F50.09867206201793
F24.57961667030797
tp3318
a(F63.71172840396009
F94.83097432359196
tp3319
a(F30.12630605850405
F32.84614239505338
tp3320
asg26
I10
sg27
(lp3321
(lp3322
a(lp3323
I0
aa(lp3324
I0
aI0
aa(lp3325
I0
aI0
aI1
aa(lp3326
I1
aI1
aI0
aI0
aa(lp3327
I0
aI0
aI1
aI0
aI1
aa(lp3328
I0
aI0
aI0
aI0
aI0
aI1
aa(lp3329
I1
aI0
aI1
aI1
aI1
aI0
aI1
aa(lp3330
I1
aI0
aI0
aI0
aI0
aI0
aI1
aI0
aa(lp3331
I1
aI0
aI1
aI1
aI0
aI0
aI1
aI0
aI0
aasg39
Nsg40
F40.199068577379734
sg41
(lp3332
(lp3333
a(lp3334
I0
aa(lp3335
I1
aI0
aa(lp3336
I0
aI0
aI1
aa(lp3337
I1
aI1
aI1
aI0
aa(lp3338
I1
aI0
aI1
aI0
aI1
aa(lp3339
I1
aI0
aI1
aI0
aI1
aI1
aa(lp3340
I1
aI0
aI1
aI1
aI1
aI0
aI1
aa(lp3341
I1
aI0
aI0
aI0
aI0
aI1
aI1
aI0
aa(lp3342
I1
aI0
aI1
aI1
aI1
aI0
aI1
aI1
aI0
aasba(iGenerate
UnitDiskGraph
p3343
(dp3344
g3
g13
sg14
(lp3345
(F3.9910298864554106
F76.1502935663346
tp3346
a(F73.34621833108501
F55.265792416364654
tp3347
a(F86.84571360760516
F77.50042422408643
tp3348
a(F35.207738470500374
F61.150534700959234
tp3349
a(F23.256783079151823
F28.07809947886276
tp3350
a(F35.3063462370049
F14.861890550582224
tp3351
a(F70.08645593430843
F40.59640977083856
tp3352
a(F58.37809013698907
F74.94801599695343
tp3353
a(F46.43514130325478
F77.14529248484843
tp3354
a(F46.164784874374675
F22.308851549147967
tp3355
asg26
I10
sg27
(lp3356
(lp3357
a(lp3358
I0
aa(lp3359
I0
aI0
aa(lp3360
I1
aI0
aI0
aa(lp3361
I0
aI0
aI0
aI0
aa(lp3362
I0
aI0
aI0
aI0
aI1
aa(lp3363
I0
aI1
aI0
aI0
aI0
aI0
aa(lp3364
I0
aI1
aI1
aI1
aI0
aI0
aI0
aa(lp3365
I0
aI0
aI0
aI1
aI0
aI0
aI0
aI1
aa(lp3366
I0
aI0
aI0
aI0
aI1
aI0
aI1
aI0
aI0
aasg39
Nsg40
F34.633447140597966
sg41
(lp3367
(lp3368
a(lp3369
I0
aa(lp3370
I0
aI1
aa(lp3371
I1
aI0
aI0
aa(lp3372
I0
aI0
aI0
aI0
aa(lp3373
I0
aI0
aI0
aI0
aI1
aa(lp3374
I0
aI1
aI0
aI0
aI0
aI0
aa(lp3375
I0
aI1
aI1
aI1
aI0
aI0
aI0
aa(lp3376
I0
aI0
aI0
aI1
aI0
aI0
aI0
aI1
aa(lp3377
I0
aI0
aI0
aI0
aI1
aI1
aI1
aI0
aI0
aasba(iGenerate
UnitDiskGraph
p3378
(dp3379
g3
g13
sg14
(lp3380
(F49.70631713596126
F92.47777111550846
tp3381
a(F17.795438699353983
F64.60930198241837
tp3382
a(F88.57919503866462
F89.99082604852309
tp3383
a(F70.81622069560969
F79.61093792369928
tp3384
a(F97.16532570138102
F83.81978805890618
tp3385
a(F65.03746964477841
F57.348722106042615
tp3386
a(F94.64571886398734
F40.92130509770248
tp3387
a(F89.79193846873241
F64.83339357722996
tp3388
a(F37.33722800189108
F57.19161373530063
tp3389
a(F79.0219716437846
F32.24693829030312
tp3390
asg26
I10
sg27
(lp3391
(lp3392
a(lp3393
I0
aa(lp3394
I0
aI0
aa(lp3395
I1
aI0
aI1
aa(lp3396
I0
aI0
aI0
aI1
aa(lp3397
I0
aI0
aI0
aI1
aI0
aa(lp3398
I0
aI0
aI0
aI0
aI0
aI0
aa(lp3399
I0
aI0
aI1
aI1
aI1
aI0
aI1
aa(lp3400
I0
aI1
aI0
aI0
aI0
aI1
aI0
aI0
aa(lp3401
I0
aI0
aI0
aI0
aI0
aI0
aI1
aI0
aI0
aasg39
Nsg40
F27.700687177658732
sg41
(lp3402
(lp3403
a(lp3404
I0
aa(lp3405
I0
aI0
aa(lp3406
I1
aI0
aI1
aa(lp3407
I0
aI0
aI1
aI1
aa(lp3408
I0
aI0
aI0
aI1
aI0
aa(lp3409
I0
aI0
aI0
aI0
aI0
aI0
aa(lp3410
I0
aI0
aI1
aI1
aI1
aI1
aI1
aa(lp3411
I0
aI1
aI0
aI0
aI0
aI1
aI0
aI0
aa(lp3412
I0
aI0
aI0
aI0
aI0
aI0
aI1
aI0
aI0
aasba(iGenerate
UnitDiskGraph
p3413
(dp3414
g3
g13
sg14
(lp3415
(F46.8381895718321
F21.211026526383392
tp3416
a(F71.6670689683438
F81.81865167972565
tp3417
a(F4.753090418813044
F66.98698984295646
tp3418
a(F13.891086436201604
F78.66686590665152
tp3419
a(F60.153012261899065
F7.87484165054112
tp3420
a(F59.541893338664885
F24.24769508837974
tp3421
a(F68.12639078691967
F56.56914257165385
tp3422
a(F9.74971200603475
F24.144971386980984
tp3423
a(F77.90529889287092
F50.088702249608055
tp3424
a(F99.11343461643871
F28.68937491259197
tp3425
asg26
I10
sg27
(lp3426
(lp3427
a(lp3428
I0
aa(lp3429
I0
aI0
aa(lp3430
I0
aI0
aI1
aa(lp3431
I1
aI0
aI0
aI0
aa(lp3432
I1
aI0
aI0
aI0
aI0
aa(lp3433
I0
aI1
aI0
aI0
aI0
aI1
aa(lp3434
I1
aI0
aI1
aI0
aI0
aI0
aI0
aa(lp3435
I1
aI1
aI0
aI0
aI0
aI1
aI0
aI0
aa(lp3436
I0
aI0
aI0
aI0
aI0
aI1
aI0
aI0
aI1
aasg39
Nsg40
F43.13240977116898
sg41
(lp3437
(lp3438
a(lp3439
I0
aa(lp3440
I0
aI0
aa(lp3441
I0
aI0
aI1
aa(lp3442
I1
aI0
aI0
aI0
aa(lp3443
I1
aI0
aI0
aI0
aI1
aa(lp3444
I1
aI1
aI0
aI0
aI0
aI1
aa(lp3445
I1
aI0
aI1
aI0
aI0
aI0
aI0
aa(lp3446
I1
aI1
aI0
aI0
aI0
aI1
aI1
aI0
aa(lp3447
I0
aI0
aI0
aI0
aI0
aI1
aI1
aI0
aI1
aasba(iGenerate
UnitDiskGraph
p3448
(dp3449
g3
g13
sg14
(lp3450
(F49.829211860922086
F17.92572992770739
tp3451
a(F33.840246827385165
F80.80599762515955
tp3452
a(F31.07842149472274
F41.76545029607961
tp3453
a(F87.73687210466457
F74.96178432220796
tp3454
a(F87.8200424966802
F52.30873865692006
tp3455
a(F20.08332216147789
F28.09295660718103
tp3456
a(F38.70319336663772
F96.88986595661824
tp3457
a(F37.95566366951645
F96.66543513525731
tp3458
a(F32.48339499799051
F18.84318289316955
tp3459
a(F53.392935488781745
F37.94572429300297
tp3460
asg26
I10
sg27
(lp3461
(lp3462
a(lp3463
I0
aa(lp3464
I1
aI1
aa(lp3465
I0
aI0
aI0
aa(lp3466
I0
aI0
aI0
aI1
aa(lp3467
I0
aI0
aI1
aI0
aI0
aa(lp3468
I0
aI1
aI0
aI0
aI0
aI0
aa(lp3469
I0
aI0
aI0
aI0
aI0
aI0
aI1
aa(lp3470
I1
aI0
aI0
aI0
aI0
aI1
aI0
aI0
aa(lp3471
I1
aI0
aI0
aI0
aI1
aI1
aI0
aI0
aI1
aasg39
Nsg40
F39.13811460612617
sg41
(lp3472
(lp3473
a(lp3474
I0
aa(lp3475
I1
aI1
aa(lp3476
I0
aI0
aI0
aa(lp3477
I0
aI0
aI0
aI1
aa(lp3478
I1
aI0
aI1
aI0
aI0
aa(lp3479
I0
aI1
aI0
aI0
aI0
aI0
aa(lp3480
I0
aI1
aI0
aI0
aI0
aI0
aI1
aa(lp3481
I1
aI0
aI1
aI0
aI0
aI1
aI0
aI0
aa(lp3482
I1
aI0
aI1
aI0
aI1
aI1
aI0
aI0
aI1
aasba(iGenerate
UnitDiskGraph
p3483
(dp3484
g3
g13
sg14
(lp3485
(F32.487227841171
F70.71117607312573
tp3486
a(F25.364677329281093
F38.908810289128425
tp3487
a(F27.701626371902577
F58.27927773962337
tp3488
a(F85.88782496976852
F15.515179376744126
tp3489
a(F94.56095460937418
F91.72068641513616
tp3490
a(F43.21141606868926
F28.280209550180622
tp3491
a(F60.5460325413512
F41.72696669553374
tp3492
a(F58.80715777638037
F12.404135028395979
tp3493
a(F38.390179047641425
F78.18733402861395
tp3494
a(F66.90386137217415
F88.23303213030968
tp3495
asg26
I10
sg27
(lp3496
(lp3497
a(lp3498
I0
aa(lp3499
I1
aI1
aa(lp3500
I0
aI0
aI0
aa(lp3501
I0
aI0
aI0
aI0
aa(lp3502
I0
aI1
aI0
aI0
aI0
aa(lp3503
I0
aI0
aI0
aI0
aI0
aI0
aa(lp3504
I0
aI0
aI0
aI1
aI0
aI1
aI1
aa(lp3505
I1
aI0
aI1
aI0
aI0
aI0
aI0
aI0
aa(lp3506
I0
aI0
aI0
aI0
aI1
aI0
aI0
aI0
aI1
aasg39
Nsg40
F30.23154197282671
sg41
(lp3507
(lp3508
a(lp3509
I0
aa(lp3510
I1
aI1
aa(lp3511
I0
aI0
aI0
aa(lp3512
I0
aI0
aI0
aI0
aa(lp3513
I0
aI1
aI0
aI0
aI0
aa(lp3514
I0
aI0
aI0
aI0
aI0
aI1
aa(lp3515
I0
aI0
aI0
aI1
aI0
aI1
aI1
aa(lp3516
I1
aI0
aI1
aI0
aI0
aI0
aI0
aI0
aa(lp3517
I0
aI0
aI0
aI0
aI1
aI0
aI0
aI0
aI1
aasba.