(lp0
(iGenerate
GridGraph
p1
(dp2
S'e'
p3
cnumpy.core.multiarray
scalar
p4
(cnumpy
dtype
p5
(S'f8'
p6
I0
I1
tp7
Rp8
(I3
S'<'
p9
NNNI-1
I-1
I0
tp10
bS'\x00\x00\x00\x00\x00\x00\xd0?'
p11
tp12
Rp13
sS'vertices'
p14
(lp15
(I68
I97
tp16
a(I68
I96
tp17
a(I67
I96
tp18
a(I69
I96
tp19
a(I67
I95
tp20
a(I69
I95
tp21
a(I68
I95
tp22
a(I69
I97
tp23
a(I70
I97
tp24
a(I68
I98
tp25
asS'n'
p26
I10
sS'edges'
p27
(lp28
(lp29
a(lp30
I1
aa(lp31
I0
aI1
aa(lp32
I0
aI1
aI0
aa(lp33
I0
aI0
aI0
aI0
aa(lp34
I0
aI0
aI0
aI1
aI0
aa(lp35
I0
aI1
aI0
aI0
aI1
aI0
aa(lp36
I1
aI0
aI0
aI0
aI0
aI0
aI0
aa(lp37
I0
aI0
aI0
aI0
aI0
aI0
aI0
aI1
aa(lp38
I1
aI0
aI0
aI0
aI0
aI0
aI0
aI0
aI0
aasS'distance_table'
p39
NsS'max_distance'
p40
F1.0
sS'full_edges'
p41
(lp42
(lp43
a(lp44
I1
aa(lp45
I0
aI1
aa(lp46
I0
aI1
aI0
aa(lp47
I0
aI0
aI1
aI0
aa(lp48
I0
aI0
aI0
aI1
aI0
aa(lp49
I0
aI1
aI0
aI0
aI1
aI1
aa(lp50
I1
aI0
aI0
aI1
aI0
aI0
aI0
aa(lp51
I0
aI0
aI0
aI0
aI0
aI0
aI0
aI1
aa(lp52
I1
aI0
aI0
aI0
aI0
aI0
aI0
aI0
aI0
aasba(iGenerate
GridGraph
p53
(dp54
g3
g13
sg14
(lp55
(I87
I97
tp56
a(I88
I97
tp57
a(I87
I98
tp58
a(I88
I96
tp59
a(I87
I96
tp60
a(I89
I97
tp61
a(I86
I98
tp62
a(I86
I99
tp63
a(I88
I95
tp64
a(I89
I98
tp65
asg26
I10
sg27
(lp66
(lp67
a(lp68
I1
aa(lp69
I1
aI0
aa(lp70
I0
aI1
aI0
aa(lp71
I0
aI0
aI0
aI1
aa(lp72
I0
aI1
aI0
aI0
aI0
aa(lp73
I0
aI0
aI1
aI0
aI0
aI0
aa(lp74
I0
aI0
aI0
aI0
aI0
aI0
aI1
aa(lp75
I0
aI0
aI0
aI1
aI0
aI0
aI0
aI0
aa(lp76
I0
aI0
aI0
aI0
aI0
aI1
aI0
aI0
aI0
aasg39
Nsg40
F1.0
sg41
(lp77
(lp78
a(lp79
I1
aa(lp80
I1
aI0
aa(lp81
I0
aI1
aI0
aa(lp82
I1
aI0
aI0
aI1
aa(lp83
I0
aI1
aI0
aI0
aI0
aa(lp84
I0
aI0
aI1
aI0
aI0
aI0
aa(lp85
I0
aI0
aI0
aI0
aI0
aI0
aI1
aa(lp86
I0
aI0
aI0
aI1
aI0
aI0
aI0
aI0
aa(lp87
I0
aI0
aI0
aI0
aI0
aI1
aI0
aI0
aI0
aasba(iGenerate
GridGraph
p88
(dp89
g3
g13
sg14
(lp90
(I7
I5
tp91
a(I8
I5
tp92
a(I8
I6
tp93
a(I7
I6
tp94
a(I7
I4
tp95
a(I6
I6
tp96
a(I7
I7
tp97
a(I9
I5
tp98
a(I6
I4
tp99
a(I10
I5
tp100
asg26
I10
sg27
(lp101
(lp102
a(lp103
I1
aa(lp104
I0
aI0
aa(lp105
I1
aI0
aI1
aa(lp106
I1
aI0
aI0
aI0
aa(lp107
I0
aI0
aI0
aI1
aI0
aa(lp108
I0
aI0
aI0
aI1
aI0
aI0
aa(lp109
I0
aI1
aI0
aI0
aI0
aI0
aI0
aa(lp110
I0
aI0
aI0
aI0
aI1
aI0
aI0
aI0
aa(lp111
I0
aI0
aI0
aI0
aI0
aI0
aI0
aI1
aI0
aasg39
Nsg40
F1.0
sg41
(lp112
(lp113
a(lp114
I1
aa(lp115
I0
aI1
aa(lp116
I1
aI0
aI1
aa(lp117
I1
aI0
aI0
aI0
aa(lp118
I0
aI0
aI0
aI1
aI0
aa(lp119
I0
aI0
aI0
aI1
aI0
aI0
aa(lp120
I0
aI1
aI0
aI0
aI0
aI0
aI0
aa(lp121
I0
aI0
aI0
aI0
aI1
aI0
aI0
aI0
aa(lp122
I0
aI0
aI0
aI0
aI0
aI0
aI0
aI1
aI0
aasba(iGenerate
GridGraph
p123
(dp124
g3
g13
sg14
(lp125
(I2
I31
tp126
a(I3
I31
tp127
a(I3
I32
tp128
a(I4
I31
tp129
a(I3
I33
tp130
a(I3
I30
tp131
a(I5
I31
tp132
a(I6
I31
tp133
a(I3
I29
tp134
a(I4
I32
tp135
asg26
I10
sg27
(lp136
(lp137
a(lp138
I1
aa(lp139
I0
aI1
aa(lp140
I0
aI1
aI0
aa(lp141
I0
aI0
aI1
aI0
aa(lp142
I0
aI1
aI0
aI0
aI0
aa(lp143
I0
aI0
aI0
aI1
aI0
aI0
aa(lp144
I0
aI0
aI0
aI0
aI0
aI0
aI1
aa(lp145
I0
aI0
aI0
aI0
aI0
aI1
aI0
aI0
aa(lp146
I0
aI0
aI0
aI1
aI0
aI0
aI0
aI0
aI0
aasg39
Nsg40
F1.0
sg41
(lp147
(lp148
a(lp149
I1
aa(lp150
I0
aI1
aa(lp151
I0
aI1
aI0
aa(lp152
I0
aI0
aI1
aI0
aa(lp153
I0
aI1
aI0
aI0
aI0
aa(lp154
I0
aI0
aI0
aI1
aI0
aI0
aa(lp155
I0
aI0
aI0
aI0
aI0
aI0
aI1
aa(lp156
I0
aI0
aI0
aI0
aI0
aI1
aI0
aI0
aa(lp157
I0
aI0
aI1
aI1
aI0
aI0
aI0
aI0
aI0
aasba(iGenerate
GridGraph
p158
(dp159
g3
g13
sg14
(lp160
(I10
I21
tp161
a(I10
I20
tp162
a(I10
I19
tp163
a(I10
I22
tp164
a(I11
I22
tp165
a(I10
I23
tp166
a(I11
I23
tp167
a(I9
I20
tp168
a(I12
I23
tp169
a(I9
I22
tp170
asg26
I10
sg27
(lp171
(lp172
a(lp173
I1
aa(lp174
I0
aI1
aa(lp175
I1
aI0
aI0
aa(lp176
I0
aI0
aI0
aI1
aa(lp177
I0
aI0
aI0
aI1
aI0
aa(lp178
I0
aI0
aI0
aI0
aI0
aI1
aa(lp179
I0
aI1
aI0
aI0
aI0
aI0
aI0
aa(lp180
I0
aI0
aI0
aI0
aI0
aI0
aI1
aI0
aa(lp181
I0
aI0
aI0
aI1
aI0
aI0
aI0
aI0
aI0
aasg39
Nsg40
F1.0
sg41
(lp182
(lp183
a(lp184
I1
aa(lp185
I0
aI1
aa(lp186
I1
aI0
aI0
aa(lp187
I0
aI0
aI0
aI1
aa(lp188
I0
aI0
aI0
aI1
aI0
aa(lp189
I0
aI0
aI0
aI0
aI1
aI1
aa(lp190
I0
aI1
aI0
aI0
aI0
aI0
aI0
aa(lp191
I0
aI0
aI0
aI0
aI0
aI0
aI1
aI0
aa(lp192
I0
aI0
aI0
aI1
aI0
aI0
aI0
aI0
aI0
aasba(iGenerate
GridGraph
p193
(dp194
g3
g13
sg14
(lp195
(I30
I55
tp196
a(I29
I55
tp197
a(I29
I56
tp198
a(I28
I55
tp199
a(I30
I54
tp200
a(I31
I54
tp201
a(I29
I54
tp202
a(I32
I54
tp203
a(I32
I55
tp204
a(I30
I53
tp205
asg26
I10
sg27
(lp206
(lp207
a(lp208
I1
aa(lp209
I0
aI1
aa(lp210
I0
aI1
aI0
aa(lp211
I1
aI0
aI0
aI0
aa(lp212
I0
aI0
aI0
aI0
aI1
aa(lp213
I0
aI0
aI0
aI0
aI1
aI0
aa(lp214
I0
aI0
aI0
aI0
aI0
aI1
aI0
aa(lp215
I0
aI0
aI0
aI0
aI0
aI0
aI0
aI1
aa(lp216
I0
aI0
aI0
aI0
aI1
aI0
aI0
aI0
aI0
aasg39
Nsg40
F1.0
sg41
(lp217
(lp218
a(lp219
I1
aa(lp220
I0
aI1
aa(lp221
I0
aI1
aI0
aa(lp222
I1
aI0
aI0
aI0
aa(lp223
I0
aI0
aI0
aI0
aI1
aa(lp224
I0
aI1
aI0
aI0
aI1
aI0
aa(lp225
I0
aI0
aI0
aI0
aI0
aI1
aI0
aa(lp226
I0
aI0
aI0
aI0
aI0
aI0
aI0
aI1
aa(lp227
I0
aI0
aI0
aI0
aI1
aI0
aI0
aI0
aI0
aasba(iGenerate
GridGraph
p228
(dp229
g3
g13
sg14
(lp230
(I72
I89
tp231
a(I72
I90
tp232
a(I72
I88
tp233
a(I73
I88
tp234
a(I71
I88
tp235
a(I73
I89
tp236
a(I73
I90
tp237
a(I71
I90
tp238
a(I71
I91
tp239
a(I74
I90
tp240
asg26
I10
sg27
(lp241
(lp242
a(lp243
I1
aa(lp244
I1
aI0
aa(lp245
I0
aI0
aI0
aa(lp246
I0
aI0
aI1
aI0
aa(lp247
I1
aI0
aI0
aI1
aI0
aa(lp248
I0
aI1
aI0
aI0
aI0
aI0
aa(lp249
I0
aI1
aI0
aI0
aI0
aI0
aI0
aa(lp250
I0
aI0
aI0
aI0
aI0
aI0
aI0
aI1
aa(lp251
I0
aI0
aI0
aI0
aI0
aI0
aI1
aI0
aI0
aasg39
Nsg40
F1.0
sg41
(lp252
(lp253
a(lp254
I1
aa(lp255
I1
aI0
aa(lp256
I0
aI0
aI1
aa(lp257
I0
aI0
aI1
aI0
aa(lp258
I1
aI0
aI0
aI1
aI0
aa(lp259
I0
aI1
aI0
aI0
aI0
aI1
aa(lp260
I0
aI1
aI0
aI0
aI0
aI0
aI0
aa(lp261
I0
aI0
aI0
aI0
aI0
aI0
aI0
aI1
aa(lp262
I0
aI0
aI0
aI0
aI0
aI0
aI1
aI0
aI0
aasba(iGenerate
GridGraph
p263
(dp264
g3
g13
sg14
(lp265
(I64
I82
tp266
a(I64
I83
tp267
a(I65
I83
tp268
a(I65
I82
tp269
a(I66
I82
tp270
a(I64
I81
tp271
a(I65
I81
tp272
a(I63
I81
tp273
a(I67
I82
tp274
a(I64
I80
tp275
asg26
I10
sg27
(lp276
(lp277
a(lp278
I1
aa(lp279
I0
aI0
aa(lp280
I1
aI0
aI1
aa(lp281
I0
aI0
aI0
aI1
aa(lp282
I1
aI0
aI0
aI0
aI0
aa(lp283
I0
aI0
aI0
aI0
aI0
aI1
aa(lp284
I0
aI0
aI0
aI0
aI0
aI1
aI0
aa(lp285
I0
aI0
aI0
aI0
aI1
aI0
aI0
aI0
aa(lp286
I0
aI0
aI0
aI0
aI0
aI1
aI0
aI0
aI0
aasg39
Nsg40
F1.0
sg41
(lp287
(lp288
a(lp289
I1
aa(lp290
I0
aI1
aa(lp291
I1
aI0
aI1
aa(lp292
I0
aI0
aI0
aI1
aa(lp293
I1
aI0
aI0
aI0
aI0
aa(lp294
I0
aI0
aI0
aI1
aI0
aI1
aa(lp295
I0
aI0
aI0
aI0
aI0
aI1
aI0
aa(lp296
I0
aI0
aI0
aI0
aI1
aI0
aI0
aI0
aa(lp297
I0
aI0
aI0
aI0
aI0
aI1
aI0
aI0
aI0
aasba(iGenerate
GridGraph
p298
(dp299
g3
g13
sg14
(lp300
(I85
I92
tp301
a(I84
I92
tp302
a(I84
I93
tp303
a(I85
I93
tp304
a(I85
I91
tp305
a(I85
I94
tp306
a(I83
I92
tp307
a(I86
I93
tp308
a(I86
I94
tp309
a(I84
I94
tp310
asg26
I10
sg27
(lp311
(lp312
a(lp313
I1
aa(lp314
I0
aI0
aa(lp315
I1
aI0
aI1
aa(lp316
I1
aI0
aI0
aI0
aa(lp317
I0
aI0
aI0
aI1
aI0
aa(lp318
I0
aI1
aI0
aI0
aI0
aI0
aa(lp319
I0
aI0
aI0
aI1
aI0
aI0
aI0
aa(lp320
I0
aI0
aI0
aI0
aI0
aI0
aI0
aI1
aa(lp321
I0
aI0
aI1
aI0
aI0
aI0
aI0
aI0
aI0
aasg39
Nsg40
F1.0
sg41
(lp322
(lp323
a(lp324
I1
aa(lp325
I0
aI1
aa(lp326
I1
aI0
aI1
aa(lp327
I1
aI0
aI0
aI0
aa(lp328
I0
aI0
aI0
aI1
aI0
aa(lp329
I0
aI1
aI0
aI0
aI0
aI0
aa(lp330
I0
aI0
aI0
aI1
aI0
aI0
aI0
aa(lp331
I0
aI0
aI0
aI0
aI0
aI1
aI0
aI1
aa(lp332
I0
aI0
aI1
aI0
aI0
aI1
aI0
aI0
aI0
aasba(iGenerate
GridGraph
p333
(dp334
g3
g13
sg14
(lp335
(I58
I93
tp336
a(I58
I94
tp337
a(I58
I95
tp338
a(I59
I93
tp339
a(I57
I93
tp340
a(I60
I93
tp341
a(I61
I93
tp342
a(I57
I92
tp343
a(I60
I94
tp344
a(I61
I92
tp345
asg26
I10
sg27
(lp346
(lp347
a(lp348
I1
aa(lp349
I0
aI1
aa(lp350
I1
aI0
aI0
aa(lp351
I1
aI0
aI0
aI0
aa(lp352
I0
aI0
aI0
aI1
aI0
aa(lp353
I0
aI0
aI0
aI0
aI0
aI1
aa(lp354
I0
aI0
aI0
aI0
aI1
aI0
aI0
aa(lp355
I0
aI0
aI0
aI0
aI0
aI1
aI0
aI0
aa(lp356
I0
aI0
aI0
aI0
aI0
aI0
aI1
aI0
aI0
aasg39
Nsg40
F1.0
sg41
(lp357
(lp358
a(lp359
I1
aa(lp360
I0
aI1
aa(lp361
I1
aI0
aI0
aa(lp362
I1
aI0
aI0
aI0
aa(lp363
I0
aI0
aI0
aI1
aI0
aa(lp364
I0
aI0
aI0
aI0
aI0
aI1
aa(lp365
I0
aI0
aI0
aI0
aI1
aI0
aI0
aa(lp366
I0
aI0
aI0
aI0
aI0
aI1
aI0
aI0
aa(lp367
I0
aI0
aI0
aI0
aI0
aI0
aI1
aI0
aI0
aasba(iGenerate
GridGraph
p368
(dp369
g3
g13
sg14
(lp370
(I64
I78
tp371
a(I65
I78
tp372
a(I66
I78
tp373
a(I63
I78
tp374
a(I63
I79
tp375
a(I62
I78
tp376
a(I67
I78
tp377
a(I63
I77
tp378
a(I61
I78
tp379
a(I68
I78
tp380
asg26
I10
sg27
(lp381
(lp382
a(lp383
I1
aa(lp384
I0
aI1
aa(lp385
I1
aI0
aI0
aa(lp386
I0
aI0
aI0
aI1
aa(lp387
I0
aI0
aI0
aI1
aI0
aa(lp388
I0
aI0
aI1
aI0
aI0
aI0
aa(lp389
I0
aI0
aI0
aI1
aI0
aI0
aI0
aa(lp390
I0
aI0
aI0
aI0
aI0
aI1
aI0
aI0
aa(lp391
I0
aI0
aI0
aI0
aI0
aI0
aI1
aI0
aI0
aasg39
Nsg40
F1.0
sg41
(lp392
(lp393
a(lp394
I1
aa(lp395
I0
aI1
aa(lp396
I1
aI0
aI0
aa(lp397
I0
aI0
aI0
aI1
aa(lp398
I0
aI0
aI0
aI1
aI0
aa(lp399
I0
aI0
aI1
aI0
aI0
aI0
aa(lp400
I0
aI0
aI0
aI1
aI0
aI0
aI0
aa(lp401
I0
aI0
aI0
aI0
aI0
aI1
aI0
aI0
aa(lp402
I0
aI0
aI0
aI0
aI0
aI0
aI1
aI0
aI0
aasba(iGenerate
GridGraph
p403
(dp404
g3
g13
sg14
(lp405
(I27
I49
tp406
a(I27
I50
tp407
a(I26
I50
tp408
a(I27
I48
tp409
a(I26
I51
tp410
a(I25
I51
tp411
a(I24
I51
tp412
a(I24
I52
tp413
a(I25
I52
tp414
a(I23
I52
tp415
asg26
I10
sg27
(lp416
(lp417
a(lp418
I1
aa(lp419
I0
aI1
aa(lp420
I1
aI0
aI0
aa(lp421
I0
aI0
aI1
aI0
aa(lp422
I0
aI0
aI0
aI0
aI1
aa(lp423
I0
aI0
aI0
aI0
aI0
aI1
aa(lp424
I0
aI0
aI0
aI0
aI0
aI0
aI0
aa(lp425
I0
aI0
aI0
aI0
aI0
aI1
aI0
aI1
aa(lp426
I0
aI0
aI0
aI0
aI0
aI0
aI0
aI1
aI0
aasg39
Nsg40
F1.0
sg41
(lp427
(lp428
a(lp429
I1
aa(lp430
I0
aI1
aa(lp431
I1
aI0
aI0
aa(lp432
I0
aI0
aI1
aI0
aa(lp433
I0
aI0
aI0
aI0
aI1
aa(lp434
I0
aI0
aI0
aI0
aI0
aI1
aa(lp435
I0
aI0
aI0
aI0
aI0
aI0
aI1
aa(lp436
I0
aI0
aI0
aI0
aI0
aI1
aI0
aI1
aa(lp437
I0
aI0
aI0
aI0
aI0
aI0
aI0
aI1
aI0
aasba(iGenerate
GridGraph
p438
(dp439
g3
g13
sg14
(lp440
(I30
I15
tp441
a(I30
I16
tp442
a(I31
I16
tp443
a(I32
I16
tp444
a(I33
I16
tp445
a(I33
I17
tp446
a(I33
I18
tp447
a(I34
I17
tp448
a(I32
I18
tp449
a(I30
I17
tp450
asg26
I10
sg27
(lp451
(lp452
a(lp453
I1
aa(lp454
I0
aI1
aa(lp455
I0
aI0
aI1
aa(lp456
I0
aI0
aI0
aI1
aa(lp457
I0
aI0
aI0
aI0
aI1
aa(lp458
I0
aI0
aI0
aI0
aI0
aI1
aa(lp459
I0
aI0
aI0
aI0
aI0
aI1
aI0
aa(lp460
I0
aI0
aI0
aI0
aI0
aI0
aI1
aI0
aa(lp461
I0
aI1
aI0
aI0
aI0
aI0
aI0
aI0
aI0
aasg39
Nsg40
F1.0
sg41
(lp462
(lp463
a(lp464
I1
aa(lp465
I0
aI1
aa(lp466
I0
aI0
aI1
aa(lp467
I0
aI0
aI0
aI1
aa(lp468
I0
aI0
aI0
aI0
aI1
aa(lp469
I0
aI0
aI0
aI0
aI0
aI1
aa(lp470
I0
aI0
aI0
aI0
aI0
aI1
aI0
aa(lp471
I0
aI0
aI0
aI0
aI0
aI0
aI1
aI0
aa(lp472
I0
aI1
aI0
aI0
aI0
aI0
aI0
aI0
aI0
aasba(iGenerate
GridGraph
p473
(dp474
g3
g13
sg14
(lp475
(I61
I79
tp476
a(I62
I79
tp477
a(I62
I78
tp478
a(I61
I80
tp479
a(I60
I79
tp480
a(I61
I81
tp481
a(I61
I78
tp482
a(I61
I77
tp483
a(I63
I78
tp484
a(I62
I81
tp485
asg26
I10
sg27
(lp486
(lp487
a(lp488
I1
aa(lp489
I0
aI1
aa(lp490
I1
aI0
aI0
aa(lp491
I1
aI0
aI0
aI0
aa(lp492
I0
aI0
aI0
aI1
aI0
aa(lp493
I1
aI0
aI0
aI0
aI0
aI0
aa(lp494
I0
aI0
aI0
aI0
aI0
aI0
aI1
aa(lp495
I0
aI0
aI1
aI0
aI0
aI0
aI0
aI0
aa(lp496
I0
aI0
aI0
aI0
aI0
aI1
aI0
aI0
aI0
aasg39
Nsg40
F1.0
sg41
(lp497
(lp498
a(lp499
I1
aa(lp500
I0
aI1
aa(lp501
I1
aI0
aI0
aa(lp502
I1
aI0
aI0
aI0
aa(lp503
I0
aI0
aI0
aI1
aI0
aa(lp504
I1
aI0
aI1
aI0
aI0
aI0
aa(lp505
I0
aI0
aI0
aI0
aI0
aI0
aI1
aa(lp506
I0
aI0
aI1
aI0
aI0
aI0
aI0
aI0
aa(lp507
I0
aI0
aI0
aI0
aI0
aI1
aI0
aI0
aI0
aasba(iGenerate
GridGraph
p508
(dp509
g3
g13
sg14
(lp510
(I57
I53
tp511
a(I57
I52
tp512
a(I58
I53
tp513
a(I56
I53
tp514
a(I58
I54
tp515
a(I59
I53
tp516
a(I56
I52
tp517
a(I57
I51
tp518
a(I60
I53
tp519
a(I58
I55
tp520
asg26
I10
sg27
(lp521
(lp522
a(lp523
I1
aa(lp524
I1
aI0
aa(lp525
I1
aI0
aI0
aa(lp526
I0
aI0
aI1
aI0
aa(lp527
I0
aI0
aI1
aI0
aI0
aa(lp528
I0
aI1
aI0
aI0
aI0
aI0
aa(lp529
I0
aI1
aI0
aI0
aI0
aI0
aI0
aa(lp530
I0
aI0
aI0
aI0
aI0
aI1
aI0
aI0
aa(lp531
I0
aI0
aI0
aI0
aI1
aI0
aI0
aI0
aI0
aasg39
Nsg40
F1.0
sg41
(lp532
(lp533
a(lp534
I1
aa(lp535
I1
aI0
aa(lp536
I1
aI0
aI0
aa(lp537
I0
aI0
aI1
aI0
aa(lp538
I0
aI0
aI1
aI0
aI0
aa(lp539
I0
aI1
aI0
aI1
aI0
aI0
aa(lp540
I0
aI1
aI0
aI0
aI0
aI0
aI0
aa(lp541
I0
aI0
aI0
aI0
aI0
aI1
aI0
aI0
aa(lp542
I0
aI0
aI0
aI0
aI1
aI0
aI0
aI0
aI0
aasba(iGenerate
GridGraph
p543
(dp544
g3
g13
sg14
(lp545
(I85
I23
tp546
a(I85
I24
tp547
a(I86
I24
tp548
a(I86
I23
tp549
a(I85
I22
tp550
a(I86
I25
tp551
a(I87
I25
tp552
a(I87
I23
tp553
a(I84
I23
tp554
a(I86
I26
tp555
asg26
I10
sg27
(lp556
(lp557
a(lp558
I0
aa(lp559
I0
aI1
aa(lp560
I1
aI0
aI1
aa(lp561
I1
aI0
aI0
aI0
aa(lp562
I0
aI0
aI1
aI0
aI0
aa(lp563
I0
aI0
aI0
aI0
aI0
aI1
aa(lp564
I0
aI0
aI0
aI1
aI0
aI0
aI0
aa(lp565
I1
aI0
aI0
aI0
aI0
aI0
aI0
aI0
aa(lp566
I0
aI0
aI0
aI0
aI0
aI1
aI0
aI0
aI0
aasg39
Nsg40
F1.0
sg41
(lp567
(lp568
a(lp569
I1
aa(lp570
I0
aI1
aa(lp571
I1
aI0
aI1
aa(lp572
I1
aI0
aI0
aI0
aa(lp573
I0
aI0
aI1
aI0
aI0
aa(lp574
I0
aI0
aI0
aI0
aI0
aI1
aa(lp575
I0
aI0
aI0
aI1
aI0
aI0
aI0
aa(lp576
I1
aI0
aI0
aI0
aI0
aI0
aI0
aI0
aa(lp577
I0
aI0
aI0
aI0
aI0
aI1
aI0
aI0
aI0
aasba(iGenerate
GridGraph
p578
(dp579
g3
g13
sg14
(lp580
(I83
I91
tp581
a(I82
I91
tp582
a(I81
I91
tp583
a(I81
I92
tp584
a(I80
I91
tp585
a(I82
I90
tp586
a(I79
I91
tp587
a(I82
I92
tp588
a(I79
I92
tp589
a(I81
I93
tp590
asg26
I10
sg27
(lp591
(lp592
a(lp593
I1
aa(lp594
I0
aI1
aa(lp595
I0
aI0
aI1
aa(lp596
I0
aI0
aI1
aI0
aa(lp597
I0
aI1
aI0
aI0
aI0
aa(lp598
I0
aI0
aI0
aI0
aI1
aI0
aa(lp599
I0
aI0
aI0
aI1
aI0
aI0
aI0
aa(lp600
I0
aI0
aI0
aI0
aI0
aI0
aI1
aI0
aa(lp601
I0
aI0
aI0
aI1
aI0
aI0
aI0
aI0
aI0
aasg39
Nsg40
F1.0
sg41
(lp602
(lp603
a(lp604
I1
aa(lp605
I0
aI1
aa(lp606
I0
aI0
aI1
aa(lp607
I0
aI0
aI1
aI0
aa(lp608
I0
aI1
aI0
aI0
aI0
aa(lp609
I0
aI0
aI0
aI0
aI1
aI0
aa(lp610
I0
aI1
aI0
aI1
aI0
aI0
aI0
aa(lp611
I0
aI0
aI0
aI0
aI0
aI0
aI1
aI0
aa(lp612
I0
aI0
aI0
aI1
aI0
aI0
aI0
aI0
aI0
aasba(iGenerate
GridGraph
p613
(dp614
g3
g13
sg14
(lp615
(I27
I44
tp616
a(I28
I44
tp617
a(I27
I45
tp618
a(I28
I45
tp619
a(I26
I44
tp620
a(I28
I46
tp621
a(I29
I46
tp622
a(I30
I46
tp623
a(I25
I44
tp624
a(I24
I44
tp625
asg26
I10
sg27
(lp626
(lp627
a(lp628
I1
aa(lp629
I1
aI0
aa(lp630
I0
aI1
aI0
aa(lp631
I1
aI0
aI0
aI0
aa(lp632
I0
aI0
aI0
aI1
aI0
aa(lp633
I0
aI0
aI0
aI0
aI0
aI1
aa(lp634
I0
aI0
aI0
aI0
aI0
aI0
aI1
aa(lp635
I0
aI0
aI0
aI0
aI1
aI0
aI0
aI0
aa(lp636
I0
aI0
aI0
aI0
aI0
aI0
aI0
aI0
aI1
aasg39
Nsg40
F1.0
sg41
(lp637
(lp638
a(lp639
I1
aa(lp640
I1
aI0
aa(lp641
I0
aI1
aI1
aa(lp642
I1
aI0
aI0
aI0
aa(lp643
I0
aI0
aI0
aI1
aI0
aa(lp644
I0
aI0
aI0
aI0
aI0
aI1
aa(lp645
I0
aI0
aI0
aI0
aI0
aI0
aI1
aa(lp646
I0
aI0
aI0
aI0
aI1
aI0
aI0
aI0
aa(lp647
I0
aI0
aI0
aI0
aI0
aI0
aI0
aI0
aI1
aasba(iGenerate
GridGraph
p648
(dp649
g3
g13
sg14
(lp650
(I55
I45
tp651
a(I55
I46
tp652
a(I55
I47
tp653
a(I54
I45
tp654
a(I54
I46
tp655
a(I54
I44
tp656
a(I55
I44
tp657
a(I53
I44
tp658
a(I55
I48
tp659
a(I56
I47
tp660
asg26
I10
sg27
(lp661
(lp662
a(lp663
I1
aa(lp664
I0
aI1
aa(lp665
I1
aI0
aI0
aa(lp666
I0
aI0
aI0
aI1
aa(lp667
I0
aI0
aI0
aI0
aI0
aa(lp668
I1
aI0
aI0
aI0
aI0
aI1
aa(lp669
I0
aI0
aI0
aI0
aI0
aI1
aI0
aa(lp670
I0
aI0
aI1
aI0
aI0
aI0
aI0
aI0
aa(lp671
I0
aI0
aI1
aI0
aI0
aI0
aI0
aI0
aI0
aasg39
Nsg40
F1.0
sg41
(lp672
(lp673
a(lp674
I1
aa(lp675
I0
aI1
aa(lp676
I1
aI0
aI0
aa(lp677
I0
aI1
aI0
aI1
aa(lp678
I0
aI0
aI0
aI1
aI0
aa(lp679
I1
aI0
aI0
aI0
aI0
aI1
aa(lp680
I0
aI0
aI0
aI0
aI0
aI1
aI0
aa(lp681
I0
aI0
aI1
aI0
aI0
aI0
aI0
aI0
aa(lp682
I0
aI0
aI1
aI0
aI0
aI0
aI0
aI0
aI0
aasba(iGenerate
GridGraph
p683
(dp684
g3
g13
sg14
(lp685
(I89
I5
tp686
a(I89
I6
tp687
a(I90
I5
tp688
a(I90
I6
tp689
a(I89
I7
tp690
a(I88
I7
tp691
a(I91
I6
tp692
a(I88
I8
tp693
a(I91
I5
tp694
a(I89
I4
tp695
asg26
I10
sg27
(lp696
(lp697
a(lp698
I0
aa(lp699
I1
aI0
aa(lp700
I0
aI1
aI1
aa(lp701
I0
aI1
aI0
aI0
aa(lp702
I0
aI0
aI0
aI0
aI1
aa(lp703
I0
aI0
aI0
aI1
aI0
aI0
aa(lp704
I0
aI0
aI0
aI0
aI0
aI1
aI0
aa(lp705
I0
aI0
aI1
aI0
aI0
aI0
aI0
aI0
aa(lp706
I1
aI0
aI0
aI0
aI0
aI0
aI0
aI0
aI0
aasg39
Nsg40
F1.0
sg41
(lp707
(lp708
a(lp709
I1
aa(lp710
I1
aI0
aa(lp711
I0
aI1
aI1
aa(lp712
I0
aI1
aI0
aI0
aa(lp713
I0
aI0
aI0
aI0
aI1
aa(lp714
I0
aI0
aI0
aI1
aI0
aI0
aa(lp715
I0
aI0
aI0
aI0
aI0
aI1
aI0
aa(lp716
I0
aI0
aI1
aI0
aI0
aI0
aI1
aI0
aa(lp717
I1
aI0
aI0
aI0
aI0
aI0
aI0
aI0
aI0
aasba(iGenerate
GridGraph
p718
(dp719
g3
g13
sg14
(lp720
(I53
I29
tp721
a(I52
I29
tp722
a(I51
I29
tp723
a(I53
I30
tp724
a(I54
I29
tp725
a(I53
I28
tp726
a(I51
I30
tp727
a(I54
I28
tp728
a(I54
I27
tp729
a(I51
I31
tp730
asg26
I10
sg27
(lp731
(lp732
a(lp733
I1
aa(lp734
I0
aI1
aa(lp735
I1
aI0
aI0
aa(lp736
I1
aI0
aI0
aI0
aa(lp737
I1
aI0
aI0
aI0
aI0
aa(lp738
I0
aI0
aI1
aI0
aI0
aI0
aa(lp739
I0
aI0
aI0
aI0
aI0
aI1
aI0
aa(lp740
I0
aI0
aI0
aI0
aI0
aI0
aI0
aI1
aa(lp741
I0
aI0
aI0
aI0
aI0
aI0
aI1
aI0
aI0
aasg39
Nsg40
F1.0
sg41
(lp742
(lp743
a(lp744
I1
aa(lp745
I0
aI1
aa(lp746
I1
aI0
aI0
aa(lp747
I1
aI0
aI0
aI0
aa(lp748
I1
aI0
aI0
aI0
aI0
aa(lp749
I0
aI0
aI1
aI0
aI0
aI0
aa(lp750
I0
aI0
aI0
aI0
aI1
aI1
aI0
aa(lp751
I0
aI0
aI0
aI0
aI0
aI0
aI0
aI1
aa(lp752
I0
aI0
aI0
aI0
aI0
aI0
aI1
aI0
aI0
aasba(iGenerate
GridGraph
p753
(dp754
g3
g13
sg14
(lp755
(I74
I35
tp756
a(I74
I34
tp757
a(I74
I33
tp758
a(I73
I33
tp759
a(I75
I33
tp760
a(I73
I34
tp761
a(I72
I34
tp762
a(I74
I36
tp763
a(I73
I32
tp764
a(I73
I35
tp765
asg26
I10
sg27
(lp766
(lp767
a(lp768
I1
aa(lp769
I0
aI1
aa(lp770
I0
aI0
aI0
aa(lp771
I0
aI0
aI1
aI0
aa(lp772
I0
aI0
aI0
aI1
aI0
aa(lp773
I0
aI0
aI0
aI0
aI0
aI1
aa(lp774
I1
aI0
aI0
aI0
aI0
aI0
aI0
aa(lp775
I0
aI0
aI0
aI1
aI0
aI0
aI0
aI0
aa(lp776
I1
aI0
aI0
aI0
aI0
aI1
aI0
aI0
aI0
aasg39
Nsg40
F1.0
sg41
(lp777
(lp778
a(lp779
I1
aa(lp780
I0
aI1
aa(lp781
I0
aI0
aI1
aa(lp782
I0
aI0
aI1
aI0
aa(lp783
I0
aI1
aI0
aI1
aI0
aa(lp784
I0
aI0
aI0
aI0
aI0
aI1
aa(lp785
I1
aI0
aI0
aI0
aI0
aI0
aI0
aa(lp786
I0
aI0
aI0
aI1
aI0
aI0
aI0
aI0
aa(lp787
I1
aI0
aI0
aI0
aI0
aI1
aI0
aI0
aI0
aasba(iGenerate
GridGraph
p788
(dp789
g3
g13
sg14
(lp790
(I51
I24
tp791
a(I51
I25
tp792
a(I50
I25
tp793
a(I52
I25
tp794
a(I50
I24
tp795
a(I50
I26
tp796
a(I50
I23
tp797
a(I49
I25
tp798
a(I50
I27
tp799
a(I52
I26
tp800
asg26
I10
sg27
(lp801
(lp802
a(lp803
I1
aa(lp804
I0
aI0
aa(lp805
I0
aI1
aI0
aa(lp806
I1
aI0
aI1
aI0
aa(lp807
I0
aI0
aI1
aI0
aI0
aa(lp808
I0
aI0
aI0
aI0
aI1
aI0
aa(lp809
I0
aI0
aI1
aI0
aI0
aI0
aI0
aa(lp810
I0
aI0
aI0
aI0
aI0
aI1
aI0
aI0
aa(lp811
I0
aI0
aI0
aI1
aI0
aI0
aI0
aI0
aI0
aasg39
Nsg40
F1.0
sg41
(lp812
(lp813
a(lp814
I1
aa(lp815
I0
aI1
aa(lp816
I0
aI1
aI0
aa(lp817
I1
aI0
aI1
aI0
aa(lp818
I0
aI0
aI1
aI0
aI0
aa(lp819
I0
aI0
aI0
aI0
aI1
aI0
aa(lp820
I0
aI0
aI1
aI0
aI0
aI0
aI0
aa(lp821
I0
aI0
aI0
aI0
aI0
aI1
aI0
aI0
aa(lp822
I0
aI0
aI0
aI1
aI0
aI0
aI0
aI0
aI0
aasba(iGenerate
GridGraph
p823
(dp824
g3
g13
sg14
(lp825
(I80
I56
tp826
a(I79
I56
tp827
a(I78
I56
tp828
a(I78
I55
tp829
a(I80
I57
tp830
a(I79
I57
tp831
a(I78
I57
tp832
a(I77
I56
tp833
a(I76
I56
tp834
a(I77
I57
tp835
asg26
I10
sg27
(lp836
(lp837
a(lp838
I1
aa(lp839
I0
aI1
aa(lp840
I0
aI0
aI1
aa(lp841
I1
aI0
aI0
aI0
aa(lp842
I0
aI0
aI0
aI0
aI0
aa(lp843
I0
aI0
aI1
aI0
aI0
aI1
aa(lp844
I0
aI0
aI1
aI0
aI0
aI0
aI0
aa(lp845
I0
aI0
aI0
aI0
aI0
aI0
aI0
aI1
aa(lp846
I0
aI0
aI0
aI0
aI0
aI0
aI1
aI0
aI0
aasg39
Nsg40
F1.0
sg41
(lp847
(lp848
a(lp849
I1
aa(lp850
I0
aI1
aa(lp851
I0
aI0
aI1
aa(lp852
I1
aI0
aI0
aI0
aa(lp853
I0
aI1
aI0
aI0
aI1
aa(lp854
I0
aI0
aI1
aI0
aI0
aI1
aa(lp855
I0
aI0
aI1
aI0
aI0
aI0
aI0
aa(lp856
I0
aI0
aI0
aI0
aI0
aI0
aI0
aI1
aa(lp857
I0
aI0
aI0
aI0
aI0
aI0
aI1
aI1
aI0
aasba(iGenerate
GridGraph
p858
(dp859
g3
g13
sg14
(lp860
(I28
I5
tp861
a(I28
I4
tp862
a(I27
I4
tp863
a(I27
I5
tp864
a(I26
I4
tp865
a(I26
I3
tp866
a(I27
I3
tp867
a(I26
I2
tp868
a(I29
I4
tp869
a(I29
I3
tp870
asg26
I10
sg27
(lp871
(lp872
a(lp873
I1
aa(lp874
I0
aI1
aa(lp875
I1
aI0
aI0
aa(lp876
I0
aI0
aI1
aI0
aa(lp877
I0
aI0
aI0
aI0
aI0
aa(lp878
I0
aI0
aI1
aI0
aI0
aI1
aa(lp879
I0
aI0
aI0
aI0
aI0
aI1
aI0
aa(lp880
I0
aI1
aI0
aI0
aI0
aI0
aI0
aI0
aa(lp881
I0
aI0
aI0
aI0
aI0
aI0
aI0
aI0
aI1
aasg39
Nsg40
F1.0
sg41
(lp882
(lp883
a(lp884
I1
aa(lp885
I0
aI1
aa(lp886
I1
aI0
aI1
aa(lp887
I0
aI0
aI1
aI0
aa(lp888
I0
aI0
aI0
aI0
aI1
aa(lp889
I0
aI0
aI1
aI0
aI0
aI1
aa(lp890
I0
aI0
aI0
aI0
aI0
aI1
aI0
aa(lp891
I0
aI1
aI0
aI0
aI0
aI0
aI0
aI0
aa(lp892
I0
aI0
aI0
aI0
aI0
aI0
aI0
aI0
aI1
aasba(iGenerate
GridGraph
p893
(dp894
g3
g13
sg14
(lp895
(I15
I18
tp896
a(I15
I19
tp897
a(I16
I19
tp898
a(I15
I17
tp899
a(I14
I17
tp900
a(I13
I17
tp901
a(I14
I18
tp902
a(I16
I17
tp903
a(I15
I20
tp904
a(I16
I18
tp905
asg26
I10
sg27
(lp906
(lp907
a(lp908
I1
aa(lp909
I0
aI1
aa(lp910
I1
aI0
aI0
aa(lp911
I0
aI0
aI0
aI1
aa(lp912
I0
aI0
aI0
aI0
aI1
aa(lp913
I1
aI0
aI0
aI0
aI0
aI0
aa(lp914
I0
aI0
aI0
aI0
aI0
aI0
aI0
aa(lp915
I0
aI1
aI0
aI0
aI0
aI0
aI0
aI0
aa(lp916
I1
aI0
aI0
aI0
aI0
aI0
aI0
aI1
aI0
aasg39
Nsg40
F1.0
sg41
(lp917
(lp918
a(lp919
I1
aa(lp920
I0
aI1
aa(lp921
I1
aI0
aI0
aa(lp922
I0
aI0
aI0
aI1
aa(lp923
I0
aI0
aI0
aI0
aI1
aa(lp924
I1
aI0
aI0
aI0
aI1
aI0
aa(lp925
I0
aI0
aI0
aI1
aI0
aI0
aI0
aa(lp926
I0
aI1
aI0
aI0
aI0
aI0
aI0
aI0
aa(lp927
I1
aI0
aI1
aI0
aI0
aI0
aI0
aI1
aI0
aasba(iGenerate
GridGraph
p928
(dp929
g3
g13
sg14
(lp930
(I38
I63
tp931
a(I38
I62
tp932
a(I38
I61
tp933
a(I39
I63
tp934
a(I39
I64
tp935
a(I37
I62
tp936
a(I40
I63
tp937
a(I39
I62
tp938
a(I36
I62
tp939
a(I36
I63
tp940
asg26
I10
sg27
(lp941
(lp942
a(lp943
I1
aa(lp944
I0
aI1
aa(lp945
I1
aI0
aI0
aa(lp946
I0
aI0
aI0
aI1
aa(lp947
I0
aI1
aI0
aI0
aI0
aa(lp948
I0
aI0
aI0
aI1
aI0
aI0
aa(lp949
I0
aI1
aI0
aI0
aI0
aI0
aI0
aa(lp950
I0
aI0
aI0
aI0
aI0
aI1
aI0
aI0
aa(lp951
I0
aI0
aI0
aI0
aI0
aI0
aI0
aI0
aI1
aasg39
Nsg40
F1.0
sg41
(lp952
(lp953
a(lp954
I1
aa(lp955
I0
aI1
aa(lp956
I1
aI0
aI0
aa(lp957
I0
aI0
aI0
aI1
aa(lp958
I0
aI1
aI0
aI0
aI0
aa(lp959
I0
aI0
aI0
aI1
aI0
aI0
aa(lp960
I0
aI1
aI0
aI1
aI0
aI0
aI0
aa(lp961
I0
aI0
aI0
aI0
aI0
aI1
aI0
aI0
aa(lp962
I0
aI0
aI0
aI0
aI0
aI0
aI0
aI0
aI1
aasba(iGenerate
GridGraph
p963
(dp964
g3
g13
sg14
(lp965
(I77
I34
tp966
a(I78
I34
tp967
a(I76
I34
tp968
a(I78
I35
tp969
a(I78
I36
tp970
a(I77
I35
tp971
a(I77
I36
tp972
a(I79
I36
tp973
a(I79
I34
tp974
a(I76
I35
tp975
asg26
I10
sg27
(lp976
(lp977
a(lp978
I1
aa(lp979
I1
aI0
aa(lp980
I0
aI1
aI0
aa(lp981
I0
aI0
aI0
aI1
aa(lp982
I0
aI0
aI0
aI1
aI0
aa(lp983
I0
aI0
aI0
aI0
aI0
aI1
aa(lp984
I0
aI0
aI0
aI0
aI1
aI0
aI0
aa(lp985
I0
aI1
aI0
aI0
aI0
aI0
aI0
aI0
aa(lp986
I0
aI0
aI1
aI0
aI0
aI0
aI0
aI0
aI0
aasg39
Nsg40
F1.0
sg41
(lp987
(lp988
a(lp989
I1
aa(lp990
I1
aI0
aa(lp991
I0
aI1
aI0
aa(lp992
I0
aI0
aI0
aI1
aa(lp993
I1
aI0
aI0
aI1
aI0
aa(lp994
I0
aI0
aI0
aI0
aI1
aI1
aa(lp995
I0
aI0
aI0
aI0
aI1
aI0
aI0
aa(lp996
I0
aI1
aI0
aI0
aI0
aI0
aI0
aI0
aa(lp997
I0
aI0
aI1
aI0
aI0
aI1
aI0
aI0
aI0
aasba(iGenerate
GridGraph
p998
(dp999
g3
g13
sg14
(lp1000
(I13
I86
tp1001
a(I12
I86
tp1002
a(I14
I86
tp1003
a(I12
I87
tp1004
a(I13
I85
tp1005
a(I11
I87
tp1006
a(I11
I86
tp1007
a(I10
I87
tp1008
a(I11
I88
tp1009
a(I12
I88
tp1010
asg26
I10
sg27
(lp1011
(lp1012
a(lp1013
I1
aa(lp1014
I1
aI0
aa(lp1015
I0
aI1
aI0
aa(lp1016
I1
aI0
aI0
aI0
aa(lp1017
I0
aI0
aI0
aI0
aI0
aa(lp1018
I0
aI1
aI0
aI0
aI0
aI1
aa(lp1019
I0
aI0
aI0
aI0
aI0
aI1
aI0
aa(lp1020
I0
aI0
aI0
aI0
aI0
aI1
aI0
aI0
aa(lp1021
I0
aI0
aI0
aI0
aI0
aI0
aI0
aI0
aI1
aasg39
Nsg40
F1.0
sg41
(lp1022
(lp1023
a(lp1024
I1
aa(lp1025
I1
aI0
aa(lp1026
I0
aI1
aI0
aa(lp1027
I1
aI0
aI0
aI0
aa(lp1028
I0
aI0
aI0
aI1
aI0
aa(lp1029
I0
aI1
aI0
aI0
aI0
aI1
aa(lp1030
I0
aI0
aI0
aI0
aI0
aI1
aI0
aa(lp1031
I0
aI0
aI0
aI0
aI0
aI1
aI0
aI0
aa(lp1032
I0
aI0
aI0
aI1
aI0
aI0
aI0
aI0
aI1
aasba(iGenerate
GridGraph
p1033
(dp1034
g3
g13
sg14
(lp1035
(I56
I21
tp1036
a(I56
I22
tp1037
a(I55
I21
tp1038
a(I57
I21
tp1039
a(I54
I21
tp1040
a(I55
I22
tp1041
a(I53
I21
tp1042
a(I55
I20
tp1043
a(I57
I22
tp1044
a(I55
I19
tp1045
asg26
I10
sg27
(lp1046
(lp1047
a(lp1048
I1
aa(lp1049
I1
aI0
aa(lp1050
I1
aI0
aI0
aa(lp1051
I0
aI0
aI1
aI0
aa(lp1052
I0
aI0
aI1
aI0
aI0
aa(lp1053
I0
aI0
aI0
aI0
aI1
aI0
aa(lp1054
I0
aI0
aI1
aI0
aI0
aI0
aI0
aa(lp1055
I0
aI1
aI0
aI0
aI0
aI0
aI0
aI0
aa(lp1056
I0
aI0
aI0
aI0
aI0
aI0
aI0
aI1
aI0
aasg39
Nsg40
F1.0
sg41
(lp1057
(lp1058
a(lp1059
I1
aa(lp1060
I1
aI0
aa(lp1061
I1
aI0
aI0
aa(lp1062
I0
aI0
aI1
aI0
aa(lp1063
I0
aI1
aI1
aI0
aI0
aa(lp1064
I0
aI0
aI0
aI0
aI1
aI0
aa(lp1065
I0
aI0
aI1
aI0
aI0
aI0
aI0
aa(lp1066
I0
aI1
aI0
aI1
aI0
aI0
aI0
aI0
aa(lp1067
I0
aI0
aI0
aI0
aI0
aI0
aI0
aI1
aI0
aasba(iGenerate
GridGraph
p1068
(dp1069
g3
g13
sg14
(lp1070
(I2
I46
tp1071
a(I1
I46
tp1072
a(I1
I47
tp1073
a(I3
I46
tp1074
a(I0
I46
tp1075
a(I3
I45
tp1076
a(I0
I47
tp1077
a(I1
I48
tp1078
a(I3
I47
tp1079
a(I3
I48
tp1080
asg26
I10
sg27
(lp1081
(lp1082
a(lp1083
I1
aa(lp1084
I0
aI1
aa(lp1085
I1
aI0
aI0
aa(lp1086
I0
aI1
aI0
aI0
aa(lp1087
I0
aI0
aI0
aI1
aI0
aa(lp1088
I0
aI0
aI0
aI0
aI1
aI0
aa(lp1089
I0
aI0
aI1
aI0
aI0
aI0
aI0
aa(lp1090
I0
aI0
aI0
aI1
aI0
aI0
aI0
aI0
aa(lp1091
I0
aI0
aI0
aI0
aI0
aI0
aI0
aI0
aI1
aasg39
Nsg40
F1.0
sg41
(lp1092
(lp1093
a(lp1094
I1
aa(lp1095
I0
aI1
aa(lp1096
I1
aI0
aI0
aa(lp1097
I0
aI1
aI0
aI0
aa(lp1098
I0
aI0
aI0
aI1
aI0
aa(lp1099
I0
aI0
aI1
aI0
aI1
aI0
aa(lp1100
I0
aI0
aI1
aI0
aI0
aI0
aI0
aa(lp1101
I0
aI0
aI0
aI1
aI0
aI0
aI0
aI0
aa(lp1102
I0
aI0
aI0
aI0
aI0
aI0
aI0
aI0
aI1
aasba(iGenerate
GridGraph
p1103
(dp1104
g3
g13
sg14
(lp1105
(I48
I16
tp1106
a(I48
I17
tp1107
a(I49
I16
tp1108
a(I48
I15
tp1109
a(I47
I17
tp1110
a(I47
I16
tp1111
a(I48
I18
tp1112
a(I49
I17
tp1113
a(I48
I19
tp1114
a(I46
I16
tp1115
asg26
I10
sg27
(lp1116
(lp1117
a(lp1118
I1
aa(lp1119
I1
aI0
aa(lp1120
I1
aI0
aI0
aa(lp1121
I0
aI0
aI0
aI0
aa(lp1122
I1
aI0
aI0
aI0
aI1
aa(lp1123
I0
aI1
aI0
aI0
aI0
aI0
aa(lp1124
I0
aI0
aI1
aI0
aI0
aI0
aI0
aa(lp1125
I0
aI0
aI0
aI0
aI0
aI0
aI1
aI0
aa(lp1126
I0
aI0
aI0
aI0
aI0
aI1
aI0
aI0
aI0
aasg39
Nsg40
F1.0
sg41
(lp1127
(lp1128
a(lp1129
I1
aa(lp1130
I1
aI0
aa(lp1131
I1
aI0
aI0
aa(lp1132
I0
aI1
aI0
aI0
aa(lp1133
I1
aI0
aI0
aI0
aI1
aa(lp1134
I0
aI1
aI0
aI0
aI0
aI0
aa(lp1135
I0
aI1
aI1
aI0
aI0
aI0
aI0
aa(lp1136
I0
aI0
aI0
aI0
aI0
aI0
aI1
aI0
aa(lp1137
I0
aI0
aI0
aI0
aI0
aI1
aI0
aI0
aI0
aasba(iGenerate
GridGraph
p1138
(dp1139
g3
g13
sg14
(lp1140
(I63
I50
tp1141
a(I63
I49
tp1142
a(I62
I50
tp1143
a(I62
I49
tp1144
a(I61
I49
tp1145
a(I61
I48
tp1146
a(I64
I49
tp1147
a(I62
I48
tp1148
a(I61
I47
tp1149
a(I60
I48
tp1150
asg26
I10
sg27
(lp1151
(lp1152
a(lp1153
I1
aa(lp1154
I1
aI0
aa(lp1155
I0
aI1
aI0
aa(lp1156
I0
aI0
aI0
aI1
aa(lp1157
I0
aI0
aI0
aI0
aI0
aa(lp1158
I0
aI1
aI0
aI0
aI0
aI0
aa(lp1159
I0
aI0
aI0
aI1
aI0
aI1
aI0
aa(lp1160
I0
aI0
aI0
aI0
aI0
aI1
aI0
aI0
aa(lp1161
I0
aI0
aI0
aI0
aI0
aI1
aI0
aI0
aI0
aasg39
Nsg40
F1.0
sg41
(lp1162
(lp1163
a(lp1164
I1
aa(lp1165
I1
aI0
aa(lp1166
I0
aI1
aI1
aa(lp1167
I0
aI0
aI0
aI1
aa(lp1168
I0
aI0
aI0
aI0
aI1
aa(lp1169
I0
aI1
aI0
aI0
aI0
aI0
aa(lp1170
I0
aI0
aI0
aI1
aI0
aI1
aI0
aa(lp1171
I0
aI0
aI0
aI0
aI0
aI1
aI0
aI0
aa(lp1172
I0
aI0
aI0
aI0
aI0
aI1
aI0
aI0
aI0
aasba(iGenerate
GridGraph
p1173
(dp1174
g3
g13
sg14
(lp1175
(I5
I99
tp1176
a(I4
I99
tp1177
a(I3
I99
tp1178
a(I4
I98
tp1179
a(I3
I98
tp1180
a(I2
I99
tp1181
a(I3
I97
tp1182
a(I5
I98
tp1183
a(I2
I97
tp1184
a(I3
I96
tp1185
asg26
I10
sg27
(lp1186
(lp1187
a(lp1188
I1
aa(lp1189
I0
aI1
aa(lp1190
I0
aI0
aI0
aa(lp1191
I0
aI0
aI0
aI1
aa(lp1192
I0
aI0
aI1
aI0
aI0
aa(lp1193
I0
aI0
aI0
aI0
aI1
aI0
aa(lp1194
I1
aI0
aI0
aI1
aI0
aI0
aI0
aa(lp1195
I0
aI0
aI0
aI0
aI0
aI0
aI1
aI0
aa(lp1196
I0
aI0
aI0
aI0
aI0
aI0
aI1
aI0
aI0
aasg39
Nsg40
F1.0
sg41
(lp1197
(lp1198
a(lp1199
I1
aa(lp1200
I0
aI1
aa(lp1201
I0
aI1
aI0
aa(lp1202
I0
aI0
aI1
aI1
aa(lp1203
I0
aI0
aI1
aI0
aI0
aa(lp1204
I0
aI0
aI0
aI0
aI1
aI0
aa(lp1205
I1
aI0
aI0
aI1
aI0
aI0
aI0
aa(lp1206
I0
aI0
aI0
aI0
aI0
aI0
aI1
aI0
aa(lp1207
I0
aI0
aI0
aI0
aI0
aI0
aI1
aI0
aI0
aasba(iGenerate
GridGraph
p1208
(dp1209
g3
g13
sg14
(lp1210
(I7
I6
tp1211
a(I6
I6
tp1212
a(I6
I5
tp1213
a(I6
I7
tp1214
a(I7
I5
tp1215
a(I8
I6
tp1216
a(I8
I5
tp1217
a(I9
I5
tp1218
a(I7
I7
tp1219
a(I8
I4
tp1220
asg26
I10
sg27
(lp1221
(lp1222
a(lp1223
I1
aa(lp1224
I0
aI0
aa(lp1225
I0
aI0
aI0
aa(lp1226
I1
aI0
aI1
aI0
aa(lp1227
I1
aI0
aI0
aI0
aI0
aa(lp1228
I0
aI0
aI0
aI0
aI1
aI0
aa(lp1229
I0
aI0
aI0
aI0
aI0
aI0
aI1
aa(lp1230
I1
aI0
aI0
aI1
aI0
aI0
aI0
aI0
aa(lp1231
I0
aI0
aI0
aI0
aI0
aI0
aI1
aI0
aI0
aasg39
Nsg40
F1.0
sg41
(lp1232
(lp1233
a(lp1234
I1
aa(lp1235
I0
aI1
aa(lp1236
I0
aI1
aI0
aa(lp1237
I1
aI0
aI1
aI0
aa(lp1238
I1
aI0
aI0
aI0
aI0
aa(lp1239
I0
aI0
aI0
aI0
aI1
aI1
aa(lp1240
I0
aI0
aI0
aI0
aI0
aI0
aI1
aa(lp1241
I1
aI0
aI0
aI1
aI0
aI0
aI0
aI0
aa(lp1242
I0
aI0
aI0
aI0
aI0
aI0
aI1
aI0
aI0
aasba(iGenerate
GridGraph
p1243
(dp1244
g3
g13
sg14
(lp1245
(I1
I83
tp1246
a(I1
I82
tp1247
a(I2
I83
tp1248
a(I0
I82
tp1249
a(I1
I84
tp1250
a(I0
I83
tp1251
a(I1
I81
tp1252
a(I2
I82
tp1253
a(I2
I81
tp1254
a(I3
I81
tp1255
asg26
I10
sg27
(lp1256
(lp1257
a(lp1258
I1
aa(lp1259
I1
aI0
aa(lp1260
I0
aI1
aI0
aa(lp1261
I1
aI0
aI0
aI0
aa(lp1262
I1
aI0
aI0
aI0
aI0
aa(lp1263
I0
aI1
aI0
aI0
aI0
aI0
aa(lp1264
I0
aI1
aI0
aI0
aI0
aI0
aI0
aa(lp1265
I0
aI0
aI0
aI0
aI0
aI0
aI0
aI1
aa(lp1266
I0
aI0
aI0
aI0
aI0
aI0
aI0
aI0
aI1
aasg39
Nsg40
F1.0
sg41
(lp1267
(lp1268
a(lp1269
I1
aa(lp1270
I1
aI0
aa(lp1271
I0
aI1
aI0
aa(lp1272
I1
aI0
aI0
aI0
aa(lp1273
I1
aI0
aI0
aI1
aI0
aa(lp1274
I0
aI1
aI0
aI0
aI0
aI0
aa(lp1275
I0
aI1
aI1
aI0
aI0
aI0
aI0
aa(lp1276
I0
aI0
aI0
aI0
aI0
aI0
aI1
aI1
aa(lp1277
I0
aI0
aI0
aI0
aI0
aI0
aI0
aI0
aI1
aasba(iGenerate
GridGraph
p1278
(dp1279
g3
g13
sg14
(lp1280
(I60
I74
tp1281
a(I59
I74
tp1282
a(I60
I73
tp1283
a(I58
I74
tp1284
a(I61
I74
tp1285
a(I58
I75
tp1286
a(I58
I76
tp1287
a(I60
I72
tp1288
a(I59
I76
tp1289
a(I58
I73
tp1290
asg26
I10
sg27
(lp1291
(lp1292
a(lp1293
I1
aa(lp1294
I1
aI0
aa(lp1295
I0
aI1
aI0
aa(lp1296
I1
aI0
aI0
aI0
aa(lp1297
I0
aI0
aI0
aI1
aI0
aa(lp1298
I0
aI0
aI0
aI0
aI0
aI1
aa(lp1299
I0
aI0
aI1
aI0
aI0
aI0
aI0
aa(lp1300
I0
aI0
aI0
aI0
aI0
aI0
aI1
aI0
aa(lp1301
I0
aI0
aI0
aI1
aI0
aI0
aI0
aI0
aI0
aasg39
Nsg40
F1.0
sg41
(lp1302
(lp1303
a(lp1304
I1
aa(lp1305
I1
aI0
aa(lp1306
I0
aI1
aI0
aa(lp1307
I1
aI0
aI0
aI0
aa(lp1308
I0
aI0
aI0
aI1
aI0
aa(lp1309
I0
aI0
aI0
aI0
aI0
aI1
aa(lp1310
I0
aI0
aI1
aI0
aI0
aI0
aI0
aa(lp1311
I0
aI0
aI0
aI0
aI0
aI0
aI1
aI0
aa(lp1312
I0
aI0
aI0
aI1
aI0
aI0
aI0
aI0
aI0
aasba(iGenerate
GridGraph
p1313
(dp1314
g3
g13
sg14
(lp1315
(I17
I33
tp1316
a(I17
I32
tp1317
a(I16
I32
tp1318
a(I15
I32
tp1319
a(I16
I33
tp1320
a(I18
I33
tp1321
a(I15
I33
tp1322
a(I15
I31
tp1323
a(I15
I34
tp1324
a(I18
I34
tp1325
asg26
I10
sg27
(lp1326
(lp1327
a(lp1328
I1
aa(lp1329
I0
aI1
aa(lp1330
I0
aI0
aI0
aa(lp1331
I1
aI0
aI0
aI0
aa(lp1332
I1
aI0
aI0
aI0
aI0
aa(lp1333
I0
aI0
aI0
aI1
aI1
aI0
aa(lp1334
I0
aI0
aI0
aI1
aI0
aI0
aI0
aa(lp1335
I0
aI0
aI0
aI0
aI0
aI0
aI1
aI0
aa(lp1336
I0
aI0
aI0
aI0
aI0
aI1
aI0
aI0
aI0
aasg39
Nsg40
F1.0
sg41
(lp1337
(lp1338
a(lp1339
I1
aa(lp1340
I0
aI1
aa(lp1341
I0
aI0
aI1
aa(lp1342
I1
aI0
aI1
aI0
aa(lp1343
I1
aI0
aI0
aI0
aI0
aa(lp1344
I0
aI0
aI0
aI1
aI1
aI0
aa(lp1345
I0
aI0
aI0
aI1
aI0
aI0
aI0
aa(lp1346
I0
aI0
aI0
aI0
aI0
aI0
aI1
aI0
aa(lp1347
I0
aI0
aI0
aI0
aI0
aI1
aI0
aI0
aI0
aasba(iGenerate
GridGraph
p1348
(dp1349
g3
g13
sg14
(lp1350
(I51
I14
tp1351
a(I50
I14
tp1352
a(I51
I15
tp1353
a(I51
I16
tp1354
a(I50
I16
tp1355
a(I51
I17
tp1356
a(I51
I13
tp1357
a(I50
I15
tp1358
a(I50
I13
tp1359
a(I52
I14
tp1360
asg26
I10
sg27
(lp1361
(lp1362
a(lp1363
I1
aa(lp1364
I1
aI0
aa(lp1365
I0
aI0
aI1
aa(lp1366
I0
aI0
aI0
aI1
aa(lp1367
I0
aI0
aI0
aI1
aI0
aa(lp1368
I1
aI0
aI0
aI0
aI0
aI0
aa(lp1369
I0
aI0
aI1
aI0
aI0
aI0
aI0
aa(lp1370
I0
aI1
aI0
aI0
aI0
aI0
aI0
aI0
aa(lp1371
I1
aI0
aI0
aI0
aI0
aI0
aI0
aI0
aI0
aasg39
Nsg40
F1.0
sg41
(lp1372
(lp1373
a(lp1374
I1
aa(lp1375
I1
aI0
aa(lp1376
I0
aI0
aI1
aa(lp1377
I0
aI0
aI0
aI1
aa(lp1378
I0
aI0
aI0
aI1
aI0
aa(lp1379
I1
aI0
aI0
aI0
aI0
aI0
aa(lp1380
I0
aI1
aI1
aI0
aI1
aI0
aI0
aa(lp1381
I0
aI1
aI0
aI0
aI0
aI0
aI1
aI0
aa(lp1382
I1
aI0
aI0
aI0
aI0
aI0
aI0
aI0
aI0
aasba(iGenerate
GridGraph
p1383
(dp1384
g3
g13
sg14
(lp1385
(I1
I16
tp1386
a(I0
I16
tp1387
a(I2
I16
tp1388
a(I2
I15
tp1389
a(I1
I17
tp1390
a(I1
I15
tp1391
a(I3
I15
tp1392
a(I3
I14
tp1393
a(I1
I14
tp1394
a(I4
I15
tp1395
asg26
I10
sg27
(lp1396
(lp1397
a(lp1398
I1
aa(lp1399
I1
aI0
aa(lp1400
I0
aI0
aI0
aa(lp1401
I1
aI0
aI0
aI0
aa(lp1402
I1
aI0
aI0
aI1
aI0
aa(lp1403
I0
aI0
aI0
aI1
aI0
aI0
aa(lp1404
I0
aI0
aI0
aI0
aI0
aI0
aI1
aa(lp1405
I0
aI0
aI0
aI0
aI0
aI1
aI0
aI0
aa(lp1406
I0
aI0
aI0
aI0
aI0
aI0
aI1
aI0
aI0
aasg39
Nsg40
F1.0
sg41
(lp1407
(lp1408
a(lp1409
I1
aa(lp1410
I1
aI0
aa(lp1411
I0
aI0
aI1
aa(lp1412
I1
aI0
aI0
aI0
aa(lp1413
I1
aI0
aI0
aI1
aI0
aa(lp1414
I0
aI0
aI0
aI1
aI0
aI0
aa(lp1415
I0
aI0
aI0
aI0
aI0
aI0
aI1
aa(lp1416
I0
aI0
aI0
aI0
aI0
aI1
aI0
aI0
aa(lp1417
I0
aI0
aI0
aI0
aI0
aI0
aI1
aI0
aI0
aasba(iGenerate
GridGraph
p1418
(dp1419
g3
g13
sg14
(lp1420
(I49
I85
tp1421
a(I50
I85
tp1422
a(I50
I84
tp1423
a(I49
I84
tp1424
a(I51
I84
tp1425
a(I50
I83
tp1426
a(I48
I85
tp1427
a(I50
I86
tp1428
a(I48
I84
tp1429
a(I50
I87
tp1430
asg26
I10
sg27
(lp1431
(lp1432
a(lp1433
I1
aa(lp1434
I0
aI1
aa(lp1435
I1
aI0
aI0
aa(lp1436
I0
aI0
aI1
aI0
aa(lp1437
I0
aI0
aI1
aI0
aI0
aa(lp1438
I1
aI0
aI0
aI0
aI0
aI0
aa(lp1439
I0
aI1
aI0
aI0
aI0
aI0
aI0
aa(lp1440
I0
aI0
aI0
aI0
aI0
aI0
aI1
aI0
aa(lp1441
I0
aI0
aI0
aI0
aI0
aI0
aI0
aI1
aI0
aasg39
Nsg40
F1.0
sg41
(lp1442
(lp1443
a(lp1444
I1
aa(lp1445
I0
aI1
aa(lp1446
I1
aI0
aI1
aa(lp1447
I0
aI0
aI1
aI0
aa(lp1448
I0
aI0
aI1
aI0
aI0
aa(lp1449
I1
aI0
aI0
aI0
aI0
aI0
aa(lp1450
I0
aI1
aI0
aI0
aI0
aI0
aI0
aa(lp1451
I0
aI0
aI0
aI1
aI0
aI0
aI1
aI0
aa(lp1452
I0
aI0
aI0
aI0
aI0
aI0
aI0
aI1
aI0
aasba(iGenerate
GridGraph
p1453
(dp1454
g3
g13
sg14
(lp1455
(I45
I69
tp1456
a(I45
I70
tp1457
a(I46
I69
tp1458
a(I46
I68
tp1459
a(I44
I69
tp1460
a(I46
I70
tp1461
a(I46
I71
tp1462
a(I45
I71
tp1463
a(I45
I72
tp1464
a(I47
I71
tp1465
asg26
I10
sg27
(lp1466
(lp1467
a(lp1468
I1
aa(lp1469
I1
aI0
aa(lp1470
I0
aI0
aI1
aa(lp1471
I1
aI0
aI0
aI0
aa(lp1472
I0
aI0
aI1
aI0
aI0
aa(lp1473
I0
aI0
aI0
aI0
aI0
aI1
aa(lp1474
I0
aI1
aI0
aI0
aI0
aI0
aI0
aa(lp1475
I0
aI0
aI0
aI0
aI0
aI0
aI0
aI1
aa(lp1476
I0
aI0
aI0
aI0
aI0
aI0
aI1
aI0
aI0
aasg39
Nsg40
F1.0
sg41
(lp1477
(lp1478
a(lp1479
I1
aa(lp1480
I1
aI0
aa(lp1481
I0
aI0
aI1
aa(lp1482
I1
aI0
aI0
aI0
aa(lp1483
I0
aI1
aI1
aI0
aI0
aa(lp1484
I0
aI0
aI0
aI0
aI0
aI1
aa(lp1485
I0
aI1
aI0
aI0
aI0
aI0
aI1
aa(lp1486
I0
aI0
aI0
aI0
aI0
aI0
aI0
aI1
aa(lp1487
I0
aI0
aI0
aI0
aI0
aI0
aI1
aI0
aI0
aasba(iGenerate
GridGraph
p1488
(dp1489
g3
g13
sg14
(lp1490
(I2
I94
tp1491
a(I3
I94
tp1492
a(I3
I93
tp1493
a(I2
I95
tp1494
a(I1
I95
tp1495
a(I0
I95
tp1496
a(I2
I93
tp1497
a(I2
I92
tp1498
a(I0
I96
tp1499
a(I4
I93
tp1500
asg26
I10
sg27
(lp1501
(lp1502
a(lp1503
I1
aa(lp1504
I0
aI0
aa(lp1505
I1
aI0
aI0
aa(lp1506
I0
aI0
aI0
aI1
aa(lp1507
I0
aI0
aI0
aI0
aI1
aa(lp1508
I1
aI0
aI1
aI0
aI0
aI0
aa(lp1509
I0
aI0
aI0
aI0
aI0
aI0
aI1
aa(lp1510
I0
aI0
aI0
aI0
aI0
aI1
aI0
aI0
aa(lp1511
I0
aI0
aI1
aI0
aI0
aI0
aI0
aI0
aI0
aasg39
Nsg40
F1.0
sg41
(lp1512
(lp1513
a(lp1514
I1
aa(lp1515
I0
aI1
aa(lp1516
I1
aI0
aI0
aa(lp1517
I0
aI0
aI0
aI1
aa(lp1518
I0
aI0
aI0
aI0
aI1
aa(lp1519
I1
aI0
aI1
aI0
aI0
aI0
aa(lp1520
I0
aI0
aI0
aI0
aI0
aI0
aI1
aa(lp1521
I0
aI0
aI0
aI0
aI0
aI1
aI0
aI0
aa(lp1522
I0
aI0
aI1
aI0
aI0
aI0
aI0
aI0
aI0
aasba(iGenerate
GridGraph
p1523
(dp1524
g3
g13
sg14
(lp1525
(I52
I36
tp1526
a(I53
I36
tp1527
a(I52
I37
tp1528
a(I54
I36
tp1529
a(I52
I35
tp1530
a(I54
I37
tp1531
a(I51
I35
tp1532
a(I51
I34
tp1533
a(I53
I35
tp1534
a(I54
I35
tp1535
asg26
I10
sg27
(lp1536
(lp1537
a(lp1538
I1
aa(lp1539
I1
aI0
aa(lp1540
I0
aI1
aI0
aa(lp1541
I1
aI0
aI0
aI0
aa(lp1542
I0
aI0
aI0
aI1
aI0
aa(lp1543
I0
aI0
aI0
aI0
aI1
aI0
aa(lp1544
I0
aI0
aI0
aI0
aI0
aI0
aI1
aa(lp1545
I0
aI0
aI0
aI0
aI1
aI0
aI0
aI0
aa(lp1546
I0
aI0
aI0
aI1
aI0
aI0
aI0
aI0
aI0
aasg39
Nsg40
F1.0
sg41
(lp1547
(lp1548
a(lp1549
I1
aa(lp1550
I1
aI0
aa(lp1551
I0
aI1
aI0
aa(lp1552
I1
aI0
aI0
aI0
aa(lp1553
I0
aI0
aI0
aI1
aI0
aa(lp1554
I0
aI0
aI0
aI0
aI1
aI0
aa(lp1555
I0
aI0
aI0
aI0
aI0
aI0
aI1
aa(lp1556
I0
aI1
aI0
aI0
aI1
aI0
aI0
aI0
aa(lp1557
I0
aI0
aI0
aI1
aI0
aI0
aI0
aI0
aI1
aasba(iGenerate
GridGraph
p1558
(dp1559
g3
g13
sg14
(lp1560
(I93
I69
tp1561
a(I92
I69
tp1562
a(I91
I69
tp1563
a(I94
I69
tp1564
a(I93
I68
tp1565
a(I90
I69
tp1566
a(I91
I70
tp1567
a(I91
I71
tp1568
a(I94
I70
tp1569
a(I95
I70
tp1570
asg26
I10
sg27
(lp1571
(lp1572
a(lp1573
I1
aa(lp1574
I0
aI1
aa(lp1575
I1
aI0
aI0
aa(lp1576
I1
aI0
aI0
aI0
aa(lp1577
I0
aI0
aI1
aI0
aI0
aa(lp1578
I0
aI0
aI1
aI0
aI0
aI0
aa(lp1579
I0
aI0
aI0
aI0
aI0
aI0
aI1
aa(lp1580
I0
aI0
aI0
aI1
aI0
aI0
aI0
aI0
aa(lp1581
I0
aI0
aI0
aI0
aI0
aI0
aI0
aI0
aI1
aasg39
Nsg40
F1.0
sg41
(lp1582
(lp1583
a(lp1584
I1
aa(lp1585
I0
aI1
aa(lp1586
I1
aI0
aI0
aa(lp1587
I1
aI0
aI0
aI0
aa(lp1588
I0
aI0
aI1
aI0
aI0
aa(lp1589
I0
aI0
aI1
aI0
aI0
aI0
aa(lp1590
I0
aI0
aI0
aI0
aI0
aI0
aI1
aa(lp1591
I0
aI0
aI0
aI1
aI0
aI0
aI0
aI0
aa(lp1592
I0
aI0
aI0
aI0
aI0
aI0
aI0
aI0
aI1
aasba(iGenerate
GridGraph
p1593
(dp1594
g3
g13
sg14
(lp1595
(I92
I48
tp1596
a(I91
I48
tp1597
a(I91
I47
tp1598
a(I93
I48
tp1599
a(I91
I49
tp1600
a(I92
I49
tp1601
a(I93
I47
tp1602
a(I93
I46
tp1603
a(I90
I49
tp1604
a(I90
I50
tp1605
asg26
I10
sg27
(lp1606
(lp1607
a(lp1608
I1
aa(lp1609
I0
aI1
aa(lp1610
I1
aI0
aI0
aa(lp1611
I0
aI0
aI0
aI0
aa(lp1612
I1
aI0
aI0
aI0
aI1
aa(lp1613
I0
aI0
aI0
aI1
aI0
aI0
aa(lp1614
I0
aI0
aI0
aI0
aI0
aI0
aI1
aa(lp1615
I0
aI0
aI0
aI0
aI1
aI0
aI0
aI0
aa(lp1616
I0
aI0
aI0
aI0
aI0
aI0
aI0
aI0
aI1
aasg39
Nsg40
F1.0
sg41
(lp1617
(lp1618
a(lp1619
I1
aa(lp1620
I0
aI1
aa(lp1621
I1
aI0
aI0
aa(lp1622
I0
aI1
aI0
aI0
aa(lp1623
I1
aI0
aI0
aI0
aI1
aa(lp1624
I0
aI0
aI0
aI1
aI0
aI0
aa(lp1625
I0
aI0
aI0
aI0
aI0
aI0
aI1
aa(lp1626
I0
aI0
aI0
aI0
aI1
aI0
aI0
aI0
aa(lp1627
I0
aI0
aI0
aI0
aI0
aI0
aI0
aI0
aI1
aasba(iGenerate
GridGraph
p1628
(dp1629
g3
g13
sg14
(lp1630
(I31
I93
tp1631
a(I31
I92
tp1632
a(I32
I93
tp1633
a(I32
I92
tp1634
a(I30
I93
tp1635
a(I31
I91
tp1636
a(I29
I93
tp1637
a(I29
I94
tp1638
a(I29
I95
tp1639
a(I30
I95
tp1640
asg26
I10
sg27
(lp1641
(lp1642
a(lp1643
I1
aa(lp1644
I1
aI0
aa(lp1645
I0
aI0
aI1
aa(lp1646
I1
aI0
aI0
aI0
aa(lp1647
I0
aI1
aI0
aI0
aI0
aa(lp1648
I0
aI0
aI0
aI0
aI1
aI0
aa(lp1649
I0
aI0
aI0
aI0
aI0
aI0
aI1
aa(lp1650
I0
aI0
aI0
aI0
aI0
aI0
aI0
aI1
aa(lp1651
I0
aI0
aI0
aI0
aI0
aI0
aI0
aI0
aI1
aasg39
Nsg40
F1.0
sg41
(lp1652
(lp1653
a(lp1654
I1
aa(lp1655
I1
aI0
aa(lp1656
I0
aI1
aI1
aa(lp1657
I1
aI0
aI0
aI0
aa(lp1658
I0
aI1
aI0
aI0
aI0
aa(lp1659
I0
aI0
aI0
aI0
aI1
aI0
aa(lp1660
I0
aI0
aI0
aI0
aI0
aI0
aI1
aa(lp1661
I0
aI0
aI0
aI0
aI0
aI0
aI0
aI1
aa(lp1662
I0
aI0
aI0
aI0
aI0
aI0
aI0
aI0
aI1
aasba(iGenerate
GridGraph
p1663
(dp1664
g3
g13
sg14
(lp1665
(I62
I76
tp1666
a(I63
I76
tp1667
a(I63
I75
tp1668
a(I64
I76
tp1669
a(I62
I77
tp1670
a(I63
I74
tp1671
a(I61
I76
tp1672
a(I62
I75
tp1673
a(I63
I77
tp1674
a(I63
I78
tp1675
asg26
I10
sg27
(lp1676
(lp1677
a(lp1678
I1
aa(lp1679
I0
aI0
aa(lp1680
I0
aI1
aI0
aa(lp1681
I1
aI0
aI0
aI0
aa(lp1682
I0
aI0
aI1
aI0
aI0
aa(lp1683
I1
aI0
aI0
aI0
aI0
aI0
aa(lp1684
I1
aI0
aI1
aI0
aI0
aI0
aI0
aa(lp1685
I0
aI0
aI0
aI0
aI1
aI0
aI0
aI0
aa(lp1686
I0
aI0
aI0
aI0
aI0
aI0
aI0
aI0
aI1
aasg39
Nsg40
F1.0
sg41
(lp1687
(lp1688
a(lp1689
I1
aa(lp1690
I0
aI1
aa(lp1691
I0
aI1
aI0
aa(lp1692
I1
aI0
aI0
aI0
aa(lp1693
I0
aI0
aI1
aI0
aI0
aa(lp1694
I1
aI0
aI0
aI0
aI0
aI0
aa(lp1695
I1
aI0
aI1
aI0
aI0
aI0
aI0
aa(lp1696
I0
aI1
aI0
aI0
aI1
aI0
aI0
aI0
aa(lp1697
I0
aI0
aI0
aI0
aI0
aI0
aI0
aI0
aI1
aasba(iGenerate
GridGraph
p1698
(dp1699
g3
g13
sg14
(lp1700
(I21
I6
tp1701
a(I22
I6
tp1702
a(I23
I6
tp1703
a(I20
I6
tp1704
a(I22
I7
tp1705
a(I24
I6
tp1706
a(I19
I6
tp1707
a(I24
I5
tp1708
a(I20
I5
tp1709
a(I22
I8
tp1710
asg26
I10
sg27
(lp1711
(lp1712
a(lp1713
I1
aa(lp1714
I0
aI1
aa(lp1715
I1
aI0
aI0
aa(lp1716
I0
aI1
aI0
aI0
aa(lp1717
I0
aI0
aI1
aI0
aI0
aa(lp1718
I0
aI0
aI0
aI1
aI0
aI0
aa(lp1719
I0
aI0
aI0
aI0
aI0
aI1
aI0
aa(lp1720
I0
aI0
aI0
aI1
aI0
aI0
aI0
aI0
aa(lp1721
I0
aI0
aI0
aI0
aI1
aI0
aI0
aI0
aI0
aasg39
Nsg40
F1.0
sg41
(lp1722
(lp1723
a(lp1724
I1
aa(lp1725
I0
aI1
aa(lp1726
I1
aI0
aI0
aa(lp1727
I0
aI1
aI0
aI0
aa(lp1728
I0
aI0
aI1
aI0
aI0
aa(lp1729
I0
aI0
aI0
aI1
aI0
aI0
aa(lp1730
I0
aI0
aI0
aI0
aI0
aI1
aI0
aa(lp1731
I0
aI0
aI0
aI1
aI0
aI0
aI0
aI0
aa(lp1732
I0
aI0
aI0
aI0
aI1
aI0
aI0
aI0
aI0
aasba(iGenerate
GridGraph
p1733
(dp1734
g3
g13
sg14
(lp1735
(I3
I47
tp1736
a(I4
I47
tp1737
a(I5
I47
tp1738
a(I6
I47
tp1739
a(I7
I47
tp1740
a(I6
I48
tp1741
a(I5
I46
tp1742
a(I5
I45
tp1743
a(I7
I46
tp1744
a(I4
I48
tp1745
asg26
I10
sg27
(lp1746
(lp1747
a(lp1748
I1
aa(lp1749
I0
aI1
aa(lp1750
I0
aI0
aI1
aa(lp1751
I0
aI0
aI0
aI1
aa(lp1752
I0
aI0
aI0
aI1
aI0
aa(lp1753
I0
aI0
aI1
aI0
aI0
aI0
aa(lp1754
I0
aI0
aI0
aI0
aI0
aI0
aI1
aa(lp1755
I0
aI0
aI0
aI0
aI1
aI0
aI0
aI0
aa(lp1756
I0
aI1
aI0
aI0
aI0
aI0
aI0
aI0
aI0
aasg39
Nsg40
F1.0
sg41
(lp1757
(lp1758
a(lp1759
I1
aa(lp1760
I0
aI1
aa(lp1761
I0
aI0
aI1
aa(lp1762
I0
aI0
aI0
aI1
aa(lp1763
I0
aI0
aI0
aI1
aI0
aa(lp1764
I0
aI0
aI1
aI0
aI0
aI0
aa(lp1765
I0
aI0
aI0
aI0
aI0
aI0
aI1
aa(lp1766
I0
aI0
aI0
aI0
aI1
aI0
aI0
aI0
aa(lp1767
I0
aI1
aI0
aI0
aI0
aI0
aI0
aI0
aI0
aasba(iGenerate
GridGraph
p1768
(dp1769
g3
g13
sg14
(lp1770
(I30
I42
tp1771
a(I29
I42
tp1772
a(I28
I42
tp1773
a(I27
I42
tp1774
a(I27
I43
tp1775
a(I28
I41
tp1776
a(I31
I42
tp1777
a(I29
I43
tp1778
a(I31
I41
tp1779
a(I32
I41
tp1780
asg26
I10
sg27
(lp1781
(lp1782
a(lp1783
I1
aa(lp1784
I0
aI1
aa(lp1785
I0
aI0
aI1
aa(lp1786
I0
aI0
aI0
aI1
aa(lp1787
I0
aI0
aI1
aI0
aI0
aa(lp1788
I1
aI0
aI0
aI0
aI0
aI0
aa(lp1789
I0
aI1
aI0
aI0
aI0
aI0
aI0
aa(lp1790
I0
aI0
aI0
aI0
aI0
aI0
aI1
aI0
aa(lp1791
I0
aI0
aI0
aI0
aI0
aI0
aI0
aI0
aI1
aasg39
Nsg40
F1.0
sg41
(lp1792
(lp1793
a(lp1794
I1
aa(lp1795
I0
aI1
aa(lp1796
I0
aI0
aI1
aa(lp1797
I0
aI0
aI0
aI1
aa(lp1798
I0
aI0
aI1
aI0
aI0
aa(lp1799
I1
aI0
aI0
aI0
aI0
aI0
aa(lp1800
I0
aI1
aI0
aI0
aI0
aI0
aI0
aa(lp1801
I0
aI0
aI0
aI0
aI0
aI0
aI1
aI0
aa(lp1802
I0
aI0
aI0
aI0
aI0
aI0
aI0
aI0
aI1
aasba(iGenerate
GridGraph
p1803
(dp1804
g3
g13
sg14
(lp1805
(I86
I37
tp1806
a(I86
I38
tp1807
a(I87
I37
tp1808
a(I85
I37
tp1809
a(I86
I39
tp1810
a(I88
I37
tp1811
a(I88
I36
tp1812
a(I86
I36
tp1813
a(I89
I37
tp1814
a(I86
I35
tp1815
asg26
I10
sg27
(lp1816
(lp1817
a(lp1818
I1
aa(lp1819
I1
aI0
aa(lp1820
I1
aI0
aI0
aa(lp1821
I0
aI1
aI0
aI0
aa(lp1822
I0
aI0
aI1
aI0
aI0
aa(lp1823
I0
aI0
aI0
aI0
aI0
aI1
aa(lp1824
I1
aI0
aI0
aI0
aI0
aI0
aI0
aa(lp1825
I0
aI0
aI0
aI0
aI0
aI1
aI0
aI0
aa(lp1826
I0
aI0
aI0
aI0
aI0
aI0
aI0
aI1
aI0
aasg39
Nsg40
F1.0
sg41
(lp1827
(lp1828
a(lp1829
I1
aa(lp1830
I1
aI0
aa(lp1831
I1
aI0
aI0
aa(lp1832
I0
aI1
aI0
aI0
aa(lp1833
I0
aI0
aI1
aI0
aI0
aa(lp1834
I0
aI0
aI0
aI0
aI0
aI1
aa(lp1835
I1
aI0
aI0
aI0
aI0
aI0
aI0
aa(lp1836
I0
aI0
aI0
aI0
aI0
aI1
aI0
aI0
aa(lp1837
I0
aI0
aI0
aI0
aI0
aI0
aI0
aI1
aI0
aasba(iGenerate
GridGraph
p1838
(dp1839
g3
g13
sg14
(lp1840
(I69
I11
tp1841
a(I69
I10
tp1842
a(I68
I10
tp1843
a(I67
I10
tp1844
a(I69
I12
tp1845
a(I70
I12
tp1846
a(I69
I9
tp1847
a(I67
I11
tp1848
a(I68
I12
tp1849
a(I68
I9
tp1850
asg26
I10
sg27
(lp1851
(lp1852
a(lp1853
I1
aa(lp1854
I0
aI1
aa(lp1855
I0
aI0
aI1
aa(lp1856
I1
aI0
aI0
aI0
aa(lp1857
I0
aI0
aI0
aI0
aI1
aa(lp1858
I0
aI1
aI0
aI0
aI0
aI0
aa(lp1859
I0
aI0
aI0
aI1
aI0
aI0
aI0
aa(lp1860
I0
aI0
aI0
aI0
aI1
aI0
aI0
aI0
aa(lp1861
I0
aI0
aI0
aI0
aI0
aI0
aI1
aI0
aI0
aasg39
Nsg40
F1.0
sg41
(lp1862
(lp1863
a(lp1864
I1
aa(lp1865
I0
aI1
aa(lp1866
I0
aI0
aI1
aa(lp1867
I1
aI0
aI0
aI0
aa(lp1868
I0
aI0
aI0
aI0
aI1
aa(lp1869
I0
aI1
aI0
aI0
aI0
aI0
aa(lp1870
I0
aI0
aI0
aI1
aI0
aI0
aI0
aa(lp1871
I0
aI0
aI0
aI0
aI1
aI0
aI0
aI0
aa(lp1872
I0
aI0
aI1
aI0
aI0
aI0
aI1
aI0
aI0
aasba(iGenerate
GridGraph
p1873
(dp1874
g3
g13
sg14
(lp1875
(I78
I100
tp1876
a(I78
I99
tp1877
a(I78
I98
tp1878
a(I78
I97
tp1879
a(I77
I97
tp1880
a(I79
I98
tp1881
a(I79
I99
tp1882
a(I77
I98
tp1883
a(I78
I96
tp1884
a(I79
I97
tp1885
asg26
I10
sg27
(lp1886
(lp1887
a(lp1888
I1
aa(lp1889
I0
aI1
aa(lp1890
I0
aI0
aI1
aa(lp1891
I0
aI0
aI0
aI1
aa(lp1892
I0
aI0
aI1
aI0
aI0
aa(lp1893
I0
aI0
aI0
aI0
aI0
aI1
aa(lp1894
I0
aI0
aI0
aI0
aI1
aI0
aI0
aa(lp1895
I0
aI0
aI0
aI1
aI0
aI0
aI0
aI0
aa(lp1896
I0
aI0
aI0
aI0
aI0
aI1
aI0
aI0
aI0
aasg39
Nsg40
F1.0
sg41
(lp1897
(lp1898
a(lp1899
I1
aa(lp1900
I0
aI1
aa(lp1901
I0
aI0
aI1
aa(lp1902
I0
aI0
aI0
aI1
aa(lp1903
I0
aI0
aI1
aI0
aI0
aa(lp1904
I0
aI1
aI0
aI0
aI0
aI1
aa(lp1905
I0
aI0
aI1
aI0
aI1
aI0
aI0
aa(lp1906
I0
aI0
aI0
aI1
aI0
aI0
aI0
aI0
aa(lp1907
I0
aI0
aI0
aI1
aI0
aI1
aI0
aI0
aI0
aasba(iGenerate
GridGraph
p1908
(dp1909
g3
g13
sg14
(lp1910
(I66
I19
tp1911
a(I66
I20
tp1912
a(I66
I21
tp1913
a(I67
I19
tp1914
a(I65
I21
tp1915
a(I64
I21
tp1916
a(I65
I19
tp1917
a(I64
I19
tp1918
a(I65
I18
tp1919
a(I63
I21
tp1920
asg26
I10
sg27
(lp1921
(lp1922
a(lp1923
I1
aa(lp1924
I0
aI1
aa(lp1925
I1
aI0
aI0
aa(lp1926
I0
aI0
aI1
aI0
aa(lp1927
I0
aI0
aI0
aI0
aI1
aa(lp1928
I1
aI0
aI0
aI0
aI0
aI0
aa(lp1929
I0
aI0
aI0
aI0
aI0
aI0
aI1
aa(lp1930
I0
aI0
aI0
aI0
aI0
aI0
aI1
aI0
aa(lp1931
I0
aI0
aI0
aI0
aI0
aI1
aI0
aI0
aI0
aasg39
Nsg40
F1.0
sg41
(lp1932
(lp1933
a(lp1934
I1
aa(lp1935
I0
aI1
aa(lp1936
I1
aI0
aI0
aa(lp1937
I0
aI0
aI1
aI0
aa(lp1938
I0
aI0
aI0
aI0
aI1
aa(lp1939
I1
aI0
aI0
aI0
aI0
aI0
aa(lp1940
I0
aI0
aI0
aI0
aI0
aI0
aI1
aa(lp1941
I0
aI0
aI0
aI0
aI0
aI0
aI1
aI0
aa(lp1942
I0
aI0
aI0
aI0
aI0
aI1
aI0
aI0
aI0
aasba(iGenerate
GridGraph
p1943
(dp1944
g3
g13
sg14
(lp1945
(I10
I63
tp1946
a(I9
I63
tp1947
a(I9
I64
tp1948
a(I10
I62
tp1949
a(I11
I62
tp1950
a(I11
I61
tp1951
a(I11
I60
tp1952
a(I10
I61
tp1953
a(I9
I62
tp1954
a(I11
I59
tp1955
asg26
I10
sg27
(lp1956
(lp1957
a(lp1958
I1
aa(lp1959
I0
aI1
aa(lp1960
I1
aI0
aI0
aa(lp1961
I0
aI0
aI0
aI1
aa(lp1962
I0
aI0
aI0
aI0
aI1
aa(lp1963
I0
aI0
aI0
aI0
aI0
aI1
aa(lp1964
I0
aI0
aI0
aI1
aI0
aI0
aI0
aa(lp1965
I0
aI1
aI0
aI0
aI0
aI0
aI0
aI0
aa(lp1966
I0
aI0
aI0
aI0
aI0
aI0
aI1
aI0
aI0
aasg39
Nsg40
F1.0
sg41
(lp1967
(lp1968
a(lp1969
I1
aa(lp1970
I0
aI1
aa(lp1971
I1
aI0
aI0
aa(lp1972
I0
aI0
aI0
aI1
aa(lp1973
I0
aI0
aI0
aI0
aI1
aa(lp1974
I0
aI0
aI0
aI0
aI0
aI1
aa(lp1975
I0
aI0
aI0
aI1
aI0
aI1
aI0
aa(lp1976
I0
aI1
aI0
aI1
aI0
aI0
aI0
aI0
aa(lp1977
I0
aI0
aI0
aI0
aI0
aI0
aI1
aI0
aI0
aasba(iGenerate
GridGraph
p1978
(dp1979
g3
g13
sg14
(lp1980
(I76
I29
tp1981
a(I77
I29
tp1982
a(I78
I29
tp1983
a(I79
I29
tp1984
a(I77
I30
tp1985
a(I77
I31
tp1986
a(I79
I30
tp1987
a(I78
I30
tp1988
a(I78
I31
tp1989
a(I78
I32
tp1990
asg26
I10
sg27
(lp1991
(lp1992
a(lp1993
I1
aa(lp1994
I0
aI1
aa(lp1995
I0
aI0
aI1
aa(lp1996
I0
aI1
aI0
aI0
aa(lp1997
I0
aI0
aI0
aI0
aI1
aa(lp1998
I0
aI0
aI0
aI0
aI0
aI0
aa(lp1999
I0
aI0
aI1
aI0
aI0
aI0
aI1
aa(lp2000
I0
aI0
aI0
aI0
aI0
aI1
aI0
aI0
aa(lp2001
I0
aI0
aI0
aI0
aI0
aI0
aI0
aI0
aI1
aasg39
Nsg40
F1.0
sg41
(lp2002
(lp2003
a(lp2004
I1
aa(lp2005
I0
aI1
aa(lp2006
I0
aI0
aI1
aa(lp2007
I0
aI1
aI0
aI0
aa(lp2008
I0
aI0
aI0
aI0
aI1
aa(lp2009
I0
aI0
aI0
aI1
aI0
aI0
aa(lp2010
I0
aI0
aI1
aI0
aI1
aI0
aI1
aa(lp2011
I0
aI0
aI0
aI0
aI0
aI1
aI0
aI1
aa(lp2012
I0
aI0
aI0
aI0
aI0
aI0
aI0
aI0
aI1
aasba(iGenerate
GridGraph
p2013
(dp2014
g3
g13
sg14
(lp2015
(I13
I44
tp2016
a(I14
I44
tp2017
a(I15
I44
tp2018
a(I13
I45
tp2019
a(I14
I43
tp2020
a(I15
I45
tp2021
a(I15
I43
tp2022
a(I15
I46
tp2023
a(I14
I46
tp2024
a(I15
I42
tp2025
asg26
I10
sg27
(lp2026
(lp2027
a(lp2028
I1
aa(lp2029
I0
aI1
aa(lp2030
I1
aI0
aI0
aa(lp2031
I0
aI1
aI0
aI0
aa(lp2032
I0
aI0
aI1
aI0
aI0
aa(lp2033
I0
aI0
aI0
aI0
aI1
aI0
aa(lp2034
I0
aI0
aI0
aI0
aI0
aI1
aI0
aa(lp2035
I0
aI0
aI0
aI0
aI0
aI0
aI0
aI1
aa(lp2036
I0
aI0
aI0
aI0
aI0
aI0
aI1
aI0
aI0
aasg39
Nsg40
F1.0
sg41
(lp2037
(lp2038
a(lp2039
I1
aa(lp2040
I0
aI1
aa(lp2041
I1
aI0
aI0
aa(lp2042
I0
aI1
aI0
aI0
aa(lp2043
I0
aI0
aI1
aI0
aI0
aa(lp2044
I0
aI0
aI1
aI0
aI1
aI0
aa(lp2045
I0
aI0
aI0
aI0
aI0
aI1
aI0
aa(lp2046
I0
aI0
aI0
aI0
aI0
aI0
aI0
aI1
aa(lp2047
I0
aI0
aI0
aI0
aI0
aI0
aI1
aI0
aI0
aasba(iGenerate
GridGraph
p2048
(dp2049
g3
g13
sg14
(lp2050
(I3
I93
tp2051
a(I4
I93
tp2052
a(I3
I92
tp2053
a(I2
I93
tp2054
a(I4
I92
tp2055
a(I4
I94
tp2056
a(I5
I93
tp2057
a(I1
I93
tp2058
a(I0
I93
tp2059
a(I4
I91
tp2060
asg26
I10
sg27
(lp2061
(lp2062
a(lp2063
I1
aa(lp2064
I1
aI0
aa(lp2065
I1
aI0
aI0
aa(lp2066
I0
aI1
aI0
aI0
aa(lp2067
I0
aI1
aI0
aI0
aI0
aa(lp2068
I0
aI1
aI0
aI0
aI0
aI0
aa(lp2069
I0
aI0
aI0
aI1
aI0
aI0
aI0
aa(lp2070
I0
aI0
aI0
aI0
aI0
aI0
aI0
aI1
aa(lp2071
I0
aI0
aI0
aI0
aI1
aI0
aI0
aI0
aI0
aasg39
Nsg40
F1.0
sg41
(lp2072
(lp2073
a(lp2074
I1
aa(lp2075
I1
aI0
aa(lp2076
I1
aI0
aI0
aa(lp2077
I0
aI1
aI1
aI0
aa(lp2078
I0
aI1
aI0
aI0
aI0
aa(lp2079
I0
aI1
aI0
aI0
aI0
aI0
aa(lp2080
I0
aI0
aI0
aI1
aI0
aI0
aI0
aa(lp2081
I0
aI0
aI0
aI0
aI0
aI0
aI0
aI1
aa(lp2082
I0
aI0
aI0
aI0
aI1
aI0
aI0
aI0
aI0
aasba(iGenerate
GridGraph
p2083
(dp2084
g3
g13
sg14
(lp2085
(I47
I24
tp2086
a(I47
I25
tp2087
a(I48
I24
tp2088
a(I48
I23
tp2089
a(I48
I25
tp2090
a(I49
I24
tp2091
a(I49
I25
tp2092
a(I49
I26
tp2093
a(I49
I23
tp2094
a(I47
I26
tp2095
asg26
I10
sg27
(lp2096
(lp2097
a(lp2098
I1
aa(lp2099
I1
aI0
aa(lp2100
I0
aI0
aI1
aa(lp2101
I0
aI1
aI0
aI0
aa(lp2102
I0
aI0
aI0
aI0
aI0
aa(lp2103
I0
aI0
aI0
aI0
aI0
aI1
aa(lp2104
I0
aI0
aI0
aI0
aI0
aI0
aI1
aa(lp2105
I0
aI0
aI0
aI1
aI0
aI1
aI0
aI0
aa(lp2106
I0
aI1
aI0
aI0
aI0
aI0
aI0
aI0
aI0
aasg39
Nsg40
F1.0
sg41
(lp2107
(lp2108
a(lp2109
I1
aa(lp2110
I1
aI0
aa(lp2111
I0
aI0
aI1
aa(lp2112
I0
aI1
aI1
aI0
aa(lp2113
I0
aI0
aI1
aI0
aI0
aa(lp2114
I0
aI0
aI0
aI0
aI1
aI1
aa(lp2115
I0
aI0
aI0
aI0
aI0
aI0
aI1
aa(lp2116
I0
aI0
aI0
aI1
aI0
aI1
aI0
aI0
aa(lp2117
I0
aI1
aI0
aI0
aI0
aI0
aI0
aI0
aI0
aasba(iGenerate
GridGraph
p2118
(dp2119
g3
g13
sg14
(lp2120
(I80
I65
tp2121
a(I80
I66
tp2122
a(I80
I64
tp2123
a(I81
I64
tp2124
a(I80
I63
tp2125
a(I79
I63
tp2126
a(I80
I67
tp2127
a(I81
I65
tp2128
a(I80
I68
tp2129
a(I80
I62
tp2130
asg26
I10
sg27
(lp2131
(lp2132
a(lp2133
I1
aa(lp2134
I1
aI0
aa(lp2135
I0
aI0
aI1
aa(lp2136
I0
aI0
aI1
aI0
aa(lp2137
I0
aI0
aI0
aI0
aI1
aa(lp2138
I0
aI1
aI0
aI0
aI0
aI0
aa(lp2139
I1
aI0
aI0
aI0
aI0
aI0
aI0
aa(lp2140
I0
aI0
aI0
aI0
aI0
aI0
aI1
aI0
aa(lp2141
I0
aI0
aI0
aI0
aI1
aI0
aI0
aI0
aI0
aasg39
Nsg40
F1.0
sg41
(lp2142
(lp2143
a(lp2144
I1
aa(lp2145
I1
aI0
aa(lp2146
I0
aI0
aI1
aa(lp2147
I0
aI0
aI1
aI0
aa(lp2148
I0
aI0
aI0
aI0
aI1
aa(lp2149
I0
aI1
aI0
aI0
aI0
aI0
aa(lp2150
I1
aI0
aI0
aI1
aI0
aI0
aI0
aa(lp2151
I0
aI0
aI0
aI0
aI0
aI0
aI1
aI0
aa(lp2152
I0
aI0
aI0
aI0
aI1
aI0
aI0
aI0
aI0
aasba(iGenerate
GridGraph
p2153
(dp2154
g3
g13
sg14
(lp2155
(I80
I29
tp2156
a(I81
I29
tp2157
a(I79
I29
tp2158
a(I79
I30
tp2159
a(I78
I30
tp2160
a(I78
I29
tp2161
a(I81
I28
tp2162
a(I80
I30
tp2163
a(I81
I30
tp2164
a(I82
I29
tp2165
asg26
I10
sg27
(lp2166
(lp2167
a(lp2168
I1
aa(lp2169
I1
aI0
aa(lp2170
I0
aI0
aI0
aa(lp2171
I0
aI0
aI0
aI1
aa(lp2172
I0
aI0
aI0
aI0
aI1
aa(lp2173
I0
aI1
aI0
aI0
aI0
aI0
aa(lp2174
I1
aI0
aI0
aI1
aI0
aI0
aI0
aa(lp2175
I0
aI1
aI0
aI0
aI0
aI0
aI0
aI0
aa(lp2176
I0
aI1
aI0
aI0
aI0
aI0
aI0
aI0
aI0
aasg39
Nsg40
F1.0
sg41
(lp2177
(lp2178
a(lp2179
I1
aa(lp2180
I1
aI0
aa(lp2181
I0
aI0
aI1
aa(lp2182
I0
aI0
aI0
aI1
aa(lp2183
I0
aI0
aI1
aI0
aI1
aa(lp2184
I0
aI1
aI0
aI0
aI0
aI0
aa(lp2185
I1
aI0
aI0
aI1
aI0
aI0
aI0
aa(lp2186
I0
aI1
aI0
aI0
aI0
aI0
aI0
aI1
aa(lp2187
I0
aI1
aI0
aI0
aI0
aI0
aI0
aI0
aI0
aasba(iGenerate
GridGraph
p2188
(dp2189
g3
g13
sg14
(lp2190
(I75
I27
tp2191
a(I76
I27
tp2192
a(I76
I26
tp2193
a(I77
I26
tp2194
a(I77
I25
tp2195
a(I75
I26
tp2196
a(I75
I25
tp2197
a(I74
I27
tp2198
a(I73
I27
tp2199
a(I77
I24
tp2200
asg26
I10
sg27
(lp2201
(lp2202
a(lp2203
I1
aa(lp2204
I0
aI1
aa(lp2205
I0
aI0
aI1
aa(lp2206
I0
aI0
aI0
aI1
aa(lp2207
I1
aI0
aI0
aI0
aI0
aa(lp2208
I0
aI0
aI0
aI0
aI0
aI1
aa(lp2209
I1
aI0
aI0
aI0
aI0
aI0
aI0
aa(lp2210
I0
aI0
aI0
aI0
aI0
aI0
aI0
aI1
aa(lp2211
I0
aI0
aI0
aI0
aI1
aI0
aI0
aI0
aI0
aasg39
Nsg40
F1.0
sg41
(lp2212
(lp2213
a(lp2214
I1
aa(lp2215
I0
aI1
aa(lp2216
I0
aI0
aI1
aa(lp2217
I0
aI0
aI0
aI1
aa(lp2218
I1
aI0
aI1
aI0
aI0
aa(lp2219
I0
aI0
aI0
aI0
aI0
aI1
aa(lp2220
I1
aI0
aI0
aI0
aI0
aI0
aI0
aa(lp2221
I0
aI0
aI0
aI0
aI0
aI0
aI0
aI1
aa(lp2222
I0
aI0
aI0
aI0
aI1
aI0
aI0
aI0
aI0
aasba(iGenerate
GridGraph
p2223
(dp2224
g3
g13
sg14
(lp2225
(I3
I1
tp2226
a(I3
I0
tp2227
a(I4
I0
tp2228
a(I3
I2
tp2229
a(I4
I1
tp2230
a(I2
I0
tp2231
a(I2
I1
tp2232
a(I1
I1
tp2233
a(I1
I2
tp2234
a(I5
I0
tp2235
asg26
I10
sg27
(lp2236
(lp2237
a(lp2238
I1
aa(lp2239
I0
aI0
aa(lp2240
I1
aI0
aI0
aa(lp2241
I1
aI0
aI1
aI0
aa(lp2242
I0
aI1
aI0
aI0
aI0
aa(lp2243
I1
aI0
aI0
aI0
aI0
aI0
aa(lp2244
I0
aI0
aI0
aI0
aI0
aI0
aI1
aa(lp2245
I0
aI0
aI0
aI0
aI0
aI0
aI0
aI1
aa(lp2246
I0
aI0
aI1
aI0
aI0
aI0
aI0
aI0
aI0
aasg39
Nsg40
F1.0
sg41
(lp2247
(lp2248
a(lp2249
I1
aa(lp2250
I0
aI1
aa(lp2251
I1
aI0
aI0
aa(lp2252
I1
aI0
aI1
aI0
aa(lp2253
I0
aI1
aI0
aI0
aI0
aa(lp2254
I1
aI0
aI0
aI0
aI0
aI1
aa(lp2255
I0
aI0
aI0
aI0
aI0
aI0
aI1
aa(lp2256
I0
aI0
aI0
aI0
aI0
aI0
aI0
aI1
aa(lp2257
I0
aI0
aI1
aI0
aI0
aI0
aI0
aI0
aI0
aasba(iGenerate
GridGraph
p2258
(dp2259
g3
g13
sg14
(lp2260
(I18
I11
tp2261
a(I17
I11
tp2262
a(I17
I12
tp2263
a(I16
I12
tp2264
a(I17
I10
tp2265
a(I16
I11
tp2266
a(I16
I10
tp2267
a(I15
I11
tp2268
a(I18
I10
tp2269
a(I17
I13
tp2270
asg26
I10
sg27
(lp2271
(lp2272
a(lp2273
I1
aa(lp2274
I0
aI0
aa(lp2275
I0
aI0
aI1
aa(lp2276
I0
aI1
aI0
aI0
aa(lp2277
I0
aI1
aI0
aI1
aI0
aa(lp2278
I0
aI0
aI0
aI0
aI1
aI0
aa(lp2279
I0
aI0
aI0
aI0
aI0
aI1
aI0
aa(lp2280
I1
aI0
aI0
aI0
aI0
aI0
aI0
aI0
aa(lp2281
I0
aI0
aI1
aI0
aI0
aI0
aI0
aI0
aI0
aasg39
Nsg40
F1.0
sg41
(lp2282
(lp2283
a(lp2284
I1
aa(lp2285
I0
aI1
aa(lp2286
I0
aI0
aI1
aa(lp2287
I0
aI1
aI0
aI0
aa(lp2288
I0
aI1
aI0
aI1
aI0
aa(lp2289
I0
aI0
aI0
aI0
aI1
aI1
aa(lp2290
I0
aI0
aI0
aI0
aI0
aI1
aI0
aa(lp2291
I1
aI0
aI0
aI0
aI1
aI0
aI0
aI0
aa(lp2292
I0
aI0
aI1
aI0
aI0
aI0
aI0
aI0
aI0
aasba(iGenerate
GridGraph
p2293
(dp2294
g3
g13
sg14
(lp2295
(I44
I36
tp2296
a(I43
I36
tp2297
a(I44
I35
tp2298
a(I42
I36
tp2299
a(I44
I34
tp2300
a(I43
I37
tp2301
a(I42
I35
tp2302
a(I41
I36
tp2303
a(I43
I38
tp2304
a(I41
I35
tp2305
asg26
I10
sg27
(lp2306
(lp2307
a(lp2308
I1
aa(lp2309
I1
aI0
aa(lp2310
I0
aI1
aI0
aa(lp2311
I0
aI0
aI1
aI0
aa(lp2312
I0
aI1
aI0
aI0
aI0
aa(lp2313
I0
aI0
aI0
aI1
aI0
aI0
aa(lp2314
I0
aI0
aI0
aI1
aI0
aI0
aI0
aa(lp2315
I0
aI0
aI0
aI0
aI0
aI1
aI0
aI0
aa(lp2316
I0
aI0
aI0
aI0
aI0
aI0
aI0
aI1
aI0
aasg39
Nsg40
F1.0
sg41
(lp2317
(lp2318
a(lp2319
I1
aa(lp2320
I1
aI0
aa(lp2321
I0
aI1
aI0
aa(lp2322
I0
aI0
aI1
aI0
aa(lp2323
I0
aI1
aI0
aI0
aI0
aa(lp2324
I0
aI0
aI0
aI1
aI0
aI0
aa(lp2325
I0
aI0
aI0
aI1
aI0
aI0
aI0
aa(lp2326
I0
aI0
aI0
aI0
aI0
aI1
aI0
aI0
aa(lp2327
I0
aI0
aI0
aI0
aI0
aI0
aI1
aI1
aI0
aasba(iGenerate
GridGraph
p2328
(dp2329
g3
g13
sg14
(lp2330
(I42
I45
tp2331
a(I42
I44
tp2332
a(I41
I44
tp2333
a(I41
I43
tp2334
a(I40
I44
tp2335
a(I39
I44
tp2336
a(I39
I43
tp2337
a(I42
I43
tp2338
a(I43
I45
tp2339
a(I38
I43
tp2340
asg26
I10
sg27
(lp2341
(lp2342
a(lp2343
I1
aa(lp2344
I0
aI1
aa(lp2345
I0
aI0
aI0
aa(lp2346
I0
aI0
aI1
aI0
aa(lp2347
I0
aI0
aI0
aI0
aI1
aa(lp2348
I0
aI0
aI0
aI0
aI0
aI1
aa(lp2349
I0
aI1
aI0
aI1
aI0
aI0
aI0
aa(lp2350
I1
aI0
aI0
aI0
aI0
aI0
aI0
aI0
aa(lp2351
I0
aI0
aI0
aI0
aI0
aI0
aI1
aI0
aI0
aasg39
Nsg40
F1.0
sg41
(lp2352
(lp2353
a(lp2354
I1
aa(lp2355
I0
aI1
aa(lp2356
I0
aI0
aI1
aa(lp2357
I0
aI0
aI1
aI0
aa(lp2358
I0
aI0
aI0
aI0
aI1
aa(lp2359
I0
aI0
aI0
aI0
aI0
aI1
aa(lp2360
I0
aI1
aI0
aI1
aI0
aI0
aI0
aa(lp2361
I1
aI0
aI0
aI0
aI0
aI0
aI0
aI0
aa(lp2362
I0
aI0
aI0
aI0
aI0
aI0
aI1
aI0
aI0
aasba(iGenerate
GridGraph
p2363
(dp2364
g3
g13
sg14
(lp2365
(I71
I0
tp2366
a(I71
I1
tp2367
a(I72
I1
tp2368
a(I70
I1
tp2369
a(I72
I2
tp2370
a(I70
I2
tp2371
a(I70
I0
tp2372
a(I73
I1
tp2373
a(I69
I0
tp2374
a(I72
I0
tp2375
asg26
I10
sg27
(lp2376
(lp2377
a(lp2378
I1
aa(lp2379
I0
aI1
aa(lp2380
I0
aI1
aI0
aa(lp2381
I0
aI0
aI1
aI0
aa(lp2382
I0
aI0
aI0
aI1
aI0
aa(lp2383
I1
aI0
aI0
aI0
aI0
aI0
aa(lp2384
I0
aI0
aI1
aI0
aI0
aI0
aI0
aa(lp2385
I0
aI0
aI0
aI0
aI0
aI0
aI1
aI0
aa(lp2386
I0
aI0
aI1
aI0
aI0
aI0
aI0
aI0
aI0
aasg39
Nsg40
F1.0
sg41
(lp2387
(lp2388
a(lp2389
I1
aa(lp2390
I0
aI1
aa(lp2391
I0
aI1
aI0
aa(lp2392
I0
aI0
aI1
aI0
aa(lp2393
I0
aI0
aI0
aI1
aI0
aa(lp2394
I1
aI0
aI0
aI1
aI0
aI0
aa(lp2395
I0
aI0
aI1
aI0
aI0
aI0
aI0
aa(lp2396
I0
aI0
aI0
aI0
aI0
aI0
aI1
aI0
aa(lp2397
I1
aI0
aI1
aI0
aI0
aI0
aI0
aI0
aI0
aasba(iGenerate
GridGraph
p2398
(dp2399
g3
g13
sg14
(lp2400
(I16
I55
tp2401
a(I15
I55
tp2402
a(I15
I54
tp2403
a(I15
I53
tp2404
a(I14
I55
tp2405
a(I17
I55
tp2406
a(I14
I54
tp2407
a(I15
I56
tp2408
a(I17
I54
tp2409
a(I17
I56
tp2410
asg26
I10
sg27
(lp2411
(lp2412
a(lp2413
I1
aa(lp2414
I0
aI1
aa(lp2415
I0
aI0
aI1
aa(lp2416
I0
aI1
aI0
aI0
aa(lp2417
I1
aI0
aI0
aI0
aI0
aa(lp2418
I0
aI0
aI0
aI0
aI1
aI0
aa(lp2419
I0
aI1
aI0
aI0
aI0
aI0
aI0
aa(lp2420
I0
aI0
aI0
aI0
aI0
aI1
aI0
aI0
aa(lp2421
I0
aI0
aI0
aI0
aI0
aI1
aI0
aI0
aI0
aasg39
Nsg40
F1.0
sg41
(lp2422
(lp2423
a(lp2424
I1
aa(lp2425
I0
aI1
aa(lp2426
I0
aI0
aI1
aa(lp2427
I0
aI1
aI0
aI0
aa(lp2428
I1
aI0
aI0
aI0
aI0
aa(lp2429
I0
aI0
aI1
aI0
aI1
aI0
aa(lp2430
I0
aI1
aI0
aI0
aI0
aI0
aI0
aa(lp2431
I0
aI0
aI0
aI0
aI0
aI1
aI0
aI0
aa(lp2432
I0
aI0
aI0
aI0
aI0
aI1
aI0
aI0
aI0
aasba(iGenerate
GridGraph
p2433
(dp2434
g3
g13
sg14
(lp2435
(I99
I98
tp2436
a(I99
I97
tp2437
a(I98
I97
tp2438
a(I99
I96
tp2439
a(I98
I96
tp2440
a(I97
I96
tp2441
a(I99
I95
tp2442
a(I97
I97
tp2443
a(I99
I94
tp2444
a(I98
I95
tp2445
asg26
I10
sg27
(lp2446
(lp2447
a(lp2448
I1
aa(lp2449
I0
aI0
aa(lp2450
I0
aI1
aI0
aa(lp2451
I0
aI0
aI1
aI1
aa(lp2452
I0
aI0
aI0
aI0
aI1
aa(lp2453
I0
aI0
aI0
aI1
aI0
aI0
aa(lp2454
I0
aI0
aI1
aI0
aI0
aI0
aI0
aa(lp2455
I0
aI0
aI0
aI0
aI0
aI0
aI1
aI0
aa(lp2456
I0
aI0
aI0
aI0
aI0
aI0
aI1
aI0
aI0
aasg39
Nsg40
F1.0
sg41
(lp2457
(lp2458
a(lp2459
I1
aa(lp2460
I0
aI1
aa(lp2461
I0
aI1
aI0
aa(lp2462
I0
aI0
aI1
aI1
aa(lp2463
I0
aI0
aI0
aI0
aI1
aa(lp2464
I0
aI0
aI0
aI1
aI0
aI0
aa(lp2465
I0
aI0
aI1
aI0
aI0
aI1
aI0
aa(lp2466
I0
aI0
aI0
aI0
aI0
aI0
aI1
aI0
aa(lp2467
I0
aI0
aI0
aI0
aI1
aI0
aI1
aI0
aI0
aasba(iGenerate
GridGraph
p2468
(dp2469
g3
g13
sg14
(lp2470
(I87
I100
tp2471
a(I87
I99
tp2472
a(I86
I99
tp2473
a(I85
I99
tp2474
a(I87
I98
tp2475
a(I86
I98
tp2476
a(I86
I97
tp2477
a(I84
I99
tp2478
a(I85
I97
tp2479
a(I87
I97
tp2480
asg26
I10
sg27
(lp2481
(lp2482
a(lp2483
I1
aa(lp2484
I0
aI1
aa(lp2485
I0
aI0
aI1
aa(lp2486
I0
aI1
aI0
aI0
aa(lp2487
I0
aI0
aI1
aI0
aI0
aa(lp2488
I0
aI0
aI0
aI0
aI0
aI1
aa(lp2489
I0
aI0
aI0
aI1
aI0
aI0
aI0
aa(lp2490
I0
aI0
aI0
aI0
aI0
aI0
aI1
aI0
aa(lp2491
I0
aI0
aI0
aI0
aI1
aI0
aI0
aI0
aI0
aasg39
Nsg40
F1.0
sg41
(lp2492
(lp2493
a(lp2494
I1
aa(lp2495
I0
aI1
aa(lp2496
I0
aI0
aI1
aa(lp2497
I0
aI1
aI0
aI0
aa(lp2498
I0
aI0
aI1
aI0
aI1
aa(lp2499
I0
aI0
aI0
aI0
aI0
aI1
aa(lp2500
I0
aI0
aI0
aI1
aI0
aI0
aI0
aa(lp2501
I0
aI0
aI0
aI0
aI0
aI0
aI1
aI0
aa(lp2502
I0
aI0
aI0
aI0
aI1
aI0
aI1
aI0
aI0
aasba(iGenerate
GridGraph
p2503
(dp2504
g3
g13
sg14
(lp2505
(I10
I93
tp2506
a(I10
I94
tp2507
a(I9
I94
tp2508
a(I10
I92
tp2509
a(I11
I93
tp2510
a(I10
I95
tp2511
a(I8
I94
tp2512
a(I11
I92
tp2513
a(I9
I93
tp2514
a(I12
I93
tp2515
asg26
I10
sg27
(lp2516
(lp2517
a(lp2518
I1
aa(lp2519
I0
aI1
aa(lp2520
I1
aI0
aI0
aa(lp2521
I1
aI0
aI0
aI0
aa(lp2522
I0
aI1
aI0
aI0
aI0
aa(lp2523
I0
aI0
aI1
aI0
aI0
aI0
aa(lp2524
I0
aI0
aI0
aI0
aI1
aI0
aI0
aa(lp2525
I1
aI0
aI0
aI0
aI0
aI0
aI0
aI0
aa(lp2526
I0
aI0
aI0
aI0
aI1
aI0
aI0
aI0
aI0
aasg39
Nsg40
F1.0
sg41
(lp2527
(lp2528
a(lp2529
I1
aa(lp2530
I0
aI1
aa(lp2531
I1
aI0
aI0
aa(lp2532
I1
aI0
aI0
aI0
aa(lp2533
I0
aI1
aI0
aI0
aI0
aa(lp2534
I0
aI0
aI1
aI0
aI0
aI0
aa(lp2535
I0
aI0
aI0
aI1
aI1
aI0
aI0
aa(lp2536
I1
aI0
aI1
aI0
aI0
aI0
aI0
aI0
aa(lp2537
I0
aI0
aI0
aI0
aI1
aI0
aI0
aI0
aI0
aasba(iGenerate
GridGraph
p2538
(dp2539
g3
g13
sg14
(lp2540
(I87
I22
tp2541
a(I88
I22
tp2542
a(I88
I23
tp2543
a(I86
I22
tp2544
a(I89
I22
tp2545
a(I90
I22
tp2546
a(I89
I23
tp2547
a(I90
I21
tp2548
a(I86
I21
tp2549
a(I90
I23
tp2550
asg26
I10
sg27
(lp2551
(lp2552
a(lp2553
I1
aa(lp2554
I0
aI1
aa(lp2555
I1
aI0
aI0
aa(lp2556
I0
aI1
aI0
aI0
aa(lp2557
I0
aI0
aI0
aI0
aI0
aa(lp2558
I0
aI0
aI1
aI0
aI0
aI0
aa(lp2559
I0
aI0
aI0
aI0
aI0
aI1
aI0
aa(lp2560
I0
aI0
aI0
aI1
aI0
aI0
aI0
aI0
aa(lp2561
I0
aI0
aI0
aI0
aI0
aI1
aI1
aI0
aI0
aasg39
Nsg40
F1.0
sg41
(lp2562
(lp2563
a(lp2564
I1
aa(lp2565
I0
aI1
aa(lp2566
I1
aI0
aI0
aa(lp2567
I0
aI1
aI0
aI0
aa(lp2568
I0
aI0
aI0
aI0
aI1
aa(lp2569
I0
aI0
aI1
aI0
aI1
aI0
aa(lp2570
I0
aI0
aI0
aI0
aI0
aI1
aI0
aa(lp2571
I0
aI0
aI0
aI1
aI0
aI0
aI0
aI0
aa(lp2572
I0
aI0
aI0
aI0
aI0
aI1
aI1
aI0
aI0
aasba(iGenerate
GridGraph
p2573
(dp2574
g3
g13
sg14
(lp2575
(I21
I10
tp2576
a(I20
I10
tp2577
a(I22
I10
tp2578
a(I22
I11
tp2579
a(I20
I11
tp2580
a(I21
I9
tp2581
a(I22
I9
tp2582
a(I20
I12
tp2583
a(I19
I12
tp2584
a(I21
I11
tp2585
asg26
I10
sg27
(lp2586
(lp2587
a(lp2588
I1
aa(lp2589
I1
aI0
aa(lp2590
I0
aI0
aI0
aa(lp2591
I0
aI1
aI0
aI0
aa(lp2592
I1
aI0
aI0
aI0
aI0
aa(lp2593
I0
aI0
aI0
aI0
aI0
aI1
aa(lp2594
I0
aI0
aI0
aI0
aI1
aI0
aI0
aa(lp2595
I0
aI0
aI0
aI0
aI0
aI0
aI0
aI1
aa(lp2596
I1
aI0
aI0
aI1
aI0
aI0
aI0
aI0
aI0
aasg39
Nsg40
F1.0
sg41
(lp2597
(lp2598
a(lp2599
I1
aa(lp2600
I1
aI0
aa(lp2601
I0
aI0
aI1
aa(lp2602
I0
aI1
aI0
aI0
aa(lp2603
I1
aI0
aI0
aI0
aI0
aa(lp2604
I0
aI0
aI1
aI0
aI0
aI1
aa(lp2605
I0
aI0
aI0
aI0
aI1
aI0
aI0
aa(lp2606
I0
aI0
aI0
aI0
aI0
aI0
aI0
aI1
aa(lp2607
I1
aI0
aI0
aI1
aI1
aI0
aI0
aI0
aI0
aasba(iGenerate
GridGraph
p2608
(dp2609
g3
g13
sg14
(lp2610
(I61
I22
tp2611
a(I61
I21
tp2612
a(I61
I20
tp2613
a(I60
I22
tp2614
a(I61
I19
tp2615
a(I61
I18
tp2616
a(I60
I20
tp2617
a(I59
I22
tp2618
a(I62
I20
tp2619
a(I62
I22
tp2620
asg26
I10
sg27
(lp2621
(lp2622
a(lp2623
I1
aa(lp2624
I0
aI1
aa(lp2625
I1
aI0
aI0
aa(lp2626
I0
aI0
aI1
aI0
aa(lp2627
I0
aI0
aI0
aI0
aI1
aa(lp2628
I0
aI0
aI1
aI0
aI0
aI0
aa(lp2629
I0
aI0
aI0
aI1
aI0
aI0
aI0
aa(lp2630
I0
aI0
aI1
aI0
aI0
aI0
aI0
aI0
aa(lp2631
I1
aI0
aI0
aI0
aI0
aI0
aI0
aI0
aI0
aasg39
Nsg40
F1.0
sg41
(lp2632
(lp2633
a(lp2634
I1
aa(lp2635
I0
aI1
aa(lp2636
I1
aI0
aI0
aa(lp2637
I0
aI0
aI1
aI0
aa(lp2638
I0
aI0
aI0
aI0
aI1
aa(lp2639
I0
aI0
aI1
aI0
aI0
aI0
aa(lp2640
I0
aI0
aI0
aI1
aI0
aI0
aI0
aa(lp2641
I0
aI0
aI1
aI0
aI0
aI0
aI0
aI0
aa(lp2642
I1
aI0
aI0
aI0
aI0
aI0
aI0
aI0
aI0
aasba(iGenerate
GridGraph
p2643
(dp2644
g3
g13
sg14
(lp2645
(I85
I2
tp2646
a(I85
I1
tp2647
a(I84
I2
tp2648
a(I85
I3
tp2649
a(I84
I1
tp2650
a(I84
I3
tp2651
a(I83
I1
tp2652
a(I85
I4
tp2653
a(I83
I2
tp2654
a(I83
I3
tp2655
asg26
I10
sg27
(lp2656
(lp2657
a(lp2658
I1
aa(lp2659
I1
aI0
aa(lp2660
I1
aI0
aI0
aa(lp2661
I0
aI1
aI1
aI0
aa(lp2662
I0
aI0
aI0
aI1
aI0
aa(lp2663
I0
aI0
aI0
aI0
aI1
aI0
aa(lp2664
I0
aI0
aI0
aI1
aI0
aI0
aI0
aa(lp2665
I0
aI0
aI1
aI0
aI0
aI0
aI0
aI0
aa(lp2666
I0
aI0
aI0
aI0
aI0
aI1
aI0
aI0
aI0
aasg39
Nsg40
F1.0
sg41
(lp2667
(lp2668
a(lp2669
I1
aa(lp2670
I1
aI0
aa(lp2671
I1
aI0
aI0
aa(lp2672
I0
aI1
aI1
aI0
aa(lp2673
I0
aI0
aI1
aI1
aI0
aa(lp2674
I0
aI0
aI0
aI0
aI1
aI0
aa(lp2675
I0
aI0
aI0
aI1
aI0
aI0
aI0
aa(lp2676
I0
aI0
aI1
aI0
aI0
aI0
aI1
aI0
aa(lp2677
I0
aI0
aI0
aI0
aI0
aI1
aI0
aI0
aI1
aasba(iGenerate
GridGraph
p2678
(dp2679
g3
g13
sg14
(lp2680
(I53
I58
tp2681
a(I52
I58
tp2682
a(I52
I57
tp2683
a(I53
I59
tp2684
a(I53
I57
tp2685
a(I51
I58
tp2686
a(I52
I59
tp2687
a(I51
I57
tp2688
a(I51
I56
tp2689
a(I51
I59
tp2690
asg26
I10
sg27
(lp2691
(lp2692
a(lp2693
I1
aa(lp2694
I0
aI1
aa(lp2695
I1
aI0
aI0
aa(lp2696
I1
aI0
aI0
aI0
aa(lp2697
I0
aI0
aI0
aI0
aI0
aa(lp2698
I0
aI0
aI0
aI1
aI0
aI0
aa(lp2699
I0
aI0
aI1
aI0
aI0
aI1
aI0
aa(lp2700
I0
aI0
aI0
aI0
aI0
aI0
aI0
aI1
aa(lp2701
I0
aI0
aI0
aI0
aI0
aI1
aI1
aI0
aI0
aasg39
Nsg40
F1.0
sg41
(lp2702
(lp2703
a(lp2704
I1
aa(lp2705
I0
aI1
aa(lp2706
I1
aI0
aI0
aa(lp2707
I1
aI0
aI1
aI0
aa(lp2708
I0
aI1
aI0
aI0
aI0
aa(lp2709
I0
aI1
aI0
aI1
aI0
aI0
aa(lp2710
I0
aI0
aI1
aI0
aI0
aI1
aI0
aa(lp2711
I0
aI0
aI0
aI0
aI0
aI0
aI0
aI1
aa(lp2712
I0
aI0
aI0
aI0
aI0
aI1
aI1
aI0
aI0
aasba(iGenerate
GridGraph
p2713
(dp2714
g3
g13
sg14
(lp2715
(I100
I83
tp2716
a(I99
I83
tp2717
a(I99
I82
tp2718
a(I99
I81
tp2719
a(I98
I83
tp2720
a(I97
I83
tp2721
a(I98
I81
tp2722
a(I98
I80
tp2723
a(I97
I81
tp2724
a(I99
I80
tp2725
asg26
I10
sg27
(lp2726
(lp2727
a(lp2728
I1
aa(lp2729
I0
aI1
aa(lp2730
I0
aI0
aI1
aa(lp2731
I0
aI1
aI0
aI0
aa(lp2732
I0
aI0
aI0
aI0
aI1
aa(lp2733
I0
aI0
aI0
aI0
aI0
aI0
aa(lp2734
I0
aI0
aI0
aI0
aI0
aI0
aI1
aa(lp2735
I0
aI0
aI0
aI0
aI0
aI0
aI1
aI0
aa(lp2736
I0
aI0
aI0
aI1
aI0
aI0
aI0
aI1
aI0
aasg39
Nsg40
F1.0
sg41
(lp2737
(lp2738
a(lp2739
I1
aa(lp2740
I0
aI1
aa(lp2741
I0
aI0
aI1
aa(lp2742
I0
aI1
aI0
aI0
aa(lp2743
I0
aI0
aI0
aI0
aI1
aa(lp2744
I0
aI0
aI0
aI1
aI0
aI0
aa(lp2745
I0
aI0
aI0
aI0
aI0
aI0
aI1
aa(lp2746
I0
aI0
aI0
aI0
aI0
aI0
aI1
aI0
aa(lp2747
I0
aI0
aI0
aI1
aI0
aI0
aI0
aI1
aI0
aasba(iGenerate
GridGraph
p2748
(dp2749
g3
g13
sg14
(lp2750
(I28
I10
tp2751
a(I29
I10
tp2752
a(I29
I9
tp2753
a(I29
I11
tp2754
a(I27
I10
tp2755
a(I29
I8
tp2756
a(I30
I8
tp2757
a(I31
I8
tp2758
a(I28
I8
tp2759
a(I29
I7
tp2760
asg26
I10
sg27
(lp2761
(lp2762
a(lp2763
I1
aa(lp2764
I0
aI1
aa(lp2765
I0
aI1
aI0
aa(lp2766
I1
aI0
aI0
aI0
aa(lp2767
I0
aI0
aI1
aI0
aI0
aa(lp2768
I0
aI0
aI0
aI0
aI0
aI1
aa(lp2769
I0
aI0
aI0
aI0
aI0
aI0
aI1
aa(lp2770
I0
aI0
aI0
aI0
aI0
aI1
aI0
aI0
aa(lp2771
I0
aI0
aI0
aI0
aI0
aI1
aI0
aI0
aI0
aasg39
Nsg40
F1.0
sg41
(lp2772
(lp2773
a(lp2774
I1
aa(lp2775
I0
aI1
aa(lp2776
I0
aI1
aI0
aa(lp2777
I1
aI0
aI0
aI0
aa(lp2778
I0
aI0
aI1
aI0
aI0
aa(lp2779
I0
aI0
aI0
aI0
aI0
aI1
aa(lp2780
I0
aI0
aI0
aI0
aI0
aI0
aI1
aa(lp2781
I0
aI0
aI0
aI0
aI0
aI1
aI0
aI0
aa(lp2782
I0
aI0
aI0
aI0
aI0
aI1
aI0
aI0
aI0
aasba(iGenerate
GridGraph
p2783
(dp2784
g3
g13
sg14
(lp2785
(I49
I99
tp2786
a(I49
I98
tp2787
a(I49
I97
tp2788
a(I48
I99
tp2789
a(I50
I99
tp2790
a(I49
I96
tp2791
a(I49
I95
tp2792
a(I50
I95
tp2793
a(I47
I99
tp2794
a(I46
I99
tp2795
asg26
I10
sg27
(lp2796
(lp2797
a(lp2798
I1
aa(lp2799
I0
aI1
aa(lp2800
I1
aI0
aI0
aa(lp2801
I1
aI0
aI0
aI0
aa(lp2802
I0
aI0
aI1
aI0
aI0
aa(lp2803
I0
aI0
aI0
aI0
aI0
aI1
aa(lp2804
I0
aI0
aI0
aI0
aI0
aI0
aI1
aa(lp2805
I0
aI0
aI0
aI1
aI0
aI0
aI0
aI0
aa(lp2806
I0
aI0
aI0
aI0
aI0
aI0
aI0
aI0
aI1
aasg39
Nsg40
F1.0
sg41
(lp2807
(lp2808
a(lp2809
I1
aa(lp2810
I0
aI1
aa(lp2811
I1
aI0
aI0
aa(lp2812
I1
aI0
aI0
aI0
aa(lp2813
I0
aI0
aI1
aI0
aI0
aa(lp2814
I0
aI0
aI0
aI0
aI0
aI1
aa(lp2815
I0
aI0
aI0
aI0
aI0
aI0
aI1
aa(lp2816
I0
aI0
aI0
aI1
aI0
aI0
aI0
aI0
aa(lp2817
I0
aI0
aI0
aI0
aI0
aI0
aI0
aI0
aI1
aasba(iGenerate
GridGraph
p2818
(dp2819
g3
g13
sg14
(lp2820
(I92
I42
tp2821
a(I91
I42
tp2822
a(I91
I43
tp2823
a(I91
I44
tp2824
a(I91
I41
tp2825
a(I91
I45
tp2826
a(I90
I44
tp2827
a(I91
I40
tp2828
a(I92
I41
tp2829
a(I90
I43
tp2830
asg26
I10
sg27
(lp2831
(lp2832
a(lp2833
I1
aa(lp2834
I0
aI1
aa(lp2835
I0
aI0
aI1
aa(lp2836
I0
aI1
aI0
aI0
aa(lp2837
I0
aI0
aI0
aI1
aI0
aa(lp2838
I0
aI0
aI0
aI0
aI0
aI0
aa(lp2839
I0
aI0
aI0
aI0
aI1
aI0
aI0
aa(lp2840
I1
aI0
aI0
aI0
aI0
aI0
aI0
aI0
aa(lp2841
I0
aI0
aI1
aI0
aI0
aI0
aI1
aI0
aI0
aasg39
Nsg40
F1.0
sg41
(lp2842
(lp2843
a(lp2844
I1
aa(lp2845
I0
aI1
aa(lp2846
I0
aI0
aI1
aa(lp2847
I0
aI1
aI0
aI0
aa(lp2848
I0
aI0
aI0
aI1
aI0
aa(lp2849
I0
aI0
aI0
aI1
aI0
aI0
aa(lp2850
I0
aI0
aI0
aI0
aI1
aI0
aI0
aa(lp2851
I1
aI0
aI0
aI0
aI1
aI0
aI0
aI0
aa(lp2852
I0
aI0
aI1
aI0
aI0
aI0
aI1
aI0
aI0
aasba(iGenerate
GridGraph
p2853
(dp2854
g3
g13
sg14
(lp2855
(I93
I54
tp2856
a(I93
I55
tp2857
a(I94
I55
tp2858
a(I93
I56
tp2859
a(I94
I54
tp2860
a(I95
I54
tp2861
a(I95
I55
tp2862
a(I93
I53
tp2863
a(I93
I52
tp2864
a(I93
I57
tp2865
asg26
I10
sg27
(lp2866
(lp2867
a(lp2868
I1
aa(lp2869
I0
aI0
aa(lp2870
I0
aI1
aI0
aa(lp2871
I1
aI0
aI1
aI0
aa(lp2872
I0
aI0
aI0
aI0
aI1
aa(lp2873
I0
aI0
aI0
aI0
aI0
aI1
aa(lp2874
I1
aI0
aI0
aI0
aI0
aI0
aI0
aa(lp2875
I0
aI0
aI0
aI0
aI0
aI0
aI0
aI1
aa(lp2876
I0
aI0
aI0
aI1
aI0
aI0
aI0
aI0
aI0
aasg39
Nsg40
F1.0
sg41
(lp2877
(lp2878
a(lp2879
I1
aa(lp2880
I0
aI1
aa(lp2881
I0
aI1
aI0
aa(lp2882
I1
aI0
aI1
aI0
aa(lp2883
I0
aI0
aI0
aI0
aI1
aa(lp2884
I0
aI0
aI1
aI0
aI0
aI1
aa(lp2885
I1
aI0
aI0
aI0
aI0
aI0
aI0
aa(lp2886
I0
aI0
aI0
aI0
aI0
aI0
aI0
aI1
aa(lp2887
I0
aI0
aI0
aI1
aI0
aI0
aI0
aI0
aI0
aasba(iGenerate
GridGraph
p2888
(dp2889
g3
g13
sg14
(lp2890
(I14
I49
tp2891
a(I13
I49
tp2892
a(I13
I48
tp2893
a(I14
I48
tp2894
a(I12
I48
tp2895
a(I14
I47
tp2896
a(I13
I47
tp2897
a(I13
I50
tp2898
a(I15
I49
tp2899
a(I16
I49
tp2900
asg26
I10
sg27
(lp2901
(lp2902
a(lp2903
I1
aa(lp2904
I0
aI0
aa(lp2905
I1
aI0
aI1
aa(lp2906
I0
aI0
aI1
aI0
aa(lp2907
I0
aI0
aI0
aI1
aI0
aa(lp2908
I0
aI0
aI0
aI0
aI0
aI1
aa(lp2909
I0
aI1
aI0
aI0
aI0
aI0
aI0
aa(lp2910
I1
aI0
aI0
aI0
aI0
aI0
aI0
aI0
aa(lp2911
I0
aI0
aI0
aI0
aI0
aI0
aI0
aI0
aI1
aasg39
Nsg40
F1.0
sg41
(lp2912
(lp2913
a(lp2914
I1
aa(lp2915
I0
aI1
aa(lp2916
I1
aI0
aI1
aa(lp2917
I0
aI0
aI1
aI0
aa(lp2918
I0
aI0
aI0
aI1
aI0
aa(lp2919
I0
aI0
aI1
aI0
aI0
aI1
aa(lp2920
I0
aI1
aI0
aI0
aI0
aI0
aI0
aa(lp2921
I1
aI0
aI0
aI0
aI0
aI0
aI0
aI0
aa(lp2922
I0
aI0
aI0
aI0
aI0
aI0
aI0
aI0
aI1
aasba(iGenerate
GridGraph
p2923
(dp2924
g3
g13
sg14
(lp2925
(I49
I23
tp2926
a(I49
I24
tp2927
a(I48
I23
tp2928
a(I49
I25
tp2929
a(I48
I24
tp2930
a(I49
I26
tp2931
a(I47
I23
tp2932
a(I48
I26
tp2933
a(I49
I27
tp2934
a(I47
I22
tp2935
asg26
I10
sg27
(lp2936
(lp2937
a(lp2938
I1
aa(lp2939
I1
aI0
aa(lp2940
I0
aI1
aI0
aa(lp2941
I0
aI1
aI0
aI0
aa(lp2942
I0
aI0
aI0
aI1
aI0
aa(lp2943
I0
aI0
aI1
aI0
aI0
aI0
aa(lp2944
I0
aI0
aI0
aI0
aI0
aI1
aI0
aa(lp2945
I0
aI0
aI0
aI0
aI0
aI1
aI0
aI0
aa(lp2946
I0
aI0
aI0
aI0
aI0
aI0
aI1
aI0
aI0
aasg39
Nsg40
F1.0
sg41
(lp2947
(lp2948
a(lp2949
I1
aa(lp2950
I1
aI0
aa(lp2951
I0
aI1
aI0
aa(lp2952
I0
aI1
aI1
aI0
aa(lp2953
I0
aI0
aI0
aI1
aI0
aa(lp2954
I0
aI0
aI1
aI0
aI0
aI0
aa(lp2955
I0
aI0
aI0
aI0
aI0
aI1
aI0
aa(lp2956
I0
aI0
aI0
aI0
aI0
aI1
aI0
aI0
aa(lp2957
I0
aI0
aI0
aI0
aI0
aI0
aI1
aI0
aI0
aasba(iGenerate
GridGraph
p2958
(dp2959
g3
g13
sg14
(lp2960
(I56
I96
tp2961
a(I56
I95
tp2962
a(I55
I96
tp2963
a(I55
I97
tp2964
a(I56
I97
tp2965
a(I57
I96
tp2966
a(I56
I98
tp2967
a(I57
I95
tp2968
a(I54
I97
tp2969
a(I56
I94
tp2970
asg26
I10
sg27
(lp2971
(lp2972
a(lp2973
I0
aa(lp2974
I1
aI0
aa(lp2975
I0
aI0
aI1
aa(lp2976
I1
aI0
aI0
aI0
aa(lp2977
I1
aI0
aI0
aI0
aI0
aa(lp2978
I0
aI0
aI0
aI0
aI1
aI0
aa(lp2979
I0
aI1
aI0
aI0
aI0
aI1
aI0
aa(lp2980
I0
aI0
aI0
aI1
aI0
aI0
aI0
aI0
aa(lp2981
I0
aI1
aI0
aI0
aI0
aI0
aI0
aI0
aI0
aasg39
Nsg40
F1.0
sg41
(lp2982
(lp2983
a(lp2984
I1
aa(lp2985
I1
aI0
aa(lp2986
I0
aI0
aI1
aa(lp2987
I1
aI0
aI0
aI1
aa(lp2988
I1
aI0
aI0
aI0
aI0
aa(lp2989
I0
aI0
aI0
aI0
aI1
aI0
aa(lp2990
I0
aI1
aI0
aI0
aI0
aI1
aI0
aa(lp2991
I0
aI0
aI0
aI1
aI0
aI0
aI0
aI0
aa(lp2992
I0
aI1
aI0
aI0
aI0
aI0
aI0
aI0
aI0
aasba(iGenerate
GridGraph
p2993
(dp2994
g3
g13
sg14
(lp2995
(I87
I8
tp2996
a(I88
I8
tp2997
a(I87
I7
tp2998
a(I87
I6
tp2999
a(I87
I9
tp3000
a(I86
I8
tp3001
a(I86
I7
tp3002
a(I86
I9
tp3003
a(I86
I10
tp3004
a(I85
I9
tp3005
asg26
I10
sg27
(lp3006
(lp3007
a(lp3008
I1
aa(lp3009
I1
aI0
aa(lp3010
I0
aI0
aI1
aa(lp3011
I1
aI0
aI0
aI0
aa(lp3012
I1
aI0
aI0
aI0
aI0
aa(lp3013
I0
aI0
aI0
aI0
aI0
aI1
aa(lp3014
I0
aI0
aI0
aI0
aI0
aI1
aI0
aa(lp3015
I0
aI0
aI0
aI0
aI0
aI0
aI0
aI1
aa(lp3016
I0
aI0
aI0
aI0
aI0
aI0
aI0
aI1
aI0
aasg39
Nsg40
F1.0
sg41
(lp3017
(lp3018
a(lp3019
I1
aa(lp3020
I1
aI0
aa(lp3021
I0
aI0
aI1
aa(lp3022
I1
aI0
aI0
aI0
aa(lp3023
I1
aI0
aI0
aI0
aI0
aa(lp3024
I0
aI0
aI1
aI0
aI0
aI1
aa(lp3025
I0
aI0
aI0
aI0
aI1
aI1
aI0
aa(lp3026
I0
aI0
aI0
aI0
aI0
aI0
aI0
aI1
aa(lp3027
I0
aI0
aI0
aI0
aI0
aI0
aI0
aI1
aI0
aasba(iGenerate
GridGraph
p3028
(dp3029
g3
g13
sg14
(lp3030
(I35
I16
tp3031
a(I36
I16
tp3032
a(I35
I15
tp3033
a(I36
I17
tp3034
a(I36
I15
tp3035
a(I36
I18
tp3036
a(I36
I19
tp3037
a(I37
I16
tp3038
a(I35
I19
tp3039
a(I38
I16
tp3040
asg26
I10
sg27
(lp3041
(lp3042
a(lp3043
I1
aa(lp3044
I1
aI0
aa(lp3045
I0
aI1
aI0
aa(lp3046
I0
aI0
aI1
aI0
aa(lp3047
I0
aI0
aI0
aI1
aI0
aa(lp3048
I0
aI0
aI0
aI0
aI0
aI1
aa(lp3049
I0
aI1
aI0
aI0
aI0
aI0
aI0
aa(lp3050
I0
aI0
aI0
aI0
aI0
aI0
aI1
aI0
aa(lp3051
I0
aI0
aI0
aI0
aI0
aI0
aI0
aI1
aI0
aasg39
Nsg40
F1.0
sg41
(lp3052
(lp3053
a(lp3054
I1
aa(lp3055
I1
aI0
aa(lp3056
I0
aI1
aI0
aa(lp3057
I0
aI1
aI1
aI0
aa(lp3058
I0
aI0
aI0
aI1
aI0
aa(lp3059
I0
aI0
aI0
aI0
aI0
aI1
aa(lp3060
I0
aI1
aI0
aI0
aI0
aI0
aI0
aa(lp3061
I0
aI0
aI0
aI0
aI0
aI0
aI1
aI0
aa(lp3062
I0
aI0
aI0
aI0
aI0
aI0
aI0
aI1
aI0
aasba(iGenerate
GridGraph
p3063
(dp3064
g3
g13
sg14
(lp3065
(I53
I70
tp3066
a(I53
I69
tp3067
a(I54
I70
tp3068
a(I53
I71
tp3069
a(I53
I72
tp3070
a(I53
I68
tp3071
a(I54
I69
tp3072
a(I52
I70
tp3073
a(I52
I71
tp3074
a(I55
I69
tp3075
asg26
I10
sg27
(lp3076
(lp3077
a(lp3078
I1
aa(lp3079
I1
aI0
aa(lp3080
I1
aI0
aI0
aa(lp3081
I0
aI0
aI0
aI1
aa(lp3082
I0
aI1
aI0
aI0
aI0
aa(lp3083
I0
aI0
aI1
aI0
aI0
aI0
aa(lp3084
I1
aI0
aI0
aI0
aI0
aI0
aI0
aa(lp3085
I0
aI0
aI0
aI1
aI0
aI0
aI0
aI0
aa(lp3086
I0
aI0
aI0
aI0
aI0
aI0
aI1
aI0
aI0
aasg39
Nsg40
F1.0
sg41
(lp3087
(lp3088
a(lp3089
I1
aa(lp3090
I1
aI0
aa(lp3091
I1
aI0
aI0
aa(lp3092
I0
aI0
aI0
aI1
aa(lp3093
I0
aI1
aI0
aI0
aI0
aa(lp3094
I0
aI1
aI1
aI0
aI0
aI0
aa(lp3095
I1
aI0
aI0
aI0
aI0
aI0
aI0
aa(lp3096
I0
aI0
aI0
aI1
aI0
aI0
aI0
aI1
aa(lp3097
I0
aI0
aI0
aI0
aI0
aI0
aI1
aI0
aI0
aasba(iGenerate
GridGraph
p3098
(dp3099
g3
g13
sg14
(lp3100
(I37
I45
tp3101
a(I36
I45
tp3102
a(I38
I45
tp3103
a(I38
I44
tp3104
a(I37
I46
tp3105
a(I37
I44
tp3106
a(I39
I44
tp3107
a(I35
I45
tp3108
a(I35
I44
tp3109
a(I34
I44
tp3110
asg26
I10
sg27
(lp3111
(lp3112
a(lp3113
I1
aa(lp3114
I1
aI0
aa(lp3115
I0
aI0
aI1
aa(lp3116
I1
aI0
aI0
aI0
aa(lp3117
I1
aI0
aI0
aI0
aI0
aa(lp3118
I0
aI0
aI0
aI1
aI0
aI0
aa(lp3119
I0
aI1
aI0
aI0
aI0
aI0
aI0
aa(lp3120
I0
aI0
aI0
aI0
aI0
aI0
aI0
aI1
aa(lp3121
I0
aI0
aI0
aI0
aI0
aI0
aI0
aI0
aI1
aasg39
Nsg40
F1.0
sg41
(lp3122
(lp3123
a(lp3124
I1
aa(lp3125
I1
aI0
aa(lp3126
I0
aI0
aI1
aa(lp3127
I1
aI0
aI0
aI0
aa(lp3128
I1
aI0
aI0
aI1
aI0
aa(lp3129
I0
aI0
aI0
aI1
aI0
aI0
aa(lp3130
I0
aI1
aI0
aI0
aI0
aI0
aI0
aa(lp3131
I0
aI0
aI0
aI0
aI0
aI0
aI0
aI1
aa(lp3132
I0
aI0
aI0
aI0
aI0
aI0
aI0
aI0
aI1
aasba(iGenerate
GridGraph
p3133
(dp3134
g3
g13
sg14
(lp3135
(I94
I38
tp3136
a(I94
I39
tp3137
a(I93
I39
tp3138
a(I93
I38
tp3139
a(I94
I37
tp3140
a(I93
I40
tp3141
a(I93
I41
tp3142
a(I93
I42
tp3143
a(I95
I39
tp3144
a(I92
I40
tp3145
asg26
I10
sg27
(lp3146
(lp3147
a(lp3148
I1
aa(lp3149
I0
aI1
aa(lp3150
I1
aI0
aI0
aa(lp3151
I1
aI0
aI0
aI0
aa(lp3152
I0
aI0
aI1
aI0
aI0
aa(lp3153
I0
aI0
aI0
aI0
aI0
aI1
aa(lp3154
I0
aI0
aI0
aI0
aI0
aI0
aI1
aa(lp3155
I0
aI1
aI0
aI0
aI0
aI0
aI0
aI0
aa(lp3156
I0
aI0
aI0
aI0
aI0
aI1
aI0
aI0
aI0
aasg39
Nsg40
F1.0
sg41
(lp3157
(lp3158
a(lp3159
I1
aa(lp3160
I0
aI1
aa(lp3161
I1
aI0
aI1
aa(lp3162
I1
aI0
aI0
aI0
aa(lp3163
I0
aI0
aI1
aI0
aI0
aa(lp3164
I0
aI0
aI0
aI0
aI0
aI1
aa(lp3165
I0
aI0
aI0
aI0
aI0
aI0
aI1
aa(lp3166
I0
aI1
aI0
aI0
aI0
aI0
aI0
aI0
aa(lp3167
I0
aI0
aI0
aI0
aI0
aI1
aI0
aI0
aI0
aasba(iGenerate
GridGraph
p3168
(dp3169
g3
g13
sg14
(lp3170
(I60
I62
tp3171
a(I61
I62
tp3172
a(I60
I61
tp3173
a(I60
I63
tp3174
a(I61
I63
tp3175
a(I60
I64
tp3176
a(I62
I62
tp3177
a(I59
I63
tp3178
a(I60
I60
tp3179
a(I59
I64
tp3180
asg26
I10
sg27
(lp3181
(lp3182
a(lp3183
I1
aa(lp3184
I1
aI0
aa(lp3185
I1
aI0
aI0
aa(lp3186
I0
aI0
aI0
aI1
aa(lp3187
I0
aI0
aI0
aI1
aI0
aa(lp3188
I0
aI1
aI0
aI0
aI0
aI0
aa(lp3189
I0
aI0
aI0
aI1
aI0
aI0
aI0
aa(lp3190
I0
aI0
aI1
aI0
aI0
aI0
aI0
aI0
aa(lp3191
I0
aI0
aI0
aI0
aI0
aI0
aI0
aI1
aI0
aasg39
Nsg40
F1.0
sg41
(lp3192
(lp3193
a(lp3194
I1
aa(lp3195
I1
aI0
aa(lp3196
I1
aI0
aI0
aa(lp3197
I0
aI1
aI0
aI1
aa(lp3198
I0
aI0
aI0
aI1
aI0
aa(lp3199
I0
aI1
aI0
aI0
aI0
aI0
aa(lp3200
I0
aI0
aI0
aI1
aI0
aI0
aI0
aa(lp3201
I0
aI0
aI1
aI0
aI0
aI0
aI0
aI0
aa(lp3202
I0
aI0
aI0
aI0
aI0
aI1
aI0
aI1
aI0
aasba(iGenerate
GridGraph
p3203
(dp3204
g3
g13
sg14
(lp3205
(I17
I60
tp3206
a(I18
I60
tp3207
a(I16
I60
tp3208
a(I17
I61
tp3209
a(I19
I60
tp3210
a(I18
I59
tp3211
a(I16
I59
tp3212
a(I15
I59
tp3213
a(I17
I62
tp3214
a(I16
I62
tp3215
asg26
I10
sg27
(lp3216
(lp3217
a(lp3218
I1
aa(lp3219
I1
aI0
aa(lp3220
I1
aI0
aI0
aa(lp3221
I0
aI1
aI0
aI0
aa(lp3222
I0
aI1
aI0
aI0
aI0
aa(lp3223
I0
aI0
aI1
aI0
aI0
aI0
aa(lp3224
I0
aI0
aI0
aI0
aI0
aI0
aI1
aa(lp3225
I0
aI0
aI0
aI1
aI0
aI0
aI0
aI0
aa(lp3226
I0
aI0
aI0
aI0
aI0
aI0
aI0
aI0
aI1
aasg39
Nsg40
F1.0
sg41
(lp3227
(lp3228
a(lp3229
I1
aa(lp3230
I1
aI0
aa(lp3231
I1
aI0
aI0
aa(lp3232
I0
aI1
aI0
aI0
aa(lp3233
I0
aI1
aI0
aI0
aI0
aa(lp3234
I0
aI0
aI1
aI0
aI0
aI0
aa(lp3235
I0
aI0
aI0
aI0
aI0
aI0
aI1
aa(lp3236
I0
aI0
aI0
aI1
aI0
aI0
aI0
aI0
aa(lp3237
I0
aI0
aI0
aI0
aI0
aI0
aI0
aI0
aI1
aasba(iGenerate
GridGraph
p3238
(dp3239
g3
g13
sg14
(lp3240
(I3
I84
tp3241
a(I4
I84
tp3242
a(I4
I83
tp3243
a(I3
I85
tp3244
a(I2
I85
tp3245
a(I4
I82
tp3246
a(I1
I85
tp3247
a(I2
I86
tp3248
a(I3
I83
tp3249
a(I5
I84
tp3250
asg26
I10
sg27
(lp3251
(lp3252
a(lp3253
I1
aa(lp3254
I0
aI1
aa(lp3255
I1
aI0
aI0
aa(lp3256
I0
aI0
aI0
aI1
aa(lp3257
I0
aI0
aI1
aI0
aI0
aa(lp3258
I0
aI0
aI0
aI0
aI1
aI0
aa(lp3259
I0
aI0
aI0
aI0
aI1
aI0
aI0
aa(lp3260
I1
aI0
aI0
aI0
aI0
aI0
aI0
aI0
aa(lp3261
I0
aI1
aI0
aI0
aI0
aI0
aI0
aI0
aI0
aasg39
Nsg40
F1.0
sg41
(lp3262
(lp3263
a(lp3264
I1
aa(lp3265
I0
aI1
aa(lp3266
I1
aI0
aI0
aa(lp3267
I0
aI0
aI0
aI1
aa(lp3268
I0
aI0
aI1
aI0
aI0
aa(lp3269
I0
aI0
aI0
aI0
aI1
aI0
aa(lp3270
I0
aI0
aI0
aI0
aI1
aI0
aI0
aa(lp3271
I1
aI0
aI1
aI0
aI0
aI0
aI0
aI0
aa(lp3272
I0
aI1
aI0
aI0
aI0
aI0
aI0
aI0
aI0
aasba(iGenerate
GridGraph
p3273
(dp3274
g3
g13
sg14
(lp3275
(I67
I6
tp3276
a(I67
I7
tp3277
a(I66
I6
tp3278
a(I68
I6
tp3279
a(I69
I6
tp3280
a(I69
I7
tp3281
a(I70
I6
tp3282
a(I67
I5
tp3283
a(I66
I7
tp3284
a(I65
I6
tp3285
asg26
I10
sg27
(lp3286
(lp3287
a(lp3288
I1
aa(lp3289
I1
aI0
aa(lp3290
I1
aI0
aI0
aa(lp3291
I0
aI0
aI0
aI1
aa(lp3292
I0
aI0
aI0
aI0
aI1
aa(lp3293
I0
aI0
aI0
aI0
aI1
aI0
aa(lp3294
I1
aI0
aI0
aI0
aI0
aI0
aI0
aa(lp3295
I0
aI1
aI0
aI0
aI0
aI0
aI0
aI0
aa(lp3296
I0
aI0
aI1
aI0
aI0
aI0
aI0
aI0
aI0
aasg39
Nsg40
F1.0
sg41
(lp3297
(lp3298
a(lp3299
I1
aa(lp3300
I1
aI0
aa(lp3301
I1
aI0
aI0
aa(lp3302
I0
aI0
aI0
aI1
aa(lp3303
I0
aI0
aI0
aI0
aI1
aa(lp3304
I0
aI0
aI0
aI0
aI1
aI0
aa(lp3305
I1
aI0
aI0
aI0
aI0
aI0
aI0
aa(lp3306
I0
aI1
aI1
aI0
aI0
aI0
aI0
aI0
aa(lp3307
I0
aI0
aI1
aI0
aI0
aI0
aI0
aI0
aI0
aasba(iGenerate
GridGraph
p3308
(dp3309
g3
g13
sg14
(lp3310
(I58
I39
tp3311
a(I59
I39
tp3312
a(I57
I39
tp3313
a(I60
I39
tp3314
a(I58
I40
tp3315
a(I61
I39
tp3316
a(I57
I38
tp3317
a(I57
I40
tp3318
a(I58
I38
tp3319
a(I59
I40
tp3320
asg26
I10
sg27
(lp3321
(lp3322
a(lp3323
I0
aa(lp3324
I1
aI0
aa(lp3325
I0
aI1
aI0
aa(lp3326
I1
aI0
aI0
aI0
aa(lp3327
I0
aI0
aI0
aI1
aI0
aa(lp3328
I0
aI0
aI1
aI0
aI0
aI0
aa(lp3329
I0
aI0
aI1
aI0
aI0
aI0
aI0
aa(lp3330
I1
aI0
aI0
aI0
aI0
aI0
aI0
aI0
aa(lp3331
I0
aI1
aI0
aI0
aI1
aI0
aI0
aI0
aI0
aasg39
Nsg40
F1.0
sg41
(lp3332
(lp3333
a(lp3334
I1
aa(lp3335
I1
aI0
aa(lp3336
I0
aI1
aI0
aa(lp3337
I1
aI0
aI0
aI0
aa(lp3338
I0
aI0
aI0
aI1
aI0
aa(lp3339
I0
aI0
aI1
aI0
aI0
aI0
aa(lp3340
I0
aI0
aI1
aI0
aI1
aI0
aI0
aa(lp3341
I1
aI0
aI0
aI0
aI0
aI0
aI1
aI0
aa(lp3342
I0
aI1
aI0
aI0
aI1
aI0
aI0
aI0
aI0
aasba(iGenerate
GridGraph
p3343
(dp3344
g3
g13
sg14
(lp3345
(I52
I72
tp3346
a(I52
I73
tp3347
a(I53
I73
tp3348
a(I53
I72
tp3349
a(I54
I73
tp3350
a(I52
I71
tp3351
a(I51
I71
tp3352
a(I55
I73
tp3353
a(I55
I72
tp3354
a(I51
I73
tp3355
asg26
I10
sg27
(lp3356
(lp3357
a(lp3358
I0
aa(lp3359
I0
aI1
aa(lp3360
I1
aI0
aI1
aa(lp3361
I0
aI0
aI1
aI0
aa(lp3362
I1
aI0
aI0
aI0
aI0
aa(lp3363
I0
aI0
aI0
aI0
aI0
aI1
aa(lp3364
I0
aI0
aI0
aI0
aI1
aI0
aI0
aa(lp3365
I0
aI0
aI0
aI0
aI0
aI0
aI0
aI1
aa(lp3366
I0
aI1
aI0
aI0
aI0
aI0
aI0
aI0
aI0
aasg39
Nsg40
F1.0
sg41
(lp3367
(lp3368
a(lp3369
I1
aa(lp3370
I0
aI1
aa(lp3371
I1
aI0
aI1
aa(lp3372
I0
aI0
aI1
aI0
aa(lp3373
I1
aI0
aI0
aI0
aI0
aa(lp3374
I0
aI0
aI0
aI0
aI0
aI1
aa(lp3375
I0
aI0
aI0
aI0
aI1
aI0
aI0
aa(lp3376
I0
aI0
aI0
aI0
aI0
aI0
aI0
aI1
aa(lp3377
I0
aI1
aI0
aI0
aI0
aI0
aI0
aI0
aI0
aasba(iGenerate
GridGraph
p3378
(dp3379
g3
g13
sg14
(lp3380
(I68
I73
tp3381
a(I68
I72
tp3382
a(I67
I73
tp3383
a(I66
I73
tp3384
a(I67
I74
tp3385
a(I68
I74
tp3386
a(I66
I72
tp3387
a(I68
I71
tp3388
a(I67
I72
tp3389
a(I69
I73
tp3390
asg26
I10
sg27
(lp3391
(lp3392
a(lp3393
I1
aa(lp3394
I1
aI0
aa(lp3395
I0
aI0
aI1
aa(lp3396
I0
aI0
aI1
aI0
aa(lp3397
I1
aI0
aI0
aI0
aI0
aa(lp3398
I0
aI0
aI0
aI0
aI0
aI0
aa(lp3399
I0
aI1
aI0
aI0
aI0
aI0
aI0
aa(lp3400
I0
aI1
aI0
aI0
aI0
aI0
aI1
aI0
aa(lp3401
I1
aI0
aI0
aI0
aI0
aI0
aI0
aI0
aI0
aasg39
Nsg40
F1.0
sg41
(lp3402
(lp3403
a(lp3404
I1
aa(lp3405
I1
aI0
aa(lp3406
I0
aI0
aI1
aa(lp3407
I0
aI0
aI1
aI0
aa(lp3408
I1
aI0
aI0
aI0
aI1
aa(lp3409
I0
aI0
aI0
aI1
aI0
aI0
aa(lp3410
I0
aI1
aI0
aI0
aI0
aI0
aI0
aa(lp3411
I0
aI1
aI1
aI0
aI0
aI0
aI1
aI0
aa(lp3412
I1
aI0
aI0
aI0
aI0
aI0
aI0
aI0
aI0
aasba(iGenerate
GridGraph
p3413
(dp3414
g3
g13
sg14
(lp3415
(I25
I62
tp3416
a(I25
I63
tp3417
a(I25
I61
tp3418
a(I24
I62
tp3419
a(I24
I61
tp3420
a(I25
I60
tp3421
a(I23
I61
tp3422
a(I24
I60
tp3423
a(I25
I64
tp3424
a(I23
I60
tp3425
asg26
I10
sg27
(lp3426
(lp3427
a(lp3428
I1
aa(lp3429
I1
aI0
aa(lp3430
I1
aI0
aI0
aa(lp3431
I0
aI0
aI0
aI1
aa(lp3432
I0
aI0
aI1
aI0
aI0
aa(lp3433
I0
aI0
aI0
aI0
aI1
aI0
aa(lp3434
I0
aI0
aI0
aI0
aI0
aI1
aI0
aa(lp3435
I0
aI1
aI0
aI0
aI0
aI0
aI0
aI0
aa(lp3436
I0
aI0
aI0
aI0
aI0
aI0
aI1
aI0
aI0
aasg39
Nsg40
F1.0
sg41
(lp3437
(lp3438
a(lp3439
I1
aa(lp3440
I1
aI0
aa(lp3441
I1
aI0
aI0
aa(lp3442
I0
aI0
aI1
aI1
aa(lp3443
I0
aI0
aI1
aI0
aI0
aa(lp3444
I0
aI0
aI0
aI0
aI1
aI0
aa(lp3445
I0
aI0
aI0
aI0
aI1
aI1
aI0
aa(lp3446
I0
aI1
aI0
aI0
aI0
aI0
aI0
aI0
aa(lp3447
I0
aI0
aI0
aI0
aI0
aI0
aI1
aI1
aI0
aasba(iGenerate
GridGraph
p3448
(dp3449
g3
g13
sg14
(lp3450
(I58
I11
tp3451
a(I59
I11
tp3452
a(I58
I12
tp3453
a(I57
I11
tp3454
a(I60
I11
tp3455
a(I58
I13
tp3456
a(I59
I13
tp3457
a(I58
I14
tp3458
a(I57
I10
tp3459
a(I57
I14
tp3460
asg26
I10
sg27
(lp3461
(lp3462
a(lp3463
I1
aa(lp3464
I1
aI0
aa(lp3465
I1
aI0
aI0
aa(lp3466
I0
aI1
aI0
aI0
aa(lp3467
I0
aI0
aI1
aI0
aI0
aa(lp3468
I0
aI0
aI0
aI0
aI0
aI1
aa(lp3469
I0
aI0
aI0
aI0
aI0
aI1
aI0
aa(lp3470
I0
aI0
aI0
aI1
aI0
aI0
aI0
aI0
aa(lp3471
I0
aI0
aI0
aI0
aI0
aI0
aI0
aI1
aI0
aasg39
Nsg40
F1.0
sg41
(lp3472
(lp3473
a(lp3474
I1
aa(lp3475
I1
aI0
aa(lp3476
I1
aI0
aI0
aa(lp3477
I0
aI1
aI0
aI0
aa(lp3478
I0
aI0
aI1
aI0
aI0
aa(lp3479
I0
aI0
aI0
aI0
aI0
aI1
aa(lp3480
I0
aI0
aI0
aI0
aI0
aI1
aI0
aa(lp3481
I0
aI0
aI0
aI1
aI0
aI0
aI0
aI0
aa(lp3482
I0
aI0
aI0
aI0
aI0
aI0
aI0
aI1
aI0
aasba(iGenerate
GridGraph
p3483
(dp3484
g3
g13
sg14
(lp3485
(I47
I90
tp3486
a(I46
I90
tp3487
a(I47
I91
tp3488
a(I48
I91
tp3489
a(I47
I92
tp3490
a(I49
I91
tp3491
a(I45
I90
tp3492
a(I49
I90
tp3493
a(I46
I89
tp3494
a(I47
I93
tp3495
asg26
I10
sg27
(lp3496
(lp3497
a(lp3498
I1
aa(lp3499
I1
aI0
aa(lp3500
I0
aI0
aI1
aa(lp3501
I0
aI0
aI1
aI0
aa(lp3502
I0
aI0
aI0
aI1
aI0
aa(lp3503
I0
aI1
aI0
aI0
aI0
aI0
aa(lp3504
I0
aI0
aI0
aI0
aI0
aI1
aI0
aa(lp3505
I0
aI1
aI0
aI0
aI0
aI0
aI0
aI0
aa(lp3506
I0
aI0
aI0
aI0
aI1
aI0
aI0
aI0
aI0
aasg39
Nsg40
F1.0
sg41
(lp3507
(lp3508
a(lp3509
I1
aa(lp3510
I1
aI0
aa(lp3511
I0
aI0
aI1
aa(lp3512
I0
aI0
aI1
aI0
aa(lp3513
I0
aI0
aI0
aI1
aI0
aa(lp3514
I0
aI1
aI0
aI0
aI0
aI0
aa(lp3515
I0
aI0
aI0
aI0
aI0
aI1
aI0
aa(lp3516
I0
aI1
aI0
aI0
aI0
aI0
aI0
aI0
aa(lp3517
I0
aI0
aI0
aI0
aI1
aI0
aI0
aI0
aI0
aasba.